---
triple:          'arm64-apple-darwin'
binary-path:     ldsc
relocations:
  - { offsetInCU: 0xB901, offset: 0xB901, size: 0x8, addend: 0x0, symName: __ZNSt3__124__put_character_sequenceB8ue170006IcNS_11char_traitsIcEEEERNS_13basic_ostreamIT_T0_EES7_PKS4_m, symObjAddr: 0x948, symBinAddr: 0x100002B9C, symSize: 0x1EC }
  - { offsetInCU: 0xC64E, offset: 0xC64E, size: 0x8, addend: 0x0, symName: __ZNSt3__1lsB8ue170006INS_11char_traitsIcEEEERNS_13basic_ostreamIcT_EES6_PKc, symObjAddr: 0x378, symBinAddr: 0x1000025CC, symSize: 0x48 }
  - { offsetInCU: 0xC694, offset: 0xC694, size: 0x8, addend: 0x0, symName: __ZNSt3__1lsB8ue170006IcNS_11char_traitsIcEENS_9allocatorIcEEEERNS_13basic_ostreamIT_T0_EES9_RKNS_12basic_stringIS6_S7_T1_EE, symObjAddr: 0x3C0, symBinAddr: 0x100002614, symSize: 0x4C }
  - { offsetInCU: 0xC6EC, offset: 0xC6EC, size: 0x8, addend: 0x0, symName: __ZNSt3__112__to_addressB8ue170006IKcEEPT_S3_, symObjAddr: 0x71C, symBinAddr: 0x100002970, symSize: 0x14 }
  - { offsetInCU: 0xC754, offset: 0xC754, size: 0x8, addend: 0x0, symName: __ZNSt3__116__pad_and_outputB8ue170006IcNS_11char_traitsIcEEEENS_19ostreambuf_iteratorIT_T0_EES6_PKS4_S8_S8_RNS_8ios_baseES4_, symObjAddr: 0xB84, symBinAddr: 0x100002DD8, symSize: 0x240 }
  - { offsetInCU: 0xC823, offset: 0xC823, size: 0x8, addend: 0x0, symName: __ZNSt3__112__to_addressB8ue170006IcEEPT_S2_, symObjAddr: 0x10CC, symBinAddr: 0x100003320, symSize: 0x14 }
  - { offsetInCU: 0xC88B, offset: 0xC88B, size: 0x8, addend: 0x0, symName: __ZNSt3__19use_facetB8ue170006INS_5ctypeIcEEEERKT_RKNS_6localeE, symObjAddr: 0x130C, symBinAddr: 0x100003560, symSize: 0x2C }
  - { offsetInCU: 0xCD58, offset: 0xCD58, size: 0x8, addend: 0x0, symName: __ZNSt3__118__constexpr_strlenB8ue170006EPKc, symObjAddr: 0x1370, symBinAddr: 0x1000035C4, symSize: 0x24 }
  - { offsetInCU: 0xDB0B, offset: 0xDB0B, size: 0x8, addend: 0x0, symName: __ZN6Logger2muEv, symObjAddr: 0x2C0, symBinAddr: 0x100002514, symSize: 0x84 }
  - { offsetInCU: 0xDB2A, offset: 0xDB2A, size: 0x8, addend: 0x0, symName: __ZZN6Logger2muEvE1m, symObjAddr: 0x1530, symBinAddr: 0x100044000, symSize: 0x0 }
  - { offsetInCU: 0xFB16, offset: 0xFB16, size: 0x8, addend: 0x0, symName: __ZN6LoggerC2ERKNSt3__112basic_stringIcNS0_11char_traitsIcEENS0_9allocatorIcEEEEb, symObjAddr: 0x0, symBinAddr: 0x100002254, symSize: 0x12C }
  - { offsetInCU: 0xFB70, offset: 0xFB70, size: 0x8, addend: 0x0, symName: __ZNSt3__114basic_ofstreamIcNS_11char_traitsIcEEEC1ERKNS_12basic_stringIcS2_NS_9allocatorIcEEEEj, symObjAddr: 0x12C, symBinAddr: 0x100002380, symSize: 0x16C }
  - { offsetInCU: 0xFBB8, offset: 0xFBB8, size: 0x8, addend: 0x0, symName: __ZNKSt3__19basic_iosIcNS_11char_traitsIcEEEntB8ue170006Ev, symObjAddr: 0x298, symBinAddr: 0x1000024EC, symSize: 0x28 }
  - { offsetInCU: 0xFBFA, offset: 0xFBFA, size: 0x8, addend: 0x0, symName: __ZNSt3__110lock_guardINS_5mutexEEC1B8ue170006ERS1_, symObjAddr: 0x344, symBinAddr: 0x100002598, symSize: 0x34 }
  - { offsetInCU: 0xFC30, offset: 0xFC30, size: 0x8, addend: 0x0, symName: __ZNSt3__110lock_guardINS_5mutexEED1B8ue170006Ev, symObjAddr: 0x40C, symBinAddr: 0x100002660, symSize: 0x2C }
  - { offsetInCU: 0xFC5D, offset: 0xFC5D, size: 0x8, addend: 0x0, symName: __ZNSt3__114basic_ofstreamIcNS_11char_traitsIcEEED1Ev, symObjAddr: 0x438, symBinAddr: 0x10000268C, symSize: 0x40 }
  - { offsetInCU: 0xFC88, offset: 0xFC88, size: 0x8, addend: 0x0, symName: __ZN6LoggerC1ERKNSt3__112basic_stringIcNS0_11char_traitsIcEENS0_9allocatorIcEEEEb, symObjAddr: 0x478, symBinAddr: 0x1000026CC, symSize: 0x48 }
  - { offsetInCU: 0xFCCE, offset: 0xFCCE, size: 0x8, addend: 0x0, symName: __ZNSt3__114basic_ofstreamIcNS_11char_traitsIcEEED2Ev, symObjAddr: 0x4C0, symBinAddr: 0x100002714, symSize: 0x64 }
  - { offsetInCU: 0xFD06, offset: 0xFD06, size: 0x8, addend: 0x0, symName: __ZTv0_n24_NSt3__114basic_ofstreamIcNS_11char_traitsIcEEED1Ev, symObjAddr: 0x524, symBinAddr: 0x100002778, symSize: 0x28 }
  - { offsetInCU: 0xFD1B, offset: 0xFD1B, size: 0x8, addend: 0x0, symName: __ZNSt3__19basic_iosIcNS_11char_traitsIcEEEC2B8ue170006Ev, symObjAddr: 0x54C, symBinAddr: 0x1000027A0, symSize: 0x44 }
  - { offsetInCU: 0xFD43, offset: 0xFD43, size: 0x8, addend: 0x0, symName: __ZNSt3__113basic_ostreamIcNS_11char_traitsIcEEEC2B8ue170006EPNS_15basic_streambufIcS2_EE, symObjAddr: 0x590, symBinAddr: 0x1000027E4, symSize: 0x60 }
  - { offsetInCU: 0xFD86, offset: 0xFD86, size: 0x8, addend: 0x0, symName: __ZNSt3__113basic_filebufIcNS_11char_traitsIcEEE4openERKNS_12basic_stringIcS2_NS_9allocatorIcEEEEj, symObjAddr: 0x5F0, symBinAddr: 0x100002844, symSize: 0x44 }
  - { offsetInCU: 0xFDC8, offset: 0xFDC8, size: 0x8, addend: 0x0, symName: __ZNSt3__19basic_iosIcNS_11char_traitsIcEEE8setstateB8ue170006Ej, symObjAddr: 0x634, symBinAddr: 0x100002888, symSize: 0x2C }
  - { offsetInCU: 0xFDFC, offset: 0xFDFC, size: 0x8, addend: 0x0, symName: __ZNSt3__18ios_baseC2B8ue170006Ev, symObjAddr: 0x660, symBinAddr: 0x1000028B4, symSize: 0x24 }
  - { offsetInCU: 0xFE25, offset: 0xFE25, size: 0x8, addend: 0x0, symName: __ZNSt3__19basic_iosIcNS_11char_traitsIcEEE4initB8ue170006EPNS_15basic_streambufIcS2_EE, symObjAddr: 0x684, symBinAddr: 0x1000028D8, symSize: 0x44 }
  - { offsetInCU: 0xFE5B, offset: 0xFE5B, size: 0x8, addend: 0x0, symName: __ZNSt3__111char_traitsIcE3eofB8ue170006Ev, symObjAddr: 0x6C8, symBinAddr: 0x10000291C, symSize: 0x8 }
  - { offsetInCU: 0xFE6E, offset: 0xFE6E, size: 0x8, addend: 0x0, symName: __ZNKSt3__112basic_stringIcNS_11char_traitsIcEENS_9allocatorIcEEE5c_strB8ue170006Ev, symObjAddr: 0x6D0, symBinAddr: 0x100002924, symSize: 0x24 }
  - { offsetInCU: 0xFE92, offset: 0xFE92, size: 0x8, addend: 0x0, symName: __ZNKSt3__112basic_stringIcNS_11char_traitsIcEENS_9allocatorIcEEE4dataB8ue170006Ev, symObjAddr: 0x6F4, symBinAddr: 0x100002948, symSize: 0x28 }
  - { offsetInCU: 0xFEB6, offset: 0xFEB6, size: 0x8, addend: 0x0, symName: __ZNKSt3__112basic_stringIcNS_11char_traitsIcEENS_9allocatorIcEEE13__get_pointerB8ue170006Ev, symObjAddr: 0x730, symBinAddr: 0x100002984, symSize: 0x54 }
  - { offsetInCU: 0xFEDA, offset: 0xFEDA, size: 0x8, addend: 0x0, symName: __ZNKSt3__112basic_stringIcNS_11char_traitsIcEENS_9allocatorIcEEE9__is_longB8ue170006Ev, symObjAddr: 0x784, symBinAddr: 0x1000029D8, symSize: 0x38 }
  - { offsetInCU: 0xFEFE, offset: 0xFEFE, size: 0x8, addend: 0x0, symName: __ZNKSt3__112basic_stringIcNS_11char_traitsIcEENS_9allocatorIcEEE18__get_long_pointerB8ue170006Ev, symObjAddr: 0x7BC, symBinAddr: 0x100002A10, symSize: 0x28 }
  - { offsetInCU: 0xFF22, offset: 0xFF22, size: 0x8, addend: 0x0, symName: __ZNKSt3__112basic_stringIcNS_11char_traitsIcEENS_9allocatorIcEEE19__get_short_pointerB8ue170006Ev, symObjAddr: 0x7E4, symBinAddr: 0x100002A38, symSize: 0x28 }
  - { offsetInCU: 0xFF46, offset: 0xFF46, size: 0x8, addend: 0x0, symName: __ZNKSt3__117__compressed_pairINS_12basic_stringIcNS_11char_traitsIcEENS_9allocatorIcEEE5__repES5_E5firstB8ue170006Ev, symObjAddr: 0x80C, symBinAddr: 0x100002A60, symSize: 0x24 }
  - { offsetInCU: 0xFF6B, offset: 0xFF6B, size: 0x8, addend: 0x0, symName: __ZNKSt3__122__compressed_pair_elemINS_12basic_stringIcNS_11char_traitsIcEENS_9allocatorIcEEE5__repELi0ELb0EE5__getB8ue170006Ev, symObjAddr: 0x830, symBinAddr: 0x100002A84, symSize: 0x14 }
  - { offsetInCU: 0xFF90, offset: 0xFF90, size: 0x8, addend: 0x0, symName: __ZNSt3__114pointer_traitsIPKcE10pointer_toB8ue170006ERS1_, symObjAddr: 0x844, symBinAddr: 0x100002A98, symSize: 0x14 }
  - { offsetInCU: 0xFFB3, offset: 0xFFB3, size: 0x8, addend: 0x0, symName: __ZNSt3__18ios_base8setstateB8ue170006Ej, symObjAddr: 0x858, symBinAddr: 0x100002AAC, symSize: 0x34 }
  - { offsetInCU: 0xFFE8, offset: 0xFFE8, size: 0x8, addend: 0x0, symName: __ZNKSt3__19basic_iosIcNS_11char_traitsIcEEE4failB8ue170006Ev, symObjAddr: 0x88C, symBinAddr: 0x100002AE0, symSize: 0x28 }
  - { offsetInCU: 0x1000D, offset: 0x1000D, size: 0x8, addend: 0x0, symName: __ZNKSt3__18ios_base4failB8ue170006Ev, symObjAddr: 0x8B4, symBinAddr: 0x100002B08, symSize: 0x28 }
  - { offsetInCU: 0x10033, offset: 0x10033, size: 0x8, addend: 0x0, symName: __ZNSt3__110lock_guardINS_5mutexEEC2B8ue170006ERS1_, symObjAddr: 0x8DC, symBinAddr: 0x100002B30, symSize: 0x3C }
  - { offsetInCU: 0x10069, offset: 0x10069, size: 0x8, addend: 0x0, symName: __ZNSt3__110lock_guardINS_5mutexEED2B8ue170006Ev, symObjAddr: 0x918, symBinAddr: 0x100002B6C, symSize: 0x30 }
  - { offsetInCU: 0x10091, offset: 0x10091, size: 0x8, addend: 0x0, symName: __ZNSt3__111char_traitsIcE6lengthB8ue170006EPKc, symObjAddr: 0xB34, symBinAddr: 0x100002D88, symSize: 0x34 }
  - { offsetInCU: 0x100D2, offset: 0x100D2, size: 0x8, addend: 0x0, symName: __ZNKSt3__113basic_ostreamIcNS_11char_traitsIcEEE6sentrycvbB8ue170006Ev, symObjAddr: 0xB68, symBinAddr: 0x100002DBC, symSize: 0x1C }
  - { offsetInCU: 0x100F6, offset: 0x100F6, size: 0x8, addend: 0x0, symName: __ZNSt3__119ostreambuf_iteratorIcNS_11char_traitsIcEEEC1B8ue170006ERNS_13basic_ostreamIcS2_EE, symObjAddr: 0xDC4, symBinAddr: 0x100003018, symSize: 0x34 }
  - { offsetInCU: 0x1012D, offset: 0x1012D, size: 0x8, addend: 0x0, symName: __ZNKSt3__18ios_base5flagsB8ue170006Ev, symObjAddr: 0xDF8, symBinAddr: 0x10000304C, symSize: 0x18 }
  - { offsetInCU: 0x10154, offset: 0x10154, size: 0x8, addend: 0x0, symName: __ZNKSt3__19basic_iosIcNS_11char_traitsIcEEE4fillB8ue170006Ev, symObjAddr: 0xE10, symBinAddr: 0x100003064, symSize: 0x64 }
  - { offsetInCU: 0x1017B, offset: 0x1017B, size: 0x8, addend: 0x0, symName: __ZNKSt3__119ostreambuf_iteratorIcNS_11char_traitsIcEEE6failedB8ue170006Ev, symObjAddr: 0xE74, symBinAddr: 0x1000030C8, symSize: 0x24 }
  - { offsetInCU: 0x101A0, offset: 0x101A0, size: 0x8, addend: 0x0, symName: __ZNKSt3__18ios_base5widthB8ue170006Ev, symObjAddr: 0xEA4, symBinAddr: 0x1000030F8, symSize: 0x18 }
  - { offsetInCU: 0x101C6, offset: 0x101C6, size: 0x8, addend: 0x0, symName: __ZNSt3__115basic_streambufIcNS_11char_traitsIcEEE5sputnB8ue170006EPKcl, symObjAddr: 0xEBC, symBinAddr: 0x100003110, symSize: 0x3C }
  - { offsetInCU: 0x10206, offset: 0x10206, size: 0x8, addend: 0x0, symName: __ZNSt3__112basic_stringIcNS_11char_traitsIcEENS_9allocatorIcEEEC1B8ue170006Emc, symObjAddr: 0xEF8, symBinAddr: 0x10000314C, symSize: 0x3C }
  - { offsetInCU: 0x1024C, offset: 0x1024C, size: 0x8, addend: 0x0, symName: __ZNSt3__112basic_stringIcNS_11char_traitsIcEENS_9allocatorIcEEE4dataB8ue170006Ev, symObjAddr: 0xF34, symBinAddr: 0x100003188, symSize: 0x28 }
  - { offsetInCU: 0x10271, offset: 0x10271, size: 0x8, addend: 0x0, symName: __ZNSt3__18ios_base5widthB8ue170006El, symObjAddr: 0xF5C, symBinAddr: 0x1000031B0, symSize: 0x2C }
  - { offsetInCU: 0x102B5, offset: 0x102B5, size: 0x8, addend: 0x0, symName: __ZNSt3__112basic_stringIcNS_11char_traitsIcEENS_9allocatorIcEEEC2B8ue170006Emc, symObjAddr: 0xF88, symBinAddr: 0x1000031DC, symSize: 0x4C }
  - { offsetInCU: 0x10300, offset: 0x10300, size: 0x8, addend: 0x0, symName: __ZNSt3__117__compressed_pairINS_12basic_stringIcNS_11char_traitsIcEENS_9allocatorIcEEE5__repES5_EC1B8ue170006INS_18__default_init_tagESA_EEOT_OT0_, symObjAddr: 0xFD4, symBinAddr: 0x100003228, symSize: 0x3C }
  - { offsetInCU: 0x10356, offset: 0x10356, size: 0x8, addend: 0x0, symName: __ZNSt3__117__compressed_pairINS_12basic_stringIcNS_11char_traitsIcEENS_9allocatorIcEEE5__repES5_EC2B8ue170006INS_18__default_init_tagESA_EEOT_OT0_, symObjAddr: 0x1010, symBinAddr: 0x100003264, symSize: 0x3C }
  - { offsetInCU: 0x103AD, offset: 0x103AD, size: 0x8, addend: 0x0, symName: __ZNSt3__122__compressed_pair_elemINS_12basic_stringIcNS_11char_traitsIcEENS_9allocatorIcEEE5__repELi0ELb0EEC2B8ue170006ENS_18__default_init_tagE, symObjAddr: 0x104C, symBinAddr: 0x1000032A0, symSize: 0x14 }
  - { offsetInCU: 0x103E0, offset: 0x103E0, size: 0x8, addend: 0x0, symName: __ZNSt3__122__compressed_pair_elemINS_9allocatorIcEELi1ELb1EEC2B8ue170006ENS_18__default_init_tagE, symObjAddr: 0x1060, symBinAddr: 0x1000032B4, symSize: 0x2C }
  - { offsetInCU: 0x10413, offset: 0x10413, size: 0x8, addend: 0x0, symName: __ZNSt3__19allocatorIcEC2B8ue170006Ev, symObjAddr: 0x108C, symBinAddr: 0x1000032E0, symSize: 0x2C }
  - { offsetInCU: 0x1043C, offset: 0x1043C, size: 0x8, addend: 0x0, symName: __ZNSt3__116__non_trivial_ifILb1ENS_9allocatorIcEEEC2B8ue170006Ev, symObjAddr: 0x10B8, symBinAddr: 0x10000330C, symSize: 0x14 }
  - { offsetInCU: 0x10464, offset: 0x10464, size: 0x8, addend: 0x0, symName: __ZNSt3__112basic_stringIcNS_11char_traitsIcEENS_9allocatorIcEEE13__get_pointerB8ue170006Ev, symObjAddr: 0x10E0, symBinAddr: 0x100003334, symSize: 0x54 }
  - { offsetInCU: 0x10488, offset: 0x10488, size: 0x8, addend: 0x0, symName: __ZNSt3__112basic_stringIcNS_11char_traitsIcEENS_9allocatorIcEEE18__get_long_pointerB8ue170006Ev, symObjAddr: 0x1134, symBinAddr: 0x100003388, symSize: 0x28 }
  - { offsetInCU: 0x104AC, offset: 0x104AC, size: 0x8, addend: 0x0, symName: __ZNSt3__112basic_stringIcNS_11char_traitsIcEENS_9allocatorIcEEE19__get_short_pointerB8ue170006Ev, symObjAddr: 0x115C, symBinAddr: 0x1000033B0, symSize: 0x28 }
  - { offsetInCU: 0x104D0, offset: 0x104D0, size: 0x8, addend: 0x0, symName: __ZNSt3__117__compressed_pairINS_12basic_stringIcNS_11char_traitsIcEENS_9allocatorIcEEE5__repES5_E5firstB8ue170006Ev, symObjAddr: 0x1184, symBinAddr: 0x1000033D8, symSize: 0x24 }
  - { offsetInCU: 0x104F5, offset: 0x104F5, size: 0x8, addend: 0x0, symName: __ZNSt3__122__compressed_pair_elemINS_12basic_stringIcNS_11char_traitsIcEENS_9allocatorIcEEE5__repELi0ELb0EE5__getB8ue170006Ev, symObjAddr: 0x11A8, symBinAddr: 0x1000033FC, symSize: 0x14 }
  - { offsetInCU: 0x1051A, offset: 0x1051A, size: 0x8, addend: 0x0, symName: __ZNSt3__114pointer_traitsIPcE10pointer_toB8ue170006ERc, symObjAddr: 0x11BC, symBinAddr: 0x100003410, symSize: 0x14 }
  - { offsetInCU: 0x1053C, offset: 0x1053C, size: 0x8, addend: 0x0, symName: __ZNSt3__119ostreambuf_iteratorIcNS_11char_traitsIcEEEC2B8ue170006ERNS_13basic_ostreamIcS2_EE, symObjAddr: 0x11D0, symBinAddr: 0x100003424, symSize: 0x54 }
  - { offsetInCU: 0x10573, offset: 0x10573, size: 0x8, addend: 0x0, symName: __ZNKSt3__19basic_iosIcNS_11char_traitsIcEEE5rdbufB8ue170006Ev, symObjAddr: 0x1224, symBinAddr: 0x100003478, symSize: 0x24 }
  - { offsetInCU: 0x1059A, offset: 0x1059A, size: 0x8, addend: 0x0, symName: __ZNKSt3__18ios_base5rdbufB8ue170006Ev, symObjAddr: 0x1248, symBinAddr: 0x10000349C, symSize: 0x18 }
  - { offsetInCU: 0x105BF, offset: 0x105BF, size: 0x8, addend: 0x0, symName: __ZNSt3__111char_traitsIcE11eq_int_typeB8ue170006Eii, symObjAddr: 0x1260, symBinAddr: 0x1000034B4, symSize: 0x28 }
  - { offsetInCU: 0x105F2, offset: 0x105F2, size: 0x8, addend: 0x0, symName: __ZNKSt3__19basic_iosIcNS_11char_traitsIcEEE5widenB8ue170006Ec, symObjAddr: 0x1288, symBinAddr: 0x1000034DC, symSize: 0x84 }
  - { offsetInCU: 0x1065E, offset: 0x1065E, size: 0x8, addend: 0x0, symName: __ZNKSt3__15ctypeIcE5widenB8ue170006Ec, symObjAddr: 0x1338, symBinAddr: 0x10000358C, symSize: 0x38 }
  - { offsetInCU: 0x10691, offset: 0x10691, size: 0x8, addend: 0x0, symName: __ZNKSt3__112basic_stringIcNS_11char_traitsIcEENS_9allocatorIcEEE4sizeB8ue170006Ev, symObjAddr: 0x1394, symBinAddr: 0x1000035E8, symSize: 0x54 }
  - { offsetInCU: 0x106B5, offset: 0x106B5, size: 0x8, addend: 0x0, symName: __ZNKSt3__112basic_stringIcNS_11char_traitsIcEENS_9allocatorIcEEE15__get_long_sizeB8ue170006Ev, symObjAddr: 0x13E8, symBinAddr: 0x10000363C, symSize: 0x28 }
  - { offsetInCU: 0x106D9, offset: 0x106D9, size: 0x8, addend: 0x0, symName: __ZNKSt3__112basic_stringIcNS_11char_traitsIcEENS_9allocatorIcEEE16__get_short_sizeB8ue170006Ev, symObjAddr: 0x1410, symBinAddr: 0x100003664, symSize: 0x34 }
  - { offsetInCU: 0x52, offset: 0x107AE, size: 0x8, addend: 0x0, symName: __ZL11kConditions, symObjAddr: 0x44F8, symBinAddr: 0x100044048, symSize: 0x0 }
  - { offsetInCU: 0x71, offset: 0x107CD, size: 0x8, addend: 0x0, symName: __ZL8kCredits, symObjAddr: 0x4500, symBinAddr: 0x100044050, symSize: 0x0 }
  - { offsetInCU: 0x8B, offset: 0x107E7, size: 0x8, addend: 0x0, symName: __ZL9kWarranty, symObjAddr: 0x4508, symBinAddr: 0x100044058, symSize: 0x0 }
  - { offsetInCU: 0x5850, offset: 0x15FAC, size: 0x8, addend: 0x0, symName: __ZNSt3__1eqB8ue170006IcNS_11char_traitsIcEENS_9allocatorIcEEEEbRKNS_12basic_stringIT_T0_T1_EEPKS6_, symObjAddr: 0x648, symBinAddr: 0x100003CE0, symSize: 0xAC }
  - { offsetInCU: 0x58B7, offset: 0x16013, size: 0x8, addend: 0x0, symName: __ZNSt3__17getlineB8ue170006IcNS_11char_traitsIcEENS_9allocatorIcEEEERNS_13basic_istreamIT_T0_EES9_RNS_12basic_stringIS6_S7_T1_EE, symObjAddr: 0x950, symBinAddr: 0x100003F54, symSize: 0x5C }
  - { offsetInCU: 0x590F, offset: 0x1606B, size: 0x8, addend: 0x0, symName: __ZNSt3__17getlineB8ue170006IcNS_11char_traitsIcEENS_9allocatorIcEEEERNS_13basic_istreamIT_T0_EES9_RNS_12basic_stringIS6_S7_T1_EES6_, symObjAddr: 0xBC8, symBinAddr: 0x100004068, symSize: 0x238 }
  - { offsetInCU: 0x6144, offset: 0x168A0, size: 0x8, addend: 0x0, symName: __ZNSt3__112__to_addressB8ue170006IPcEEPT_S3_, symObjAddr: 0x1A00, symBinAddr: 0x100004B18, symSize: 0x14 }
  - { offsetInCU: 0x6179, offset: 0x168D5, size: 0x8, addend: 0x0, symName: __ZNSt3__13maxB8ue170006ImEERKT_S3_S3_, symObjAddr: 0x1DF4, symBinAddr: 0x100004F0C, symSize: 0x2C }
  - { offsetInCU: 0x61BC, offset: 0x16918, size: 0x8, addend: 0x0, symName: __ZNSt3__13minB8ue170006ImEERKT_S3_S3_, symObjAddr: 0x1E20, symBinAddr: 0x100004F38, symSize: 0x2C }
  - { offsetInCU: 0x63E9, offset: 0x16B45, size: 0x8, addend: 0x0, symName: __ZNSt3__13minB8ue170006ImNS_6__lessIvvEEEERKT_S5_S5_T0_, symObjAddr: 0x1EAC, symBinAddr: 0x100004FC4, symSize: 0x54 }
  - { offsetInCU: 0x648A, offset: 0x16BE6, size: 0x8, addend: 0x0, symName: __ZNSt3__120__throw_length_errorB8ue170006EPKc, symObjAddr: 0x1F88, symBinAddr: 0x1000050A0, symSize: 0x64 }
  - { offsetInCU: 0x64B5, offset: 0x16C11, size: 0x8, addend: 0x0, symName: __ZNSt3__13maxB8ue170006ImNS_6__lessIvvEEEERKT_S5_S5_T0_, symObjAddr: 0x20CC, symBinAddr: 0x1000051E4, symSize: 0x54 }
  - { offsetInCU: 0x650F, offset: 0x16C6B, size: 0x8, addend: 0x0, symName: __ZNSt3__119__allocate_at_leastB8ue170006INS_9allocatorIPcEEEENS_19__allocation_resultINS_16allocator_traitsIT_E7pointerEEERS6_m, symObjAddr: 0x2230, symBinAddr: 0x100005348, symSize: 0x40 }
  - { offsetInCU: 0x6552, offset: 0x16CAE, size: 0x8, addend: 0x0, symName: __ZNSt3__117__libcpp_allocateB8ue170006Emm, symObjAddr: 0x23B4, symBinAddr: 0x1000054CC, symSize: 0x60 }
  - { offsetInCU: 0x65AD, offset: 0x16D09, size: 0x8, addend: 0x0, symName: __ZNSt3__124__is_overaligned_for_newB8ue170006Em, symObjAddr: 0x2414, symBinAddr: 0x10000552C, symSize: 0x20 }
  - { offsetInCU: 0x65DC, offset: 0x16D38, size: 0x8, addend: 0x0, symName: __ZNSt3__121__libcpp_operator_newB8ue170006IJmSt11align_val_tEEEPvDpT_, symObjAddr: 0x2434, symBinAddr: 0x10000554C, symSize: 0x2C }
  - { offsetInCU: 0x662C, offset: 0x16D88, size: 0x8, addend: 0x0, symName: __ZNSt3__121__libcpp_operator_newB8ue170006IJmEEEPvDpT_, symObjAddr: 0x2460, symBinAddr: 0x100005578, symSize: 0x24 }
  - { offsetInCU: 0x6667, offset: 0x16DC3, size: 0x8, addend: 0x0, symName: __ZNSt3__142__uninitialized_allocator_move_if_noexceptB8ue170006INS_9allocatorIPcEENS_16reverse_iteratorIPS2_EES6_S2_vEET1_RT_T0_SA_S7_, symObjAddr: 0x25A0, symBinAddr: 0x1000056B8, symSize: 0x78 }
  - { offsetInCU: 0x66E6, offset: 0x16E42, size: 0x8, addend: 0x0, symName: __ZNSt3__14swapB8ue170006IPPcEENS_9enable_ifIXaasr21is_move_constructibleIT_EE5valuesr18is_move_assignableIS4_EE5valueEvE4typeERS4_S7_, symObjAddr: 0x2664, symBinAddr: 0x10000577C, symSize: 0x3C }
  - { offsetInCU: 0x6737, offset: 0x16E93, size: 0x8, addend: 0x0, symName: __ZNSt3__14moveB8ue170006INS_16reverse_iteratorIPPcEES4_EET0_T_S6_S5_, symObjAddr: 0x2794, symBinAddr: 0x1000058AC, symSize: 0x78 }
  - { offsetInCU: 0x6791, offset: 0x16EED, size: 0x8, addend: 0x0, symName: __ZNSt3__16__moveB8ue170006INS_17_ClassicAlgPolicyENS_16reverse_iteratorIPPcEES5_S5_EENS_4pairIT0_T2_EES7_T1_S8_, symObjAddr: 0x280C, symBinAddr: 0x100005924, symSize: 0x64 }
  - { offsetInCU: 0x67FD, offset: 0x16F59, size: 0x8, addend: 0x0, symName: __ZNSt3__123__dispatch_copy_or_moveB8ue170006INS_17_ClassicAlgPolicyENS_11__move_loopIS1_EENS_14__move_trivialENS_16reverse_iteratorIPPcEES8_S8_EENS_4pairIT2_T4_EESA_T3_SB_, symObjAddr: 0x2870, symBinAddr: 0x100005988, symSize: 0x64 }
  - { offsetInCU: 0x687B, offset: 0x16FD7, size: 0x8, addend: 0x0, symName: __ZNSt3__121__unwrap_and_dispatchB8ue170006INS_10__overloadINS_11__move_loopINS_17_ClassicAlgPolicyEEENS_14__move_trivialEEENS_16reverse_iteratorIPPcEESA_SA_Li0EEENS_4pairIT0_T2_EESC_T1_SD_, symObjAddr: 0x28D4, symBinAddr: 0x1000059EC, symSize: 0x12C }
  - { offsetInCU: 0x690C, offset: 0x17068, size: 0x8, addend: 0x0, symName: __ZNSt3__114__unwrap_rangeB8ue170006INS_16reverse_iteratorIPPcEES4_EENS_4pairIT0_S6_EET_S8_, symObjAddr: 0x2A00, symBinAddr: 0x100005B18, symSize: 0x84 }
  - { offsetInCU: 0x6A88, offset: 0x171E4, size: 0x8, addend: 0x0, symName: __ZNSt3__113__unwrap_iterB8ue170006INS_16reverse_iteratorIPPcEENS_18__unwrap_iter_implIS4_Lb0EEELi0EEEDTclsrT0_8__unwrapclsr3stdE7declvalIT_EEEES8_, symObjAddr: 0x2B24, symBinAddr: 0x100005C3C, symSize: 0x44 }
  - { offsetInCU: 0x6ACD, offset: 0x17229, size: 0x8, addend: 0x0, symName: __ZNSt3__19make_pairB8ue170006INS_16reverse_iteratorIPPcEES4_EENS_4pairINS_18__unwrap_ref_decayIT_E4typeENS6_IT0_E4typeEEEOS7_OSA_, symObjAddr: 0x2B68, symBinAddr: 0x100005C80, symSize: 0x38 }
  - { offsetInCU: 0x6B1C, offset: 0x17278, size: 0x8, addend: 0x0, symName: __ZNSt3__114__rewrap_rangeB8ue170006INS_16reverse_iteratorIPPcEES4_EET_S5_T0_, symObjAddr: 0x2BA0, symBinAddr: 0x100005CB8, symSize: 0x5C }
  - { offsetInCU: 0x6B68, offset: 0x172C4, size: 0x8, addend: 0x0, symName: __ZNSt3__113__rewrap_iterB8ue170006INS_16reverse_iteratorIPPcEES4_NS_18__unwrap_iter_implIS4_Lb0EEEEET_S7_T0_, symObjAddr: 0x2BFC, symBinAddr: 0x100005D14, symSize: 0x74 }
  - { offsetInCU: 0x6BBD, offset: 0x17319, size: 0x8, addend: 0x0, symName: __ZNSt3__1neB8ue170006IPPcS2_EEbRKNS_16reverse_iteratorIT_EERKNS3_IT0_EE, symObjAddr: 0x2C70, symBinAddr: 0x100005D88, symSize: 0x48 }
  - { offsetInCU: 0x6CBD, offset: 0x17419, size: 0x8, addend: 0x0, symName: __ZNSt3__119__libcpp_deallocateB8ue170006EPvmm, symObjAddr: 0x3068, symBinAddr: 0x100006180, symSize: 0x60 }
  - { offsetInCU: 0x6D24, offset: 0x17480, size: 0x8, addend: 0x0, symName: __ZNSt3__127__do_deallocate_handle_sizeB8ue170006IJSt11align_val_tEEEvPvmDpT_, symObjAddr: 0x30C8, symBinAddr: 0x1000061E0, symSize: 0x30 }
  - { offsetInCU: 0x6D7A, offset: 0x174D6, size: 0x8, addend: 0x0, symName: __ZNSt3__127__do_deallocate_handle_sizeB8ue170006IJEEEvPvmDpT_, symObjAddr: 0x30F8, symBinAddr: 0x100006210, symSize: 0x28 }
  - { offsetInCU: 0x6DBA, offset: 0x17516, size: 0x8, addend: 0x0, symName: __ZNSt3__124__libcpp_operator_deleteB8ue170006IJPvSt11align_val_tEEEvDpT_, symObjAddr: 0x3120, symBinAddr: 0x100006238, symSize: 0x2C }
  - { offsetInCU: 0x6E07, offset: 0x17563, size: 0x8, addend: 0x0, symName: __ZNSt3__124__libcpp_operator_deleteB8ue170006IJPvEEEvDpT_, symObjAddr: 0x314C, symBinAddr: 0x100006264, symSize: 0x24 }
  - { offsetInCU: 0x70E1, offset: 0x1783D, size: 0x8, addend: 0x0, symName: __ZSt28__throw_bad_array_new_lengthB8ue170006v, symObjAddr: 0x2380, symBinAddr: 0x100005498, symSize: 0x34 }
  - { offsetInCU: 0x74D3, offset: 0x17C2F, size: 0x8, addend: 0x0, symName: __ZNSt3__16vectorIPcNS_9allocatorIS1_EEE26__swap_out_circular_bufferERNS_14__split_bufferIS1_RS3_EE, symObjAddr: 0x1BFC, symBinAddr: 0x100004D14, symSize: 0x110 }
  - { offsetInCU: 0x92F0, offset: 0x19A4C, size: 0x8, addend: 0x0, symName: _main, symObjAddr: 0x0, symBinAddr: 0x100003698, symSize: 0x3F4 }
  - { offsetInCU: 0x935F, offset: 0x19ABB, size: 0x8, addend: 0x0, symName: __ZL18interactive_bannerv, symObjAddr: 0x3F4, symBinAddr: 0x100003A8C, symSize: 0x220 }
  - { offsetInCU: 0x938D, offset: 0x19AE9, size: 0x8, addend: 0x0, symName: __ZNSt3__112basic_stringIcNS_11char_traitsIcEENS_9allocatorIcEEEC1B8ue170006ILi0EEEPKc, symObjAddr: 0x614, symBinAddr: 0x100003CAC, symSize: 0x34 }
  - { offsetInCU: 0x93CA, offset: 0x19B26, size: 0x8, addend: 0x0, symName: __Z10shift_argviPPci, symObjAddr: 0x73C, symBinAddr: 0x100003D8C, symSize: 0xF8 }
  - { offsetInCU: 0x943F, offset: 0x19B9B, size: 0x8, addend: 0x0, symName: __ZNKSt3__16vectorIPcNS_9allocatorIS1_EEE4sizeB8ue170006Ev, symObjAddr: 0x834, symBinAddr: 0x100003E84, symSize: 0x28 }
  - { offsetInCU: 0x9464, offset: 0x19BC0, size: 0x8, addend: 0x0, symName: __ZNSt3__16vectorIPcNS_9allocatorIS1_EEE4dataB8ue170006Ev, symObjAddr: 0x85C, symBinAddr: 0x100003EAC, symSize: 0x28 }
  - { offsetInCU: 0x9488, offset: 0x19BE4, size: 0x8, addend: 0x0, symName: __ZNSt3__16vectorIPcNS_9allocatorIS1_EEED1B8ue170006Ev, symObjAddr: 0x884, symBinAddr: 0x100003ED4, symSize: 0x2C }
  - { offsetInCU: 0x94B0, offset: 0x19C0C, size: 0x8, addend: 0x0, symName: __ZL5usagev, symObjAddr: 0x8FC, symBinAddr: 0x100003F00, symSize: 0x28 }
  - { offsetInCU: 0x94CE, offset: 0x19C2A, size: 0x8, addend: 0x0, symName: __ZNSt3__112basic_stringIcNS_11char_traitsIcEENS_9allocatorIcEEEC1B8ue170006Ev, symObjAddr: 0x924, symBinAddr: 0x100003F28, symSize: 0x2C }
  - { offsetInCU: 0x94F6, offset: 0x19C52, size: 0x8, addend: 0x0, symName: __ZNKSt3__112basic_stringIcNS_11char_traitsIcEENS_9allocatorIcEEE5emptyB8ue170006Ev, symObjAddr: 0x9D4, symBinAddr: 0x100003FB0, symSize: 0x30 }
  - { offsetInCU: 0x951A, offset: 0x19C76, size: 0x8, addend: 0x0, symName: __ZNSt3__112basic_stringIcNS_11char_traitsIcEENS_9allocatorIcEEEC2B8ue170006Ev, symObjAddr: 0xA04, symBinAddr: 0x100003FE0, symSize: 0x48 }
  - { offsetInCU: 0x9547, offset: 0x19CA3, size: 0x8, addend: 0x0, symName: __ZNSt3__112basic_stringIcNS_11char_traitsIcEENS_9allocatorIcEEE14__default_initB8ue170006Ev, symObjAddr: 0xA94, symBinAddr: 0x100004028, symSize: 0x40 }
  - { offsetInCU: 0x9612, offset: 0x19D6E, size: 0x8, addend: 0x0, symName: __ZNKSt3__113basic_istreamIcNS_11char_traitsIcEEE6sentrycvbB8ue170006Ev, symObjAddr: 0xE84, symBinAddr: 0x1000042A0, symSize: 0x1C }
  - { offsetInCU: 0x9636, offset: 0x19D92, size: 0x8, addend: 0x0, symName: __ZNSt3__112basic_stringIcNS_11char_traitsIcEENS_9allocatorIcEEE5clearB8ue170006Ev, symObjAddr: 0xEA0, symBinAddr: 0x1000042BC, symSize: 0x78 }
  - { offsetInCU: 0x965E, offset: 0x19DBA, size: 0x8, addend: 0x0, symName: __ZNSt3__115basic_streambufIcNS_11char_traitsIcEEE6sbumpcB8ue170006Ev, symObjAddr: 0xF3C, symBinAddr: 0x100004334, symSize: 0x78 }
  - { offsetInCU: 0x9682, offset: 0x19DDE, size: 0x8, addend: 0x0, symName: __ZNSt3__111char_traitsIcE12to_char_typeB8ue170006Ei, symObjAddr: 0xFE4, symBinAddr: 0x1000043AC, symSize: 0x18 }
  - { offsetInCU: 0x96A5, offset: 0x19E01, size: 0x8, addend: 0x0, symName: __ZNSt3__111char_traitsIcE2eqEcc, symObjAddr: 0xFFC, symBinAddr: 0x1000043C4, symSize: 0x28 }
  - { offsetInCU: 0x96D6, offset: 0x19E32, size: 0x8, addend: 0x0, symName: __ZNKSt3__112basic_stringIcNS_11char_traitsIcEENS_9allocatorIcEEE8max_sizeB8ue170006Ev, symObjAddr: 0x1078, symBinAddr: 0x1000043EC, symSize: 0xAC }
  - { offsetInCU: 0x9727, offset: 0x19E83, size: 0x8, addend: 0x0, symName: __ZNSt3__18ios_base18__setstate_nothrowB8ue170006Ej, symObjAddr: 0x1124, symBinAddr: 0x100004498, symSize: 0x64 }
  - { offsetInCU: 0x975B, offset: 0x19EB7, size: 0x8, addend: 0x0, symName: __ZNKSt3__19basic_iosIcNS_11char_traitsIcEEE10exceptionsB8ue170006Ev, symObjAddr: 0x1188, symBinAddr: 0x1000044FC, symSize: 0x24 }
  - { offsetInCU: 0x977F, offset: 0x19EDB, size: 0x8, addend: 0x0, symName: __ZNSt3__111char_traitsIcE6assignB8ue170006ERcRKc, symObjAddr: 0x1210, symBinAddr: 0x100004520, symSize: 0x24 }
  - { offsetInCU: 0x97B0, offset: 0x19F0C, size: 0x8, addend: 0x0, symName: __ZNSt3__112basic_stringIcNS_11char_traitsIcEENS_9allocatorIcEEE15__set_long_sizeB8ue170006Em, symObjAddr: 0x125C, symBinAddr: 0x100004544, symSize: 0x38 }
  - { offsetInCU: 0x97E3, offset: 0x19F3F, size: 0x8, addend: 0x0, symName: __ZNSt3__112basic_stringIcNS_11char_traitsIcEENS_9allocatorIcEEE16__set_short_sizeB8ue170006Em, symObjAddr: 0x12BC, symBinAddr: 0x10000457C, symSize: 0x78 }
  - { offsetInCU: 0x9816, offset: 0x19F72, size: 0x8, addend: 0x0, symName: __ZNSt3__111char_traitsIcE11to_int_typeB8ue170006Ec, symObjAddr: 0x1398, symBinAddr: 0x1000045F4, symSize: 0x14 }
  - { offsetInCU: 0x9844, offset: 0x19FA0, size: 0x8, addend: 0x0, symName: __ZNSt3__116allocator_traitsINS_9allocatorIcEEE8max_sizeB8ue170006IS2_vEEmRKS2_, symObjAddr: 0x1408, symBinAddr: 0x100004608, symSize: 0x24 }
  - { offsetInCU: 0x9872, offset: 0x19FCE, size: 0x8, addend: 0x0, symName: __ZNKSt3__112basic_stringIcNS_11char_traitsIcEENS_9allocatorIcEEE7__allocB8ue170006Ev, symObjAddr: 0x142C, symBinAddr: 0x10000462C, symSize: 0x24 }
  - { offsetInCU: 0x9896, offset: 0x19FF2, size: 0x8, addend: 0x0, symName: __ZNSt3__114numeric_limitsImE3maxB8ue170006Ev, symObjAddr: 0x1450, symBinAddr: 0x100004650, symSize: 0x14 }
  - { offsetInCU: 0x98AA, offset: 0x1A006, size: 0x8, addend: 0x0, symName: __ZNKSt3__19allocatorIcE8max_sizeB8ue170006Ev, symObjAddr: 0x1464, symBinAddr: 0x100004664, symSize: 0x14 }
  - { offsetInCU: 0x98CF, offset: 0x1A02B, size: 0x8, addend: 0x0, symName: __ZNKSt3__117__compressed_pairINS_12basic_stringIcNS_11char_traitsIcEENS_9allocatorIcEEE5__repES5_E6secondB8ue170006Ev, symObjAddr: 0x1478, symBinAddr: 0x100004678, symSize: 0x24 }
  - { offsetInCU: 0x98F3, offset: 0x1A04F, size: 0x8, addend: 0x0, symName: __ZNKSt3__122__compressed_pair_elemINS_9allocatorIcEELi1ELb1EE5__getB8ue170006Ev, symObjAddr: 0x149C, symBinAddr: 0x10000469C, symSize: 0x14 }
  - { offsetInCU: 0x9918, offset: 0x1A074, size: 0x8, addend: 0x0, symName: __ZNSt3__123__libcpp_numeric_limitsImLb1EE3maxB8ue170006Ev, symObjAddr: 0x14B0, symBinAddr: 0x1000046B0, symSize: 0x8 }
  - { offsetInCU: 0x992C, offset: 0x1A088, size: 0x8, addend: 0x0, symName: __ZNKSt3__18ios_base10exceptionsB8ue170006Ev, symObjAddr: 0x14B8, symBinAddr: 0x1000046B8, symSize: 0x18 }
  - { offsetInCU: 0x9953, offset: 0x1A0AF, size: 0x8, addend: 0x0, symName: __ZNSt3__16vectorIPcNS_9allocatorIS1_EEEC1B8ue170006Ev, symObjAddr: 0x15B8, symBinAddr: 0x1000046D0, symSize: 0x2C }
  - { offsetInCU: 0x997A, offset: 0x1A0D6, size: 0x8, addend: 0x0, symName: __ZNSt3__16vectorIPcNS_9allocatorIS1_EEE9push_backB8ue170006ERKS1_, symObjAddr: 0x15E4, symBinAddr: 0x1000046FC, symSize: 0x6C }
  - { offsetInCU: 0x99B1, offset: 0x1A10D, size: 0x8, addend: 0x0, symName: __ZNSt3__16vectorIPcNS_9allocatorIS1_EEEC2B8ue170006Ev, symObjAddr: 0x1650, symBinAddr: 0x100004768, symSize: 0x4C }
  - { offsetInCU: 0x99DE, offset: 0x1A13A, size: 0x8, addend: 0x0, symName: __ZNSt3__117__compressed_pairIPPcNS_9allocatorIS1_EEEC1B8ue170006IDnNS_18__default_init_tagEEEOT_OT0_, symObjAddr: 0x169C, symBinAddr: 0x1000047B4, symSize: 0x3C }
  - { offsetInCU: 0x9A34, offset: 0x1A190, size: 0x8, addend: 0x0, symName: __ZNSt3__117__compressed_pairIPPcNS_9allocatorIS1_EEEC2B8ue170006IDnNS_18__default_init_tagEEEOT_OT0_, symObjAddr: 0x16D8, symBinAddr: 0x1000047F0, symSize: 0x40 }
  - { offsetInCU: 0x9A8A, offset: 0x1A1E6, size: 0x8, addend: 0x0, symName: __ZNSt3__122__compressed_pair_elemIPPcLi0ELb0EEC2B8ue170006IDnvEEOT_, symObjAddr: 0x1718, symBinAddr: 0x100004830, symSize: 0x1C }
  - { offsetInCU: 0x9ACC, offset: 0x1A228, size: 0x8, addend: 0x0, symName: __ZNSt3__122__compressed_pair_elemINS_9allocatorIPcEELi1ELb1EEC2B8ue170006ENS_18__default_init_tagE, symObjAddr: 0x1734, symBinAddr: 0x10000484C, symSize: 0x2C }
  - { offsetInCU: 0x9AFF, offset: 0x1A25B, size: 0x8, addend: 0x0, symName: __ZNSt3__19allocatorIPcEC2B8ue170006Ev, symObjAddr: 0x1760, symBinAddr: 0x100004878, symSize: 0x2C }
  - { offsetInCU: 0x9B27, offset: 0x1A283, size: 0x8, addend: 0x0, symName: __ZNSt3__116__non_trivial_ifILb1ENS_9allocatorIPcEEEC2B8ue170006Ev, symObjAddr: 0x178C, symBinAddr: 0x1000048A4, symSize: 0x14 }
  - { offsetInCU: 0x9B50, offset: 0x1A2AC, size: 0x8, addend: 0x0, symName: __ZNSt3__16vectorIPcNS_9allocatorIS1_EEE9__end_capB8ue170006Ev, symObjAddr: 0x17A0, symBinAddr: 0x1000048B8, symSize: 0x28 }
  - { offsetInCU: 0x9B74, offset: 0x1A2D0, size: 0x8, addend: 0x0, symName: __ZNSt3__16vectorIPcNS_9allocatorIS1_EEE22__construct_one_at_endB8ue170006IJRKS1_EEEvDpOT_, symObjAddr: 0x17C8, symBinAddr: 0x1000048E0, symSize: 0x90 }
  - { offsetInCU: 0x9BC2, offset: 0x1A31E, size: 0x8, addend: 0x0, symName: __ZNSt3__16vectorIPcNS_9allocatorIS1_EEE21__push_back_slow_pathIRKS1_EEvOT_, symObjAddr: 0x1858, symBinAddr: 0x100004970, symSize: 0xD8 }
  - { offsetInCU: 0x9C20, offset: 0x1A37C, size: 0x8, addend: 0x0, symName: __ZNSt3__117__compressed_pairIPPcNS_9allocatorIS1_EEE5firstB8ue170006Ev, symObjAddr: 0x1930, symBinAddr: 0x100004A48, symSize: 0x24 }
  - { offsetInCU: 0x9C44, offset: 0x1A3A0, size: 0x8, addend: 0x0, symName: __ZNSt3__122__compressed_pair_elemIPPcLi0ELb0EE5__getB8ue170006Ev, symObjAddr: 0x1954, symBinAddr: 0x100004A6C, symSize: 0x14 }
  - { offsetInCU: 0x9C82, offset: 0x1A3DE, size: 0x8, addend: 0x0, symName: __ZNSt3__16vectorIPcNS_9allocatorIS1_EEE21_ConstructTransactionC1B8ue170006ERS4_m, symObjAddr: 0x1968, symBinAddr: 0x100004A80, symSize: 0x3C }
  - { offsetInCU: 0x9CC8, offset: 0x1A424, size: 0x8, addend: 0x0, symName: __ZNSt3__116allocator_traitsINS_9allocatorIPcEEE9constructB8ue170006IS2_JRKS2_EvEEvRS3_PT_DpOT0_, symObjAddr: 0x19A4, symBinAddr: 0x100004ABC, symSize: 0x34 }
  - { offsetInCU: 0x9D21, offset: 0x1A47D, size: 0x8, addend: 0x0, symName: __ZNSt3__16vectorIPcNS_9allocatorIS1_EEE7__allocB8ue170006Ev, symObjAddr: 0x19D8, symBinAddr: 0x100004AF0, symSize: 0x28 }
  - { offsetInCU: 0x9D45, offset: 0x1A4A1, size: 0x8, addend: 0x0, symName: __ZNSt3__16vectorIPcNS_9allocatorIS1_EEE21_ConstructTransactionD1B8ue170006Ev, symObjAddr: 0x1A14, symBinAddr: 0x100004B2C, symSize: 0x2C }
  - { offsetInCU: 0x9D6D, offset: 0x1A4C9, size: 0x8, addend: 0x0, symName: __ZNSt3__16vectorIPcNS_9allocatorIS1_EEE21_ConstructTransactionC2B8ue170006ERS4_m, symObjAddr: 0x1A40, symBinAddr: 0x100004B58, symSize: 0x44 }
  - { offsetInCU: 0x9DB4, offset: 0x1A510, size: 0x8, addend: 0x0, symName: __ZNSt3__19allocatorIPcE9constructB8ue170006IS1_JRKS1_EEEvPT_DpOT0_, symObjAddr: 0x1A84, symBinAddr: 0x100004B9C, symSize: 0x28 }
  - { offsetInCU: 0x9E0B, offset: 0x1A567, size: 0x8, addend: 0x0, symName: __ZNSt3__117__compressed_pairIPPcNS_9allocatorIS1_EEE6secondB8ue170006Ev, symObjAddr: 0x1AAC, symBinAddr: 0x100004BC4, symSize: 0x24 }
  - { offsetInCU: 0x9E2F, offset: 0x1A58B, size: 0x8, addend: 0x0, symName: __ZNSt3__122__compressed_pair_elemINS_9allocatorIPcEELi1ELb1EE5__getB8ue170006Ev, symObjAddr: 0x1AD0, symBinAddr: 0x100004BE8, symSize: 0x14 }
  - { offsetInCU: 0x9E54, offset: 0x1A5B0, size: 0x8, addend: 0x0, symName: __ZNSt3__16vectorIPcNS_9allocatorIS1_EEE21_ConstructTransactionD2B8ue170006Ev, symObjAddr: 0x1AE4, symBinAddr: 0x100004BFC, symSize: 0x20 }
  - { offsetInCU: 0x9E7C, offset: 0x1A5D8, size: 0x8, addend: 0x0, symName: __ZNKSt3__16vectorIPcNS_9allocatorIS1_EEE11__recommendB8ue170006Em, symObjAddr: 0x1B04, symBinAddr: 0x100004C1C, symSize: 0xB4 }
  - { offsetInCU: 0x9ED1, offset: 0x1A62D, size: 0x8, addend: 0x0, symName: __ZNSt3__114__split_bufferIPcRNS_9allocatorIS1_EEEC1EmmS4_, symObjAddr: 0x1BB8, symBinAddr: 0x100004CD0, symSize: 0x44 }
  - { offsetInCU: 0x9F25, offset: 0x1A681, size: 0x8, addend: 0x0, symName: __ZNSt3__114__split_bufferIPcRNS_9allocatorIS1_EEED1Ev, symObjAddr: 0x1D0C, symBinAddr: 0x100004E24, symSize: 0x2C }
  - { offsetInCU: 0x9F4E, offset: 0x1A6AA, size: 0x8, addend: 0x0, symName: __ZNKSt3__16vectorIPcNS_9allocatorIS1_EEE8max_sizeEv, symObjAddr: 0x1D38, symBinAddr: 0x100004E50, symSize: 0x60 }
  - { offsetInCU: 0x9F76, offset: 0x1A6D2, size: 0x8, addend: 0x0, symName: __ZNKSt3__16vectorIPcNS_9allocatorIS1_EEE20__throw_length_errorB8ue170006Ev, symObjAddr: 0x1D98, symBinAddr: 0x100004EB0, symSize: 0x1C }
  - { offsetInCU: 0x9F9A, offset: 0x1A6F6, size: 0x8, addend: 0x0, symName: __ZNKSt3__16vectorIPcNS_9allocatorIS1_EEE8capacityB8ue170006Ev, symObjAddr: 0x1DB4, symBinAddr: 0x100004ECC, symSize: 0x40 }
  - { offsetInCU: 0x9FC8, offset: 0x1A724, size: 0x8, addend: 0x0, symName: __ZNSt3__116allocator_traitsINS_9allocatorIPcEEE8max_sizeB8ue170006IS3_vEEmRKS3_, symObjAddr: 0x1E4C, symBinAddr: 0x100004F64, symSize: 0x24 }
  - { offsetInCU: 0x9FF6, offset: 0x1A752, size: 0x8, addend: 0x0, symName: __ZNKSt3__16vectorIPcNS_9allocatorIS1_EEE7__allocB8ue170006Ev, symObjAddr: 0x1E70, symBinAddr: 0x100004F88, symSize: 0x28 }
  - { offsetInCU: 0xA01A, offset: 0x1A776, size: 0x8, addend: 0x0, symName: __ZNSt3__114numeric_limitsIlE3maxB8ue170006Ev, symObjAddr: 0x1E98, symBinAddr: 0x100004FB0, symSize: 0x14 }
  - { offsetInCU: 0xA042, offset: 0x1A79E, size: 0x8, addend: 0x0, symName: __ZNKSt3__16__lessIvvEclB8ue170006ImmEEbRKT_RKT0_, symObjAddr: 0x1F00, symBinAddr: 0x100005018, symSize: 0x34 }
  - { offsetInCU: 0xA095, offset: 0x1A7F1, size: 0x8, addend: 0x0, symName: __ZNKSt3__19allocatorIPcE8max_sizeB8ue170006Ev, symObjAddr: 0x1F34, symBinAddr: 0x10000504C, symSize: 0x14 }
  - { offsetInCU: 0xA0BA, offset: 0x1A816, size: 0x8, addend: 0x0, symName: __ZNKSt3__117__compressed_pairIPPcNS_9allocatorIS1_EEE6secondB8ue170006Ev, symObjAddr: 0x1F48, symBinAddr: 0x100005060, symSize: 0x24 }
  - { offsetInCU: 0xA0DE, offset: 0x1A83A, size: 0x8, addend: 0x0, symName: __ZNKSt3__122__compressed_pair_elemINS_9allocatorIPcEELi1ELb1EE5__getB8ue170006Ev, symObjAddr: 0x1F6C, symBinAddr: 0x100005084, symSize: 0x14 }
  - { offsetInCU: 0xA103, offset: 0x1A85F, size: 0x8, addend: 0x0, symName: __ZNSt3__123__libcpp_numeric_limitsIlLb1EE3maxB8ue170006Ev, symObjAddr: 0x1F80, symBinAddr: 0x100005098, symSize: 0x8 }
  - { offsetInCU: 0xA117, offset: 0x1A873, size: 0x8, addend: 0x0, symName: __ZNSt12length_errorC1B8ue170006EPKc, symObjAddr: 0x1FEC, symBinAddr: 0x100005104, symSize: 0x34 }
  - { offsetInCU: 0xA14D, offset: 0x1A8A9, size: 0x8, addend: 0x0, symName: __ZNSt12length_errorC2B8ue170006EPKc, symObjAddr: 0x2020, symBinAddr: 0x100005138, symSize: 0x4C }
  - { offsetInCU: 0xA183, offset: 0x1A8DF, size: 0x8, addend: 0x0, symName: __ZNKSt3__16vectorIPcNS_9allocatorIS1_EEE9__end_capB8ue170006Ev, symObjAddr: 0x206C, symBinAddr: 0x100005184, symSize: 0x28 }
  - { offsetInCU: 0xA1A7, offset: 0x1A903, size: 0x8, addend: 0x0, symName: __ZNKSt3__117__compressed_pairIPPcNS_9allocatorIS1_EEE5firstB8ue170006Ev, symObjAddr: 0x2094, symBinAddr: 0x1000051AC, symSize: 0x24 }
  - { offsetInCU: 0xA1CB, offset: 0x1A927, size: 0x8, addend: 0x0, symName: __ZNKSt3__122__compressed_pair_elemIPPcLi0ELb0EE5__getB8ue170006Ev, symObjAddr: 0x20B8, symBinAddr: 0x1000051D0, symSize: 0x14 }
  - { offsetInCU: 0xA1F0, offset: 0x1A94C, size: 0x8, addend: 0x0, symName: __ZNSt3__114__split_bufferIPcRNS_9allocatorIS1_EEEC2EmmS4_, symObjAddr: 0x2120, symBinAddr: 0x100005238, symSize: 0xD4 }
  - { offsetInCU: 0xA262, offset: 0x1A9BE, size: 0x8, addend: 0x0, symName: __ZNSt3__117__compressed_pairIPPcRNS_9allocatorIS1_EEEC1B8ue170006IDnS5_EEOT_OT0_, symObjAddr: 0x21F4, symBinAddr: 0x10000530C, symSize: 0x3C }
  - { offsetInCU: 0xA2B8, offset: 0x1AA14, size: 0x8, addend: 0x0, symName: __ZNSt3__114__split_bufferIPcRNS_9allocatorIS1_EEE7__allocB8ue170006Ev, symObjAddr: 0x2270, symBinAddr: 0x100005388, symSize: 0x28 }
  - { offsetInCU: 0xA2DC, offset: 0x1AA38, size: 0x8, addend: 0x0, symName: __ZNSt3__114__split_bufferIPcRNS_9allocatorIS1_EEE9__end_capB8ue170006Ev, symObjAddr: 0x2298, symBinAddr: 0x1000053B0, symSize: 0x28 }
  - { offsetInCU: 0xA300, offset: 0x1AA5C, size: 0x8, addend: 0x0, symName: __ZNSt3__117__compressed_pairIPPcRNS_9allocatorIS1_EEEC2B8ue170006IDnS5_EEOT_OT0_, symObjAddr: 0x22C0, symBinAddr: 0x1000053D8, symSize: 0x48 }
  - { offsetInCU: 0xA356, offset: 0x1AAB2, size: 0x8, addend: 0x0, symName: __ZNSt3__122__compressed_pair_elemIRNS_9allocatorIPcEELi1ELb0EEC2B8ue170006IS4_vEEOT_, symObjAddr: 0x2308, symBinAddr: 0x100005420, symSize: 0x20 }
  - { offsetInCU: 0xA398, offset: 0x1AAF4, size: 0x8, addend: 0x0, symName: __ZNSt3__19allocatorIPcE8allocateB8ue170006Em, symObjAddr: 0x2328, symBinAddr: 0x100005440, symSize: 0x58 }
  - { offsetInCU: 0xA3CA, offset: 0x1AB26, size: 0x8, addend: 0x0, symName: __ZNSt3__117__compressed_pairIPPcRNS_9allocatorIS1_EEE6secondB8ue170006Ev, symObjAddr: 0x2484, symBinAddr: 0x10000559C, symSize: 0x28 }
  - { offsetInCU: 0xA3EE, offset: 0x1AB4A, size: 0x8, addend: 0x0, symName: __ZNSt3__122__compressed_pair_elemIRNS_9allocatorIPcEELi1ELb0EE5__getB8ue170006Ev, symObjAddr: 0x24AC, symBinAddr: 0x1000055C4, symSize: 0x18 }
  - { offsetInCU: 0xA413, offset: 0x1AB6F, size: 0x8, addend: 0x0, symName: __ZNSt3__117__compressed_pairIPPcRNS_9allocatorIS1_EEE5firstB8ue170006Ev, symObjAddr: 0x24C4, symBinAddr: 0x1000055DC, symSize: 0x24 }
  - { offsetInCU: 0xA437, offset: 0x1AB93, size: 0x8, addend: 0x0, symName: __ZNKSt3__16vectorIPcNS_9allocatorIS1_EEE17__annotate_deleteB8ue170006Ev, symObjAddr: 0x24E8, symBinAddr: 0x100005600, symSize: 0xB8 }
  - { offsetInCU: 0xA45B, offset: 0x1ABB7, size: 0x8, addend: 0x0, symName: __ZNSt3__116reverse_iteratorIPPcEC1B8ue170006ES2_, symObjAddr: 0x2618, symBinAddr: 0x100005730, symSize: 0x34 }
  - { offsetInCU: 0xA491, offset: 0x1ABED, size: 0x8, addend: 0x0, symName: __ZNKSt3__116reverse_iteratorIPPcE4baseB8ue170006Ev, symObjAddr: 0x264C, symBinAddr: 0x100005764, symSize: 0x18 }
  - { offsetInCU: 0xA4B6, offset: 0x1AC12, size: 0x8, addend: 0x0, symName: __ZNKSt3__16vectorIPcNS_9allocatorIS1_EEE14__annotate_newB8ue170006Em, symObjAddr: 0x26A0, symBinAddr: 0x1000057B8, symSize: 0xAC }
  - { offsetInCU: 0xA4E9, offset: 0x1AC45, size: 0x8, addend: 0x0, symName: __ZNKSt3__16vectorIPcNS_9allocatorIS1_EEE31__annotate_contiguous_containerB8ue170006EPKvS6_S6_S6_, symObjAddr: 0x274C, symBinAddr: 0x100005864, symSize: 0x20 }
  - { offsetInCU: 0xA53E, offset: 0x1AC9A, size: 0x8, addend: 0x0, symName: __ZNKSt3__16vectorIPcNS_9allocatorIS1_EEE4dataB8ue170006Ev, symObjAddr: 0x276C, symBinAddr: 0x100005884, symSize: 0x28 }
  - { offsetInCU: 0xA585, offset: 0x1ACE1, size: 0x8, addend: 0x0, symName: __ZNKSt3__111__move_loopINS_17_ClassicAlgPolicyEEclB8ue170006INS_16reverse_iteratorIPPcEES7_S7_EENS_4pairIT_T1_EES9_T0_SA_, symObjAddr: 0x2A84, symBinAddr: 0x100005B9C, symSize: 0xA0 }
  - { offsetInCU: 0xA5F3, offset: 0x1AD4F, size: 0x8, addend: 0x0, symName: __ZNSt3__18_IterOpsINS_17_ClassicAlgPolicyEE11__iter_moveB8ue170006IRNS_16reverse_iteratorIPPcEEEENS_9enable_ifIXsr12is_referenceIDTdeclsr3stdE7declvalIRT_EEEEE5valueEDTclsr3stdE4movedeclsr3stdE7declvalISB_EEEEE4typeEOSA_, symObjAddr: 0x2CB8, symBinAddr: 0x100005DD0, symSize: 0x28 }
  - { offsetInCU: 0xA61E, offset: 0x1AD7A, size: 0x8, addend: 0x0, symName: __ZNKSt3__116reverse_iteratorIPPcEdeB8ue170006Ev, symObjAddr: 0x2CE0, symBinAddr: 0x100005DF8, symSize: 0x28 }
  - { offsetInCU: 0xA651, offset: 0x1ADAD, size: 0x8, addend: 0x0, symName: __ZNSt3__116reverse_iteratorIPPcEppB8ue170006Ev, symObjAddr: 0x2D08, symBinAddr: 0x100005E20, symSize: 0x20 }
  - { offsetInCU: 0xA676, offset: 0x1ADD2, size: 0x8, addend: 0x0, symName: __ZNSt3__18_IterOpsINS_17_ClassicAlgPolicyEE25__validate_iter_referenceB8ue170006IRNS_16reverse_iteratorIPPcEEEEvv, symObjAddr: 0x2D28, symBinAddr: 0x100005E40, symSize: 0x4 }
  - { offsetInCU: 0xA694, offset: 0x1ADF0, size: 0x8, addend: 0x0, symName: __ZNSt3__118__unwrap_iter_implINS_16reverse_iteratorIPPcEELb0EE8__unwrapB8ue170006ES4_, symObjAddr: 0x2D2C, symBinAddr: 0x100005E44, symSize: 0x24 }
  - { offsetInCU: 0xA6BC, offset: 0x1AE18, size: 0x8, addend: 0x0, symName: __ZNSt3__14pairINS_16reverse_iteratorIPPcEES4_EC1B8ue170006IS4_S4_LPv0EEEOT_OT0_, symObjAddr: 0x2D50, symBinAddr: 0x100005E68, symSize: 0x3C }
  - { offsetInCU: 0xA719, offset: 0x1AE75, size: 0x8, addend: 0x0, symName: __ZNSt3__14pairINS_16reverse_iteratorIPPcEES4_EC2B8ue170006IS4_S4_LPv0EEEOT_OT0_, symObjAddr: 0x2D8C, symBinAddr: 0x100005EA4, symSize: 0x34 }
  - { offsetInCU: 0xA777, offset: 0x1AED3, size: 0x8, addend: 0x0, symName: __ZNSt3__118__unwrap_iter_implINS_16reverse_iteratorIPPcEELb0EE8__rewrapB8ue170006ES4_S4_, symObjAddr: 0x2DC0, symBinAddr: 0x100005ED8, symSize: 0x2C }
  - { offsetInCU: 0xA7A5, offset: 0x1AF01, size: 0x8, addend: 0x0, symName: __ZNSt3__116reverse_iteratorIPPcEC2B8ue170006ES2_, symObjAddr: 0x2DEC, symBinAddr: 0x100005F04, symSize: 0x28 }
  - { offsetInCU: 0xA7DC, offset: 0x1AF38, size: 0x8, addend: 0x0, symName: __ZNSt3__114__split_bufferIPcRNS_9allocatorIS1_EEED2Ev, symObjAddr: 0x2E14, symBinAddr: 0x100005F2C, symSize: 0x8C }
  - { offsetInCU: 0xA806, offset: 0x1AF62, size: 0x8, addend: 0x0, symName: __ZNSt3__114__split_bufferIPcRNS_9allocatorIS1_EEE5clearB8ue170006Ev, symObjAddr: 0x2EA0, symBinAddr: 0x100005FB8, symSize: 0x28 }
  - { offsetInCU: 0xA82A, offset: 0x1AF86, size: 0x8, addend: 0x0, symName: __ZNSt3__116allocator_traitsINS_9allocatorIPcEEE10deallocateB8ue170006ERS3_PS2_m, symObjAddr: 0x2EC8, symBinAddr: 0x100005FE0, symSize: 0x34 }
  - { offsetInCU: 0xA86B, offset: 0x1AFC7, size: 0x8, addend: 0x0, symName: __ZNKSt3__114__split_bufferIPcRNS_9allocatorIS1_EEE8capacityB8ue170006Ev, symObjAddr: 0x2EFC, symBinAddr: 0x100006014, symSize: 0x40 }
  - { offsetInCU: 0xA88F, offset: 0x1AFEB, size: 0x8, addend: 0x0, symName: __ZNSt3__114__split_bufferIPcRNS_9allocatorIS1_EEE17__destruct_at_endB8ue170006EPS1_, symObjAddr: 0x2F3C, symBinAddr: 0x100006054, symSize: 0x2C }
  - { offsetInCU: 0xA8C0, offset: 0x1B01C, size: 0x8, addend: 0x0, symName: __ZNSt3__114__split_bufferIPcRNS_9allocatorIS1_EEE17__destruct_at_endB8ue170006EPS1_NS_17integral_constantIbLb0EEE, symObjAddr: 0x2F68, symBinAddr: 0x100006080, symSize: 0x80 }
  - { offsetInCU: 0xA901, offset: 0x1B05D, size: 0x8, addend: 0x0, symName: __ZNSt3__116allocator_traitsINS_9allocatorIPcEEE7destroyB8ue170006IS2_vEEvRS3_PT_, symObjAddr: 0x2FE8, symBinAddr: 0x100006100, symSize: 0x2C }
  - { offsetInCU: 0xA93E, offset: 0x1B09A, size: 0x8, addend: 0x0, symName: __ZNSt3__19allocatorIPcE7destroyB8ue170006EPS1_, symObjAddr: 0x3014, symBinAddr: 0x10000612C, symSize: 0x14 }
  - { offsetInCU: 0xA971, offset: 0x1B0CD, size: 0x8, addend: 0x0, symName: __ZNSt3__19allocatorIPcE10deallocateB8ue170006EPS1_m, symObjAddr: 0x3028, symBinAddr: 0x100006140, symSize: 0x40 }
  - { offsetInCU: 0xA9B1, offset: 0x1B10D, size: 0x8, addend: 0x0, symName: __ZNKSt3__114__split_bufferIPcRNS_9allocatorIS1_EEE9__end_capB8ue170006Ev, symObjAddr: 0x3170, symBinAddr: 0x100006288, symSize: 0x28 }
  - { offsetInCU: 0xA9D5, offset: 0x1B131, size: 0x8, addend: 0x0, symName: __ZNKSt3__117__compressed_pairIPPcRNS_9allocatorIS1_EEE5firstB8ue170006Ev, symObjAddr: 0x3198, symBinAddr: 0x1000062B0, symSize: 0x24 }
  - { offsetInCU: 0xA9F9, offset: 0x1B155, size: 0x8, addend: 0x0, symName: __ZNSt3__16vectorIPcNS_9allocatorIS1_EEED2B8ue170006Ev, symObjAddr: 0x31BC, symBinAddr: 0x1000062D4, symSize: 0x44 }
  - { offsetInCU: 0xAA21, offset: 0x1B17D, size: 0x8, addend: 0x0, symName: __ZNSt3__16vectorIPcNS_9allocatorIS1_EEE16__destroy_vectorC1B8ue170006ERS4_, symObjAddr: 0x3200, symBinAddr: 0x100006318, symSize: 0x34 }
  - { offsetInCU: 0xAA58, offset: 0x1B1B4, size: 0x8, addend: 0x0, symName: __ZNSt3__16vectorIPcNS_9allocatorIS1_EEE16__destroy_vectorclB8ue170006Ev, symObjAddr: 0x3234, symBinAddr: 0x10000634C, symSize: 0x90 }
  - { offsetInCU: 0xAA7C, offset: 0x1B1D8, size: 0x8, addend: 0x0, symName: __ZNSt3__16vectorIPcNS_9allocatorIS1_EEE16__destroy_vectorC2B8ue170006ERS4_, symObjAddr: 0x32C4, symBinAddr: 0x1000063DC, symSize: 0x20 }
  - { offsetInCU: 0xAAB4, offset: 0x1B210, size: 0x8, addend: 0x0, symName: __ZNSt3__16vectorIPcNS_9allocatorIS1_EEE7__clearB8ue170006Ev, symObjAddr: 0x32E4, symBinAddr: 0x1000063FC, symSize: 0x28 }
  - { offsetInCU: 0xAAD8, offset: 0x1B234, size: 0x8, addend: 0x0, symName: __ZNSt3__16vectorIPcNS_9allocatorIS1_EEE22__base_destruct_at_endB8ue170006EPS1_, symObjAddr: 0x330C, symBinAddr: 0x100006424, symSize: 0x8C }
  - { offsetInCU: 0xAB1A, offset: 0x1B276, size: 0x8, addend: 0x0, symName: __ZNSt3__112basic_stringIcNS_11char_traitsIcEENS_9allocatorIcEEEC2B8ue170006ILi0EEEPKc, symObjAddr: 0x3AF8, symBinAddr: 0x1000064B0, symSize: 0x58 }
  - { offsetInCU: 0x3F, offset: 0x1B392, size: 0x8, addend: 0x0, symName: _g_pstats, symObjAddr: 0xFE138, symBinAddr: 0x1000440A8, symSize: 0x0 }
  - { offsetInCU: 0xA23B, offset: 0x2558E, size: 0x8, addend: 0x0, symName: __ZNSt3__119piecewise_constructE, symObjAddr: 0x1DD08, symBinAddr: 0x10003E1F0, symSize: 0x0 }
  - { offsetInCU: 0x16FEF, offset: 0x32342, size: 0x8, addend: 0x0, symName: __ZNSt3__16copy_nB8ue170006IPKcmPcEENS_9enable_ifIXsr37__has_random_access_iterator_categoryIT_EE5valueET1_E4typeES5_T0_S6_, symObjAddr: 0x1BFF0, symBinAddr: 0x10002058C, symSize: 0x44 }
  - { offsetInCU: 0x17DF5, offset: 0x33148, size: 0x8, addend: 0x0, symName: __ZNSt3__1plB8ue170006IcNS_11char_traitsIcEENS_9allocatorIcEEEENS_12basic_stringIT_T0_T1_EERKS9_PKS6_, symObjAddr: 0x12E8, symBinAddr: 0x1000077F0, symSize: 0x11C }
  - { offsetInCU: 0x1821D, offset: 0x33570, size: 0x8, addend: 0x0, symName: __ZNSt3__1neB8ue170006IPcEEbRKNS_11__wrap_iterIT_EES6_, symObjAddr: 0x4578, symBinAddr: 0x10000A8D0, symSize: 0x34 }
  - { offsetInCU: 0x18260, offset: 0x335B3, size: 0x8, addend: 0x0, symName: __ZNSt3__1neB8ue170006IcNS_11char_traitsIcEENS_9allocatorIcEEEEbRKNS_12basic_stringIT_T0_T1_EEPKS6_, symObjAddr: 0x4608, symBinAddr: 0x10000A960, symSize: 0x34 }
  - { offsetInCU: 0x186AA, offset: 0x339FD, size: 0x8, addend: 0x0, symName: __ZNSt3__1eqB8ue170006IPcEEbRKNS_11__wrap_iterIT_EES6_, symObjAddr: 0x5048, symBinAddr: 0x10000AD70, symSize: 0x48 }
  - { offsetInCU: 0x1A475, offset: 0x357C8, size: 0x8, addend: 0x0, symName: __ZNSt3__13maxB8ue170006IiEET_St16initializer_listIS1_E, symObjAddr: 0x6D20, symBinAddr: 0x10000C3A0, symSize: 0x50 }
  - { offsetInCU: 0x1A4AA, offset: 0x357FD, size: 0x8, addend: 0x0, symName: __ZNSt3__1neB8ue170006ERKNS_19__hash_map_iteratorINS_15__hash_iteratorIPNS_11__hash_nodeINS_17__hash_value_typeINS_12basic_stringIcNS_11char_traitsIcEENS_9allocatorIcEEEENS_4pairIccEEEEPvEEEEEESJ_, symObjAddr: 0x701C, symBinAddr: 0x10000C69C, symSize: 0x30 }
  - { offsetInCU: 0x1B324, offset: 0x36677, size: 0x8, addend: 0x0, symName: __ZNSt3__1neB8ue170006IP3RowEEbRKNS_11__wrap_iterIT_EES7_, symObjAddr: 0x77FC, symBinAddr: 0x10000CE7C, symSize: 0x34 }
  - { offsetInCU: 0x1B372, offset: 0x366C5, size: 0x8, addend: 0x0, symName: __ZNSt3__1lsB8ue170006INS_11char_traitsIcEEEERNS_13basic_ostreamIcT_EES6_c, symObjAddr: 0x81F8, symBinAddr: 0x10000D878, symSize: 0x34 }
  - { offsetInCU: 0x1B3B8, offset: 0x3670B, size: 0x8, addend: 0x0, symName: __ZNSt3__13maxB8ue170006IiEERKT_S3_S3_, symObjAddr: 0x8A58, symBinAddr: 0x10000D8D8, symSize: 0x2C }
  - { offsetInCU: 0x1B3FB, offset: 0x3674E, size: 0x8, addend: 0x0, symName: __ZNSt3__19make_pairB8ue170006IRcS1_EENS_4pairINS_18__unwrap_ref_decayIT_E4typeENS3_IT0_E4typeEEEOS4_OS7_, symObjAddr: 0x8B70, symBinAddr: 0x10000D9F0, symSize: 0x34 }
  - { offsetInCU: 0x1B44A, offset: 0x3679D, size: 0x8, addend: 0x0, symName: __ZNSt3__116__is_hash_power2B8ue170006Em, symObjAddr: 0x90EC, symBinAddr: 0x10000DF40, symSize: 0x50 }
  - { offsetInCU: 0x1B476, offset: 0x367C9, size: 0x8, addend: 0x0, symName: __ZNSt3__116__next_hash_pow2B8ue170006Em, symObjAddr: 0x913C, symBinAddr: 0x10000DF90, symSize: 0x6C }
  - { offsetInCU: 0x1B4A2, offset: 0x367F5, size: 0x8, addend: 0x0, symName: __ZNSt3__116__constrain_hashB8ue170006Emm, symObjAddr: 0x941C, symBinAddr: 0x10000E270, symSize: 0x98 }
  - { offsetInCU: 0x1B5B8, offset: 0x3690B, size: 0x8, addend: 0x0, symName: __ZNSt3__112__libcpp_clzB8ue170006Em, symObjAddr: 0x98D8, symBinAddr: 0x10000E5C0, symSize: 0x1C }
  - { offsetInCU: 0x1B5E4, offset: 0x36937, size: 0x8, addend: 0x0, symName: __ZNSt3__13maxB8ue170006IiNS_6__lessIvvEEEERKT_S5_S5_T0_, symObjAddr: 0x9950, symBinAddr: 0x10000E638, symSize: 0x54 }
  - { offsetInCU: 0x1B663, offset: 0x369B6, size: 0x8, addend: 0x0, symName: __ZNSt3__116__do_string_hashB8ue170006IPKcEEmT_S3_, symObjAddr: 0xA2F8, symBinAddr: 0x10000EFE0, symSize: 0x3C }
  - { offsetInCU: 0x1B6A9, offset: 0x369FC, size: 0x8, addend: 0x0, symName: __ZNSt3__110__loadwordB8ue170006ImEET_PKv, symObjAddr: 0xACEC, symBinAddr: 0x10000F9D4, symSize: 0x20 }
  - { offsetInCU: 0x1B6EC, offset: 0x36A3F, size: 0x8, addend: 0x0, symName: __ZNSt3__14swapB8ue170006ImEENS_9enable_ifIXaasr21is_move_constructibleIT_EE5valuesr18is_move_assignableIS2_EE5valueEvE4typeERS2_S5_, symObjAddr: 0xAEA8, symBinAddr: 0x10000FB90, symSize: 0x3C }
  - { offsetInCU: 0x1B73D, offset: 0x36A90, size: 0x8, addend: 0x0, symName: __ZNSt3__110__loadwordB8ue170006IjEET_PKv, symObjAddr: 0xAF38, symBinAddr: 0x10000FC20, symSize: 0x20 }
  - { offsetInCU: 0x1B780, offset: 0x36AD3, size: 0x8, addend: 0x0, symName: __ZNSt3__1eqB8ue170006INS_9allocatorIcEEEEbRKNS_12basic_stringIcNS_11char_traitsIcEET_EES9_, symObjAddr: 0xB130, symBinAddr: 0x10000FE18, symSize: 0x148 }
  - { offsetInCU: 0x1B7F3, offset: 0x36B46, size: 0x8, addend: 0x0, symName: __ZNSt3__17launderB8ue170006IKNS_4pairIKNS_12basic_stringIcNS_11char_traitsIcEENS_9allocatorIcEEEENS1_IccEEEEEEPT_SD_, symObjAddr: 0xB2AC, symBinAddr: 0x10000FF94, symSize: 0x24 }
  - { offsetInCU: 0x1B82A, offset: 0x36B7D, size: 0x8, addend: 0x0, symName: __ZNSt3__19__launderB8ue170006IKNS_4pairIKNS_12basic_stringIcNS_11char_traitsIcEENS_9allocatorIcEEEENS1_IccEEEEEEPT_SD_, symObjAddr: 0xB2D0, symBinAddr: 0x10000FFB8, symSize: 0x14 }
  - { offsetInCU: 0x1B880, offset: 0x36BD3, size: 0x8, addend: 0x0, symName: __ZNSt3__17launderB8ue170006INS_4pairIKNS_12basic_stringIcNS_11char_traitsIcEENS_9allocatorIcEEEENS1_IccEEEEEEPT_SC_, symObjAddr: 0xB738, symBinAddr: 0x100010420, symSize: 0x24 }
  - { offsetInCU: 0x1B8B7, offset: 0x36C0A, size: 0x8, addend: 0x0, symName: __ZNSt3__19__launderB8ue170006INS_4pairIKNS_12basic_stringIcNS_11char_traitsIcEENS_9allocatorIcEEEENS1_IccEEEEEEPT_SC_, symObjAddr: 0xB75C, symBinAddr: 0x100010444, symSize: 0x14 }
  - { offsetInCU: 0x1B927, offset: 0x36C7A, size: 0x8, addend: 0x0, symName: __ZNSt3__116forward_as_tupleB8ue170006IJRKNS_12basic_stringIcNS_11char_traitsIcEENS_9allocatorIcEEEEEEENS_5tupleIJDpOT_EEESC_, symObjAddr: 0xCCC8, symBinAddr: 0x1000119B0, symSize: 0x2C }
  - { offsetInCU: 0x1B962, offset: 0x36CB5, size: 0x8, addend: 0x0, symName: __ZNSt3__116forward_as_tupleB8ue170006IJEEENS_5tupleIJDpOT_EEES4_, symObjAddr: 0xCCF4, symBinAddr: 0x1000119DC, symSize: 0x4 }
  - { offsetInCU: 0x1B988, offset: 0x36CDB, size: 0x8, addend: 0x0, symName: __ZNSt3__17launderB8ue170006IKNS_4pairIKNS_12basic_stringIcNS_11char_traitsIcEENS_9allocatorIcEEEEiEEEEPT_SC_, symObjAddr: 0xD364, symBinAddr: 0x10001204C, symSize: 0x24 }
  - { offsetInCU: 0x1B9BF, offset: 0x36D12, size: 0x8, addend: 0x0, symName: __ZNSt3__19__launderB8ue170006IKNS_4pairIKNS_12basic_stringIcNS_11char_traitsIcEENS_9allocatorIcEEEEiEEEEPT_SC_, symObjAddr: 0xD388, symBinAddr: 0x100012070, symSize: 0x14 }
  - { offsetInCU: 0x1BA54, offset: 0x36DA7, size: 0x8, addend: 0x0, symName: __ZNSt3__13getB8ue170006ILm0EJRKNS_12basic_stringIcNS_11char_traitsIcEENS_9allocatorIcEEEEEEERNS_13tuple_elementIXT_ENS_5tupleIJDpT0_EEEE4typeERSD_, symObjAddr: 0xD834, symBinAddr: 0x10001251C, symSize: 0x24 }
  - { offsetInCU: 0x1BAF3, offset: 0x36E46, size: 0x8, addend: 0x0, symName: __ZNSt3__17launderB8ue170006INS_4pairIKNS_12basic_stringIcNS_11char_traitsIcEENS_9allocatorIcEEEEiEEEEPT_SB_, symObjAddr: 0xE478, symBinAddr: 0x100013160, symSize: 0x24 }
  - { offsetInCU: 0x1BB2A, offset: 0x36E7D, size: 0x8, addend: 0x0, symName: __ZNSt3__19__launderB8ue170006INS_4pairIKNS_12basic_stringIcNS_11char_traitsIcEENS_9allocatorIcEEEEiEEEEPT_SB_, symObjAddr: 0xE49C, symBinAddr: 0x100013184, symSize: 0x14 }
  - { offsetInCU: 0x1BB62, offset: 0x36EB5, size: 0x8, addend: 0x0, symName: __ZNSt3__1eqB8ue170006ERKNS_19__hash_map_iteratorINS_15__hash_iteratorIPNS_11__hash_nodeINS_17__hash_value_typeINS_12basic_stringIcNS_11char_traitsIcEENS_9allocatorIcEEEEiEEPvEEEEEESH_, symObjAddr: 0xE4F0, symBinAddr: 0x1000131D8, symSize: 0x30 }
  - { offsetInCU: 0x1BB9F, offset: 0x36EF2, size: 0x8, addend: 0x0, symName: __ZNSt3__1eqB8ue170006ERKNS_15__hash_iteratorIPNS_11__hash_nodeINS_17__hash_value_typeINS_12basic_stringIcNS_11char_traitsIcEENS_9allocatorIcEEEEiEEPvEEEESF_, symObjAddr: 0xE7B4, symBinAddr: 0x10001349C, symSize: 0x30 }
  - { offsetInCU: 0x1BC10, offset: 0x36F63, size: 0x8, addend: 0x0, symName: __ZNSt3__1neB8ue170006ERKNS_21__hash_const_iteratorIPNS_11__hash_nodeINS_17__hash_value_typeINS_12basic_stringIcNS_11char_traitsIcEENS_9allocatorIcEEEEiEEPvEEEESF_, symObjAddr: 0xE85C, symBinAddr: 0x100013544, symSize: 0x34 }
  - { offsetInCU: 0x1BC4D, offset: 0x36FA0, size: 0x8, addend: 0x0, symName: __ZNSt3__1eqB8ue170006ERKNS_21__hash_const_iteratorIPNS_11__hash_nodeINS_17__hash_value_typeINS_12basic_stringIcNS_11char_traitsIcEENS_9allocatorIcEEEEiEEPvEEEESF_, symObjAddr: 0xEA74, symBinAddr: 0x10001375C, symSize: 0x30 }
  - { offsetInCU: 0x1BC8B, offset: 0x36FDE, size: 0x8, addend: 0x0, symName: __ZNSt3__119__allocate_at_leastB8ue170006INS_9allocatorI3RowEEEENS_19__allocation_resultINS_16allocator_traitsIT_E7pointerEEERS6_m, symObjAddr: 0xF33C, symBinAddr: 0x100013EA4, symSize: 0x40 }
  - { offsetInCU: 0x1BCCE, offset: 0x37021, size: 0x8, addend: 0x0, symName: __ZNSt3__142__uninitialized_allocator_move_if_noexceptB8ue170006INS_9allocatorI3RowEENS_16reverse_iteratorIPS2_EES6_S6_EET2_RT_T0_T1_S7_, symObjAddr: 0xF5DC, symBinAddr: 0x100014144, symSize: 0x12C }
  - { offsetInCU: 0x1BD6E, offset: 0x370C1, size: 0x8, addend: 0x0, symName: __ZNSt3__14swapB8ue170006IP3RowEENS_9enable_ifIXaasr21is_move_constructibleIT_EE5valuesr18is_move_assignableIS4_EE5valueEvE4typeERS4_S7_, symObjAddr: 0xF754, symBinAddr: 0x1000142BC, symSize: 0x3C }
  - { offsetInCU: 0x1BDBF, offset: 0x37112, size: 0x8, addend: 0x0, symName: __ZNSt3__112__to_addressB8ue170006I3RowEEPT_S3_, symObjAddr: 0xF8C8, symBinAddr: 0x100014430, symSize: 0x14 }
  - { offsetInCU: 0x1BDF4, offset: 0x37147, size: 0x8, addend: 0x0, symName: __ZNSt3__122__make_exception_guardB8ue170006INS_29_AllocatorDestroyRangeReverseINS_9allocatorI3RowEENS_16reverse_iteratorIPS3_EEEEEENS_28__exception_guard_exceptionsIT_EESA_, symObjAddr: 0xF8DC, symBinAddr: 0x100014444, symSize: 0x4C }
  - { offsetInCU: 0x1BE2A, offset: 0x3717D, size: 0x8, addend: 0x0, symName: __ZNSt3__1neB8ue170006IP3RowS2_EEbRKNS_16reverse_iteratorIT_EERKNS3_IT0_EE, symObjAddr: 0xF96C, symBinAddr: 0x1000144D4, symSize: 0x48 }
  - { offsetInCU: 0x1BE76, offset: 0x371C9, size: 0x8, addend: 0x0, symName: __ZNSt3__112__to_addressB8ue170006INS_16reverse_iteratorIP3RowEEvEEu7__decayIDTclsr19__to_address_helperIT_EE6__callclsr3stdE7declvalIRKS5_EEEEES7_, symObjAddr: 0xF9E8, symBinAddr: 0x100014550, symSize: 0x24 }
  - { offsetInCU: 0x1BED7, offset: 0x3722A, size: 0x8, addend: 0x0, symName: __ZNSt3__119__allocator_destroyB8ue170006INS_9allocatorI3RowEENS_16reverse_iteratorINS4_IPS2_EEEES7_EEvRT_T0_T1_, symObjAddr: 0xFDEC, symBinAddr: 0x100014954, symSize: 0x70 }
  - { offsetInCU: 0x1BF3D, offset: 0x37290, size: 0x8, addend: 0x0, symName: __ZNSt3__1neB8ue170006INS_16reverse_iteratorIP3RowEES4_EEbRKNS1_IT_EERKNS1_IT0_EE, symObjAddr: 0xFE98, symBinAddr: 0x100014A00, symSize: 0x60 }
  - { offsetInCU: 0x1BF89, offset: 0x372DC, size: 0x8, addend: 0x0, symName: __ZNSt3__112__to_addressB8ue170006INS_16reverse_iteratorINS1_IP3RowEEEEvEEu7__decayIDTclsr19__to_address_helperIT_EE6__callclsr3stdE7declvalIRKS6_EEEEES8_, symObjAddr: 0xFF24, symBinAddr: 0x100014A8C, symSize: 0x24 }
  - { offsetInCU: 0x1C114, offset: 0x37467, size: 0x8, addend: 0x0, symName: __ZNSt3__1rsB8ue170006IcNS_11char_traitsIcEENS_9allocatorIcEEEERNS_13basic_istreamIT_T0_EES9_RNS_12basic_stringIS6_S7_T1_EE, symObjAddr: 0x10A44, symBinAddr: 0x100014FE0, symSize: 0x308 }
  - { offsetInCU: 0x1C1EC, offset: 0x3753F, size: 0x8, addend: 0x0, symName: __ZNSt3__112__to_addressB8ue170006INS_12basic_stringIcNS_11char_traitsIcEENS_9allocatorIcEEEEEEPT_S8_, symObjAddr: 0x114DC, symBinAddr: 0x100015A78, symSize: 0x14 }
  - { offsetInCU: 0x1C221, offset: 0x37574, size: 0x8, addend: 0x0, symName: __ZNSt3__119__allocate_at_leastB8ue170006INS_9allocatorINS_12basic_stringIcNS_11char_traitsIcEENS1_IcEEEEEEEENS_19__allocation_resultINS_16allocator_traitsIT_E7pointerEEERSA_m, symObjAddr: 0x11AF8, symBinAddr: 0x100016094, symSize: 0x40 }
  - { offsetInCU: 0x1C264, offset: 0x375B7, size: 0x8, addend: 0x0, symName: __ZNSt3__142__uninitialized_allocator_move_if_noexceptB8ue170006INS_9allocatorINS_12basic_stringIcNS_11char_traitsIcEENS1_IcEEEEEENS_16reverse_iteratorIPS6_EESA_SA_EET2_RT_T0_T1_SB_, symObjAddr: 0x11D84, symBinAddr: 0x100016320, symSize: 0x12C }
  - { offsetInCU: 0x1C304, offset: 0x37657, size: 0x8, addend: 0x0, symName: __ZNSt3__14swapB8ue170006IPNS_12basic_stringIcNS_11char_traitsIcEENS_9allocatorIcEEEEEENS_9enable_ifIXaasr21is_move_constructibleIT_EE5valuesr18is_move_assignableIS9_EE5valueEvE4typeERS9_SC_, symObjAddr: 0x11EFC, symBinAddr: 0x100016498, symSize: 0x3C }
  - { offsetInCU: 0x1C355, offset: 0x376A8, size: 0x8, addend: 0x0, symName: __ZNSt3__122__make_exception_guardB8ue170006INS_29_AllocatorDestroyRangeReverseINS_9allocatorINS_12basic_stringIcNS_11char_traitsIcEENS2_IcEEEEEENS_16reverse_iteratorIPS7_EEEEEENS_28__exception_guard_exceptionsIT_EESE_, symObjAddr: 0x12048, symBinAddr: 0x1000165E4, symSize: 0x4C }
  - { offsetInCU: 0x1C38B, offset: 0x376DE, size: 0x8, addend: 0x0, symName: __ZNSt3__1neB8ue170006IPNS_12basic_stringIcNS_11char_traitsIcEENS_9allocatorIcEEEES7_EEbRKNS_16reverse_iteratorIT_EERKNS8_IT0_EE, symObjAddr: 0x120D8, symBinAddr: 0x100016674, symSize: 0x48 }
  - { offsetInCU: 0x1C3D7, offset: 0x3772A, size: 0x8, addend: 0x0, symName: __ZNSt3__112__to_addressB8ue170006INS_16reverse_iteratorIPNS_12basic_stringIcNS_11char_traitsIcEENS_9allocatorIcEEEEEEvEEu7__decayIDTclsr19__to_address_helperIT_EE6__callclsr3stdE7declvalIRKSA_EEEEESC_, symObjAddr: 0x12154, symBinAddr: 0x1000166F0, symSize: 0x24 }
  - { offsetInCU: 0x1C438, offset: 0x3778B, size: 0x8, addend: 0x0, symName: __ZNSt3__119__allocator_destroyB8ue170006INS_9allocatorINS_12basic_stringIcNS_11char_traitsIcEENS1_IcEEEEEENS_16reverse_iteratorINS8_IPS6_EEEESB_EEvRT_T0_T1_, symObjAddr: 0x12434, symBinAddr: 0x1000169D0, symSize: 0x70 }
  - { offsetInCU: 0x1C49E, offset: 0x377F1, size: 0x8, addend: 0x0, symName: __ZNSt3__1neB8ue170006INS_16reverse_iteratorIPNS_12basic_stringIcNS_11char_traitsIcEENS_9allocatorIcEEEEEES9_EEbRKNS1_IT_EERKNS1_IT0_EE, symObjAddr: 0x124E0, symBinAddr: 0x100016A7C, symSize: 0x60 }
  - { offsetInCU: 0x1C4EA, offset: 0x3783D, size: 0x8, addend: 0x0, symName: __ZNSt3__112__to_addressB8ue170006INS_16reverse_iteratorINS1_IPNS_12basic_stringIcNS_11char_traitsIcEENS_9allocatorIcEEEEEEEEvEEu7__decayIDTclsr19__to_address_helperIT_EE6__callclsr3stdE7declvalIRKSB_EEEEESD_, symObjAddr: 0x1256C, symBinAddr: 0x100016B08, symSize: 0x24 }
  - { offsetInCU: 0x1C54B, offset: 0x3789E, size: 0x8, addend: 0x0, symName: __ZNSt3__111max_elementB8ue170006IPKiNS_6__lessIvvEEEET_S5_S5_T0_, symObjAddr: 0x12A00, symBinAddr: 0x100016F9C, symSize: 0x30 }
  - { offsetInCU: 0x1C5A5, offset: 0x378F8, size: 0x8, addend: 0x0, symName: __ZNSt3__113__max_elementB8ue170006IRNS_6__lessIvvEEPKiEET0_S6_S6_T_, symObjAddr: 0x12A68, symBinAddr: 0x100017004, symSize: 0x9C }
  - { offsetInCU: 0x1C61C, offset: 0x3796F, size: 0x8, addend: 0x0, symName: __ZNSt3__1neB8ue170006ERKNS_21__hash_const_iteratorIPNS_11__hash_nodeINS_17__hash_value_typeINS_12basic_stringIcNS_11char_traitsIcEENS_9allocatorIcEEEENS_4pairIccEEEEPvEEEESH_, symObjAddr: 0x12C08, symBinAddr: 0x1000171A4, symSize: 0x34 }
  - { offsetInCU: 0x1C659, offset: 0x379AC, size: 0x8, addend: 0x0, symName: __ZNSt3__1eqB8ue170006ERKNS_21__hash_const_iteratorIPNS_11__hash_nodeINS_17__hash_value_typeINS_12basic_stringIcNS_11char_traitsIcEENS_9allocatorIcEEEENS_4pairIccEEEEPvEEEESH_, symObjAddr: 0x12E20, symBinAddr: 0x1000173BC, symSize: 0x30 }
  - { offsetInCU: 0x1C697, offset: 0x379EA, size: 0x8, addend: 0x0, symName: __ZNSt3__1neB8ue170006ERKNS_15__hash_iteratorIPNS_11__hash_nodeINS_17__hash_value_typeINS_12basic_stringIcNS_11char_traitsIcEENS_9allocatorIcEEEENS_4pairIccEEEEPvEEEESH_, symObjAddr: 0x132BC, symBinAddr: 0x100017858, symSize: 0x34 }
  - { offsetInCU: 0x1C6D4, offset: 0x37A27, size: 0x8, addend: 0x0, symName: __ZNSt3__1eqB8ue170006ERKNS_15__hash_iteratorIPNS_11__hash_nodeINS_17__hash_value_typeINS_12basic_stringIcNS_11char_traitsIcEENS_9allocatorIcEEEENS_4pairIccEEEEPvEEEESH_, symObjAddr: 0x132F0, symBinAddr: 0x10001788C, symSize: 0x30 }
  - { offsetInCU: 0x1C778, offset: 0x37ACB, size: 0x8, addend: 0x0, symName: __ZNSt3__13minB8ue170006IdEERKT_S3_S3_, symObjAddr: 0x1345C, symBinAddr: 0x1000179F8, symSize: 0x2C }
  - { offsetInCU: 0x1C7BB, offset: 0x37B0E, size: 0x8, addend: 0x0, symName: __ZNSt3__13minB8ue170006IdNS_6__lessIvvEEEERKT_S5_S5_T0_, symObjAddr: 0x13488, symBinAddr: 0x100017A24, symSize: 0x54 }
  - { offsetInCU: 0x1C848, offset: 0x37B9B, size: 0x8, addend: 0x0, symName: __ZNSt3__1eqB8ue170006IP3RowEEbRKNS_11__wrap_iterIT_EES7_, symObjAddr: 0x14AA0, symBinAddr: 0x10001903C, symSize: 0x48 }
  - { offsetInCU: 0x1C8AA, offset: 0x37BFD, size: 0x8, addend: 0x0, symName: __ZNSt3__116__swap_allocatorB8ue170006INS_9allocatorI3RowEEEEvRT_S5_NS_17integral_constantIbLb0EEE, symObjAddr: 0x15A94, symBinAddr: 0x10001A030, symSize: 0x14 }
  - { offsetInCU: 0x1C8EF, offset: 0x37C42, size: 0x8, addend: 0x0, symName: __ZNSt3__111nth_elementB8ue170006INS_11__wrap_iterIPdEEEEvT_S4_S4_, symObjAddr: 0x165B0, symBinAddr: 0x10001AB4C, symSize: 0x4C }
  - { offsetInCU: 0x1C93D, offset: 0x37C90, size: 0x8, addend: 0x0, symName: '__ZNSt3__19remove_ifB8ue170006INS_11__wrap_iterIP3RowEEZL17process_and_writeRNS_6vectorIS2_NS_9allocatorIS2_EEEERK4ArgsR11MungeLoggerE3$_0EET_SG_SG_T0_', symObjAddr: 0x167C4, symBinAddr: 0x10001AD60, symSize: 0xFC }
  - { offsetInCU: 0x1C9B4, offset: 0x37D07, size: 0x8, addend: 0x0, symName: __ZNSt3__1lsB8ue170006IcNS_11char_traitsIcEEEERNS_13basic_ostreamIT_T0_EES7_RKNS_8__iom_t5E, symObjAddr: 0x16B70, symBinAddr: 0x10001B10C, symSize: 0x40 }
  - { offsetInCU: 0x1CA00, offset: 0x37D53, size: 0x8, addend: 0x0, symName: __ZNSt3__112setprecisionB8ue170006Ei, symObjAddr: 0x16BB0, symBinAddr: 0x10001B14C, symSize: 0x2C }
  - { offsetInCU: 0x1CA2C, offset: 0x37D7F, size: 0x8, addend: 0x0, symName: __ZNSt3__1neB8ue170006IPdEEbRKNS_11__wrap_iterIT_EES6_, symObjAddr: 0x16E40, symBinAddr: 0x10001B3DC, symSize: 0x34 }
  - { offsetInCU: 0x1CA6F, offset: 0x37DC2, size: 0x8, addend: 0x0, symName: __ZNSt3__15fixedB8ue170006ERNS_8ios_baseE, symObjAddr: 0x170B0, symBinAddr: 0x10001B64C, symSize: 0x30 }
  - { offsetInCU: 0x1CA9D, offset: 0x37DF0, size: 0x8, addend: 0x0, symName: __ZNSt3__111max_elementB8ue170006INS_11__wrap_iterIPdEEEET_S4_S4_, symObjAddr: 0x1726C, symBinAddr: 0x10001B808, symSize: 0x44 }
  - { offsetInCU: 0x1CAE1, offset: 0x37E34, size: 0x8, addend: 0x0, symName: '__ZNSt3__18count_ifB8ue170006INS_11__wrap_iterIPdEEZL17process_and_writeRNS_6vectorI3RowNS_9allocatorIS5_EEEERK4ArgsR11MungeLoggerE3$_1EENS_15iterator_traitsIT_E15difference_typeESH_SH_T0_', symObjAddr: 0x172B0, symBinAddr: 0x10001B84C, symSize: 0x80 }
  - { offsetInCU: 0x1CB49, offset: 0x37E9C, size: 0x8, addend: 0x0, symName: __ZNSt3__119__allocate_at_leastB8ue170006INS_9allocatorIdEEEENS_19__allocation_resultINS_16allocator_traitsIT_E7pointerEEERS5_m, symObjAddr: 0x17C50, symBinAddr: 0x10001C1EC, symSize: 0x40 }
  - { offsetInCU: 0x1CB8C, offset: 0x37EDF, size: 0x8, addend: 0x0, symName: __ZNSt3__142__uninitialized_allocator_move_if_noexceptB8ue170006INS_9allocatorIdEENS_16reverse_iteratorIPdEES5_dvEET1_RT_T0_S9_S6_, symObjAddr: 0x17ED0, symBinAddr: 0x10001C46C, symSize: 0x78 }
  - { offsetInCU: 0x1CC0B, offset: 0x37F5E, size: 0x8, addend: 0x0, symName: __ZNSt3__14swapB8ue170006IPdEENS_9enable_ifIXaasr21is_move_constructibleIT_EE5valuesr18is_move_assignableIS3_EE5valueEvE4typeERS3_S6_, symObjAddr: 0x17F94, symBinAddr: 0x10001C530, symSize: 0x3C }
  - { offsetInCU: 0x1CC5C, offset: 0x37FAF, size: 0x8, addend: 0x0, symName: __ZNSt3__112__to_addressB8ue170006IdEEPT_S2_, symObjAddr: 0x180EC, symBinAddr: 0x10001C688, symSize: 0x14 }
  - { offsetInCU: 0x1CC91, offset: 0x37FE4, size: 0x8, addend: 0x0, symName: __ZNSt3__14moveB8ue170006INS_16reverse_iteratorIPdEES3_EET0_T_S5_S4_, symObjAddr: 0x18100, symBinAddr: 0x10001C69C, symSize: 0x78 }
  - { offsetInCU: 0x1CCEB, offset: 0x3803E, size: 0x8, addend: 0x0, symName: __ZNSt3__16__moveB8ue170006INS_17_ClassicAlgPolicyENS_16reverse_iteratorIPdEES4_S4_EENS_4pairIT0_T2_EES6_T1_S7_, symObjAddr: 0x18178, symBinAddr: 0x10001C714, symSize: 0x64 }
  - { offsetInCU: 0x1CD57, offset: 0x380AA, size: 0x8, addend: 0x0, symName: __ZNSt3__123__dispatch_copy_or_moveB8ue170006INS_17_ClassicAlgPolicyENS_11__move_loopIS1_EENS_14__move_trivialENS_16reverse_iteratorIPdEES7_S7_EENS_4pairIT2_T4_EES9_T3_SA_, symObjAddr: 0x181DC, symBinAddr: 0x10001C778, symSize: 0x64 }
  - { offsetInCU: 0x1CDD5, offset: 0x38128, size: 0x8, addend: 0x0, symName: __ZNSt3__121__unwrap_and_dispatchB8ue170006INS_10__overloadINS_11__move_loopINS_17_ClassicAlgPolicyEEENS_14__move_trivialEEENS_16reverse_iteratorIPdEES9_S9_Li0EEENS_4pairIT0_T2_EESB_T1_SC_, symObjAddr: 0x18240, symBinAddr: 0x10001C7DC, symSize: 0x12C }
  - { offsetInCU: 0x1CE66, offset: 0x381B9, size: 0x8, addend: 0x0, symName: __ZNSt3__114__unwrap_rangeB8ue170006INS_16reverse_iteratorIPdEES3_EENS_4pairIT0_S5_EET_S7_, symObjAddr: 0x1836C, symBinAddr: 0x10001C908, symSize: 0x84 }
  - { offsetInCU: 0x1D018, offset: 0x3836B, size: 0x8, addend: 0x0, symName: __ZNSt3__113__unwrap_iterB8ue170006INS_16reverse_iteratorIPdEENS_18__unwrap_iter_implIS3_Lb0EEELi0EEEDTclsrT0_8__unwrapclsr3stdE7declvalIT_EEEES7_, symObjAddr: 0x18490, symBinAddr: 0x10001CA2C, symSize: 0x44 }
  - { offsetInCU: 0x1D05D, offset: 0x383B0, size: 0x8, addend: 0x0, symName: __ZNSt3__19make_pairB8ue170006INS_16reverse_iteratorIPdEES3_EENS_4pairINS_18__unwrap_ref_decayIT_E4typeENS5_IT0_E4typeEEEOS6_OS9_, symObjAddr: 0x184D4, symBinAddr: 0x10001CA70, symSize: 0x38 }
  - { offsetInCU: 0x1D0AC, offset: 0x383FF, size: 0x8, addend: 0x0, symName: __ZNSt3__114__rewrap_rangeB8ue170006INS_16reverse_iteratorIPdEES3_EET_S4_T0_, symObjAddr: 0x1850C, symBinAddr: 0x10001CAA8, symSize: 0x5C }
  - { offsetInCU: 0x1D0F8, offset: 0x3844B, size: 0x8, addend: 0x0, symName: __ZNSt3__113__rewrap_iterB8ue170006INS_16reverse_iteratorIPdEES3_NS_18__unwrap_iter_implIS3_Lb0EEEEET_S6_T0_, symObjAddr: 0x18568, symBinAddr: 0x10001CB04, symSize: 0x74 }
  - { offsetInCU: 0x1D14D, offset: 0x384A0, size: 0x8, addend: 0x0, symName: __ZNSt3__1neB8ue170006IPdS1_EEbRKNS_16reverse_iteratorIT_EERKNS2_IT0_EE, symObjAddr: 0x185DC, symBinAddr: 0x10001CB78, symSize: 0x48 }
  - { offsetInCU: 0x1D2A9, offset: 0x385FC, size: 0x8, addend: 0x0, symName: __ZNSt3__111nth_elementB8ue170006INS_11__wrap_iterIPdEENS_6__lessIvvEEEEvT_S6_S6_T0_, symObjAddr: 0x18D88, symBinAddr: 0x10001D324, symSize: 0x50 }
  - { offsetInCU: 0x1D30E, offset: 0x38661, size: 0x8, addend: 0x0, symName: __ZNSt3__118__nth_element_implB8ue170006INS_17_ClassicAlgPolicyENS_11__wrap_iterIPdEENS_6__lessIvvEEEEvT0_S7_S7_RT1_, symObjAddr: 0x18DD8, symBinAddr: 0x10001D374, symSize: 0xF0 }
  - { offsetInCU: 0x1D37B, offset: 0x386CE, size: 0x8, addend: 0x0, symName: __ZNSt3__1eqB8ue170006IPdEEbRKNS_11__wrap_iterIT_EES6_, symObjAddr: 0x18EC8, symBinAddr: 0x10001D464, symSize: 0x48 }
  - { offsetInCU: 0x1D3BF, offset: 0x38712, size: 0x8, addend: 0x0, symName: __ZNSt3__123__debug_randomize_rangeB8ue170006INS_17_ClassicAlgPolicyENS_11__wrap_iterIPdEES4_EEvT0_T1_, symObjAddr: 0x18F10, symBinAddr: 0x10001D4AC, symSize: 0x14 }
  - { offsetInCU: 0x1D411, offset: 0x38764, size: 0x8, addend: 0x0, symName: __ZNSt3__113__nth_elementB8ue170006INS_17_ClassicAlgPolicyERNS_6__lessIvvEENS_11__wrap_iterIPdEEEEvT1_S8_S8_T0_, symObjAddr: 0x18F24, symBinAddr: 0x10001D4C0, symSize: 0x724 }
  - { offsetInCU: 0x1D51D, offset: 0x38870, size: 0x8, addend: 0x0, symName: __ZNSt3__1miB8ue170006IPdS1_EEDTmicldtfp_4baseEcldtfp0_4baseEERKNS_11__wrap_iterIT_EERKNS3_IT0_EE, symObjAddr: 0x19660, symBinAddr: 0x10001DBFC, symSize: 0x48 }
  - { offsetInCU: 0x1D569, offset: 0x388BC, size: 0x8, addend: 0x0, symName: __ZNSt3__17__sort3B8ue170006INS_17_ClassicAlgPolicyERNS_6__lessIvvEENS_11__wrap_iterIPdEEEEjT1_S8_S8_T0_, symObjAddr: 0x1970C, symBinAddr: 0x10001DCA8, symSize: 0x1E8 }
  - { offsetInCU: 0x1D5E9, offset: 0x3893C, size: 0x8, addend: 0x0, symName: __ZNSt3__116__selection_sortB8ue170006INS_17_ClassicAlgPolicyERNS_6__lessIvvEENS_11__wrap_iterIPdEEEEvT1_S8_T0_, symObjAddr: 0x198F4, symBinAddr: 0x10001DE90, symSize: 0xB0 }
  - { offsetInCU: 0x1D673, offset: 0x389C6, size: 0x8, addend: 0x0, symName: __ZNSt3__124__nth_element_find_guardB8ue170006IRNS_6__lessIvvEENS_11__wrap_iterIPdEEEEbRT0_S8_S7_T_, symObjAddr: 0x199A4, symBinAddr: 0x10001DF40, symSize: 0xB8 }
  - { offsetInCU: 0x1D6DB, offset: 0x38A2E, size: 0x8, addend: 0x0, symName: __ZNSt3__1geB8ue170006IPdEEbRKNS_11__wrap_iterIT_EES6_, symObjAddr: 0x19A5C, symBinAddr: 0x10001DFF8, symSize: 0x34 }
  - { offsetInCU: 0x1D71E, offset: 0x38A71, size: 0x8, addend: 0x0, symName: __ZNSt3__1ltB8ue170006IPdEEbRKNS_11__wrap_iterIT_EES6_, symObjAddr: 0x19A90, symBinAddr: 0x10001E02C, symSize: 0x48 }
  - { offsetInCU: 0x1D762, offset: 0x38AB5, size: 0x8, addend: 0x0, symName: __ZNSt3__19iter_swapB8ue170006INS_11__wrap_iterIPdEES3_EEvT_T0_, symObjAddr: 0x19AD8, symBinAddr: 0x10001E074, symSize: 0x50 }
  - { offsetInCU: 0x1D7AA, offset: 0x38AFD, size: 0x8, addend: 0x0, symName: __ZNSt3__14swapB8ue170006IdEENS_9enable_ifIXaasr21is_move_constructibleIT_EE5valuesr18is_move_assignableIS2_EE5valueEvE4typeERS2_S5_, symObjAddr: 0x19B28, symBinAddr: 0x10001E0C4, symSize: 0x3C }
  - { offsetInCU: 0x1D7FB, offset: 0x38B4E, size: 0x8, addend: 0x0, symName: __ZNSt3__113__min_elementB8ue170006IRNS_6__lessIvvEENS_11__wrap_iterIPdEES6_EET0_S7_T1_T_, symObjAddr: 0x19B64, symBinAddr: 0x10001E100, symSize: 0x5C }
  - { offsetInCU: 0x1D86C, offset: 0x38BBF, size: 0x8, addend: 0x0, symName: __ZNSt3__113__min_elementB8ue170006IRNS_6__lessIvvEENS_11__wrap_iterIPdEES6_NS_10__identityEEET0_S8_T1_T_RT2_, symObjAddr: 0x19BC0, symBinAddr: 0x10001E15C, symSize: 0xF0 }
  - { offsetInCU: 0x1D8F4, offset: 0x38C47, size: 0x8, addend: 0x0, symName: __ZNSt3__18__invokeB8ue170006IRNS_6__lessIvvEEJRdS4_EEEDTclclsr3stdE7declvalIT_EEspclsr3stdE7declvalIT0_EEEEOS5_DpOS6_, symObjAddr: 0x19CB0, symBinAddr: 0x10001E24C, symSize: 0x38 }
  - { offsetInCU: 0x1D95C, offset: 0x38CAF, size: 0x8, addend: 0x0, symName: __ZNSt3__18__invokeB8ue170006IRNS_10__identityEJRdEEEDTclclsr3stdE7declvalIT_EEspclsr3stdE7declvalIT0_EEEEOS4_DpOS5_, symObjAddr: 0x19CE8, symBinAddr: 0x10001E284, symSize: 0x2C }
  - { offsetInCU: 0x1D9DC, offset: 0x38D2F, size: 0x8, addend: 0x0, symName: __ZNSt3__1miB8ue170006IPK3RowPS1_EEDTmicldtfp_4baseEcldtfp0_4baseEERKNS_11__wrap_iterIT_EERKNS6_IT0_EE, symObjAddr: 0x19DD8, symBinAddr: 0x10001E374, symSize: 0x48 }
  - { offsetInCU: 0x1DA28, offset: 0x38D7B, size: 0x8, addend: 0x0, symName: __ZNSt3__1neB8ue170006IPK3RowEEbRKNS_11__wrap_iterIT_EES8_, symObjAddr: 0x19E20, symBinAddr: 0x10001E3BC, symSize: 0x34 }
  - { offsetInCU: 0x1DA6B, offset: 0x38DBE, size: 0x8, addend: 0x0, symName: __ZNSt3__14moveB8ue170006IP3RowS2_EET0_T_S4_S3_, symObjAddr: 0x19EA0, symBinAddr: 0x10001E43C, symSize: 0x40 }
  - { offsetInCU: 0x1DAC5, offset: 0x38E18, size: 0x8, addend: 0x0, symName: __ZNSt3__1miB8ue170006IPK3RowS3_EEDTmicldtfp_4baseEcldtfp0_4baseEERKNS_11__wrap_iterIT_EERKNS5_IT0_EE, symObjAddr: 0x19EE0, symBinAddr: 0x10001E47C, symSize: 0x48 }
  - { offsetInCU: 0x1DB11, offset: 0x38E64, size: 0x8, addend: 0x0, symName: __ZNSt3__1eqB8ue170006IPK3RowEEbRKNS_11__wrap_iterIT_EES8_, symObjAddr: 0x19F40, symBinAddr: 0x10001E4DC, symSize: 0x48 }
  - { offsetInCU: 0x1DB54, offset: 0x38EA7, size: 0x8, addend: 0x0, symName: __ZNSt3__16__moveB8ue170006INS_17_ClassicAlgPolicyEP3RowS3_S3_EENS_4pairIT0_T2_EES5_T1_S6_, symObjAddr: 0x1A0E4, symBinAddr: 0x10001E680, symSize: 0x44 }
  - { offsetInCU: 0x1DBC0, offset: 0x38F13, size: 0x8, addend: 0x0, symName: __ZNSt3__123__dispatch_copy_or_moveB8ue170006INS_17_ClassicAlgPolicyENS_11__move_loopIS1_EENS_14__move_trivialEP3RowS6_S6_EENS_4pairIT2_T4_EES8_T3_S9_, symObjAddr: 0x1A128, symBinAddr: 0x10001E6C4, symSize: 0x44 }
  - { offsetInCU: 0x1DC3E, offset: 0x38F91, size: 0x8, addend: 0x0, symName: __ZNSt3__121__unwrap_and_dispatchB8ue170006INS_10__overloadINS_11__move_loopINS_17_ClassicAlgPolicyEEENS_14__move_trivialEEEP3RowS8_S8_Li0EEENS_4pairIT0_T2_EESA_T1_SB_, symObjAddr: 0x1A16C, symBinAddr: 0x10001E708, symSize: 0xB4 }
  - { offsetInCU: 0x1DCCD, offset: 0x39020, size: 0x8, addend: 0x0, symName: __ZNSt3__114__unwrap_rangeB8ue170006IP3RowS2_EENS_4pairIT0_S4_EET_S6_, symObjAddr: 0x1A220, symBinAddr: 0x10001E7BC, symSize: 0x60 }
  - { offsetInCU: 0x1DDEE, offset: 0x39141, size: 0x8, addend: 0x0, symName: __ZNSt3__113__unwrap_iterB8ue170006IP3RowNS_18__unwrap_iter_implIS2_Lb1EEELi0EEEDTclsrT0_8__unwrapclsr3stdE7declvalIT_EEEES6_, symObjAddr: 0x1A310, symBinAddr: 0x10001E8AC, symSize: 0x24 }
  - { offsetInCU: 0x1DE33, offset: 0x39186, size: 0x8, addend: 0x0, symName: __ZNSt3__19make_pairB8ue170006IP3RowS2_EENS_4pairINS_18__unwrap_ref_decayIT_E4typeENS4_IT0_E4typeEEEOS5_OS8_, symObjAddr: 0x1A334, symBinAddr: 0x10001E8D0, symSize: 0x38 }
  - { offsetInCU: 0x1DE82, offset: 0x391D5, size: 0x8, addend: 0x0, symName: __ZNSt3__114__rewrap_rangeB8ue170006IP3RowS2_EET_S3_T0_, symObjAddr: 0x1A36C, symBinAddr: 0x10001E908, symSize: 0x2C }
  - { offsetInCU: 0x1DECE, offset: 0x39221, size: 0x8, addend: 0x0, symName: __ZNSt3__113__rewrap_iterB8ue170006IP3RowS2_NS_18__unwrap_iter_implIS2_Lb1EEEEET_S5_T0_, symObjAddr: 0x1A398, symBinAddr: 0x10001E934, symSize: 0x3C }
  - { offsetInCU: 0x1DF9D, offset: 0x392F0, size: 0x8, addend: 0x0, symName: '__ZNSt3__17find_ifB8ue170006INS_11__wrap_iterIP3RowEERZL17process_and_writeRNS_6vectorIS2_NS_9allocatorIS2_EEEERK4ArgsR11MungeLoggerE3$_0EET_SH_SH_T0_', symObjAddr: 0x1A560, symBinAddr: 0x10001EAFC, symSize: 0x80 }
  - { offsetInCU: 0x1DFF7, offset: 0x3934A, size: 0x8, addend: 0x0, symName: __ZNSt3__122__make_exception_guardB8ue170006INS_6vectorIdNS_9allocatorIdEEE16__destroy_vectorEEENS_28__exception_guard_exceptionsIT_EES7_, symObjAddr: 0x1AD1C, symBinAddr: 0x10001F2B8, symSize: 0x40 }
  - { offsetInCU: 0x1E02C, offset: 0x3937F, size: 0x8, addend: 0x0, symName: __ZNSt3__130__uninitialized_allocator_copyB8ue170006INS_9allocatorIdEEPdS3_S3_EET2_RT_T0_T1_S4_, symObjAddr: 0x1AF88, symBinAddr: 0x10001F524, symSize: 0x80 }
  - { offsetInCU: 0x1E0C9, offset: 0x3941C, size: 0x8, addend: 0x0, symName: __ZNSt3__114__unwrap_rangeB8ue170006IPdS1_EENS_4pairIT0_S3_EET_S5_, symObjAddr: 0x1B008, symBinAddr: 0x10001F5A4, symSize: 0x60 }
  - { offsetInCU: 0x1E115, offset: 0x39468, size: 0x8, addend: 0x0, symName: __ZNSt3__135__uninitialized_allocator_copy_implB8ue170006INS_9allocatorIdEEdddLPv0EEEPT2_RT_PT0_S9_S5_, symObjAddr: 0x1B068, symBinAddr: 0x10001F604, symSize: 0x38 }
  - { offsetInCU: 0x1E198, offset: 0x394EB, size: 0x8, addend: 0x0, symName: __ZNSt3__113__unwrap_iterB8ue170006IPdNS_18__unwrap_iter_implIS1_Lb1EEELi0EEEDTclsrT0_8__unwrapclsr3stdE7declvalIT_EEEES5_, symObjAddr: 0x1B0A0, symBinAddr: 0x10001F63C, symSize: 0x24 }
  - { offsetInCU: 0x1E1DD, offset: 0x39530, size: 0x8, addend: 0x0, symName: __ZNSt3__113__rewrap_iterB8ue170006IPdS1_NS_18__unwrap_iter_implIS1_Lb1EEEEET_S4_T0_, symObjAddr: 0x1B0C4, symBinAddr: 0x10001F660, symSize: 0x3C }
  - { offsetInCU: 0x1E232, offset: 0x39585, size: 0x8, addend: 0x0, symName: __ZNSt3__19make_pairB8ue170006IPdS1_EENS_4pairINS_18__unwrap_ref_decayIT_E4typeENS3_IT0_E4typeEEEOS4_OS7_, symObjAddr: 0x1B100, symBinAddr: 0x10001F69C, symSize: 0x38 }
  - { offsetInCU: 0x1E386, offset: 0x396D9, size: 0x8, addend: 0x0, symName: __ZNSt3__14copyB8ue170006IPdS1_EET0_T_S3_S2_, symObjAddr: 0x1B1A8, symBinAddr: 0x10001F744, symSize: 0x40 }
  - { offsetInCU: 0x1E3E0, offset: 0x39733, size: 0x8, addend: 0x0, symName: __ZNSt3__16__copyB8ue170006INS_17_ClassicAlgPolicyEPdS2_S2_EENS_4pairIT0_T2_EES4_T1_S5_, symObjAddr: 0x1B1E8, symBinAddr: 0x10001F784, symSize: 0x44 }
  - { offsetInCU: 0x1E44C, offset: 0x3979F, size: 0x8, addend: 0x0, symName: __ZNSt3__123__dispatch_copy_or_moveB8ue170006INS_17_ClassicAlgPolicyENS_11__copy_loopIS1_EENS_14__copy_trivialEPdS5_S5_EENS_4pairIT2_T4_EES7_T3_S8_, symObjAddr: 0x1B22C, symBinAddr: 0x10001F7C8, symSize: 0x44 }
  - { offsetInCU: 0x1E4CA, offset: 0x3981D, size: 0x8, addend: 0x0, symName: __ZNSt3__121__unwrap_and_dispatchB8ue170006INS_10__overloadINS_11__copy_loopINS_17_ClassicAlgPolicyEEENS_14__copy_trivialEEEPdS7_S7_Li0EEENS_4pairIT0_T2_EES9_T1_SA_, symObjAddr: 0x1B270, symBinAddr: 0x10001F80C, symSize: 0xB4 }
  - { offsetInCU: 0x1E5DD, offset: 0x39930, size: 0x8, addend: 0x0, symName: __ZNSt3__114__rewrap_rangeB8ue170006IPdS1_EET_S2_T0_, symObjAddr: 0x1B36C, symBinAddr: 0x10001F908, symSize: 0x2C }
  - { offsetInCU: 0x1E629, offset: 0x3997C, size: 0x8, addend: 0x0, symName: __ZNSt3__119__copy_trivial_implB8ue170006IddEENS_4pairIPT_PT0_EES3_S3_S5_, symObjAddr: 0x1B398, symBinAddr: 0x10001F934, symSize: 0x80 }
  - { offsetInCU: 0x1E691, offset: 0x399E4, size: 0x8, addend: 0x0, symName: __ZNSt3__119__constexpr_memmoveB8ue170006IddLi0EEEPT_S2_PT0_NS_15__element_countE, symObjAddr: 0x1B418, symBinAddr: 0x10001F9B4, symSize: 0x64 }
  - { offsetInCU: 0x1E700, offset: 0x39A53, size: 0x8, addend: 0x0, symName: __ZNSt3__19make_pairB8ue170006IRPdS1_EENS_4pairINS_18__unwrap_ref_decayIT_E4typeENS4_IT0_E4typeEEEOS5_OS8_, symObjAddr: 0x1B47C, symBinAddr: 0x10001FA18, symSize: 0x38 }
  - { offsetInCU: 0x1E7A3, offset: 0x39AF6, size: 0x8, addend: 0x0, symName: __ZNSt3__111max_elementB8ue170006INS_11__wrap_iterIPdEENS_6__lessIvvEEEET_S6_S6_T0_, symObjAddr: 0x1B7B0, symBinAddr: 0x10001FD4C, symSize: 0x48 }
  - { offsetInCU: 0x1E7FD, offset: 0x39B50, size: 0x8, addend: 0x0, symName: __ZNSt3__113__max_elementB8ue170006IRNS_6__lessIvvEENS_11__wrap_iterIPdEEEET0_S7_S7_T_, symObjAddr: 0x1B7F8, symBinAddr: 0x10001FD94, symSize: 0xB8 }
  - { offsetInCU: 0x1E874, offset: 0x39BC7, size: 0x8, addend: 0x0, symName: __ZNSt3__14copyB8ue170006IPKcPcEET0_T_S5_S4_, symObjAddr: 0x1C034, symBinAddr: 0x1000205D0, symSize: 0x40 }
  - { offsetInCU: 0x1E8CE, offset: 0x39C21, size: 0x8, addend: 0x0, symName: __ZNSt3__16__copyB8ue170006INS_17_ClassicAlgPolicyEPKcS3_PcEENS_4pairIT0_T2_EES6_T1_S7_, symObjAddr: 0x1C074, symBinAddr: 0x100020610, symSize: 0x44 }
  - { offsetInCU: 0x1E93A, offset: 0x39C8D, size: 0x8, addend: 0x0, symName: __ZNSt3__123__dispatch_copy_or_moveB8ue170006INS_17_ClassicAlgPolicyENS_11__copy_loopIS1_EENS_14__copy_trivialEPKcS6_PcEENS_4pairIT2_T4_EES9_T3_SA_, symObjAddr: 0x1C0B8, symBinAddr: 0x100020654, symSize: 0x44 }
  - { offsetInCU: 0x1E9B8, offset: 0x39D0B, size: 0x8, addend: 0x0, symName: __ZNSt3__121__unwrap_and_dispatchB8ue170006INS_10__overloadINS_11__copy_loopINS_17_ClassicAlgPolicyEEENS_14__copy_trivialEEEPKcS8_PcLi0EEENS_4pairIT0_T2_EESB_T1_SC_, symObjAddr: 0x1C0FC, symBinAddr: 0x100020698, symSize: 0xB4 }
  - { offsetInCU: 0x1EA47, offset: 0x39D9A, size: 0x8, addend: 0x0, symName: __ZNSt3__114__unwrap_rangeB8ue170006IPKcS2_EENS_4pairIT0_S4_EET_S6_, symObjAddr: 0x1C1B0, symBinAddr: 0x10002074C, symSize: 0x60 }
  - { offsetInCU: 0x1EB98, offset: 0x39EEB, size: 0x8, addend: 0x0, symName: __ZNSt3__113__unwrap_iterB8ue170006IPcNS_18__unwrap_iter_implIS1_Lb1EEELi0EEEDTclsrT0_8__unwrapclsr3stdE7declvalIT_EEEES5_, symObjAddr: 0x1C258, symBinAddr: 0x1000207F4, symSize: 0x24 }
  - { offsetInCU: 0x1EBDD, offset: 0x39F30, size: 0x8, addend: 0x0, symName: __ZNSt3__19make_pairB8ue170006IPKcPcEENS_4pairINS_18__unwrap_ref_decayIT_E4typeENS5_IT0_E4typeEEEOS6_OS9_, symObjAddr: 0x1C27C, symBinAddr: 0x100020818, symSize: 0x38 }
  - { offsetInCU: 0x1EC2C, offset: 0x39F7F, size: 0x8, addend: 0x0, symName: __ZNSt3__114__rewrap_rangeB8ue170006IPKcS2_EET_S3_T0_, symObjAddr: 0x1C2B4, symBinAddr: 0x100020850, symSize: 0x2C }
  - { offsetInCU: 0x1EC78, offset: 0x39FCB, size: 0x8, addend: 0x0, symName: __ZNSt3__113__rewrap_iterB8ue170006IPcS1_NS_18__unwrap_iter_implIS1_Lb1EEEEET_S4_T0_, symObjAddr: 0x1C2E0, symBinAddr: 0x10002087C, symSize: 0x3C }
  - { offsetInCU: 0x1ECCD, offset: 0x3A020, size: 0x8, addend: 0x0, symName: __ZNSt3__19make_pairB8ue170006IPKcS2_EENS_4pairINS_18__unwrap_ref_decayIT_E4typeENS4_IT0_E4typeEEEOS5_OS8_, symObjAddr: 0x1C31C, symBinAddr: 0x1000208B8, symSize: 0x38 }
  - { offsetInCU: 0x1ED1C, offset: 0x3A06F, size: 0x8, addend: 0x0, symName: __ZNSt3__113__unwrap_iterB8ue170006IPKcNS_18__unwrap_iter_implIS2_Lb1EEELi0EEEDTclsrT0_8__unwrapclsr3stdE7declvalIT_EEEES6_, symObjAddr: 0x1C354, symBinAddr: 0x1000208F0, symSize: 0x24 }
  - { offsetInCU: 0x1EE8A, offset: 0x3A1DD, size: 0x8, addend: 0x0, symName: __ZNSt3__119__copy_trivial_implB8ue170006IKccEENS_4pairIPT_PT0_EES4_S4_S6_, symObjAddr: 0x1C40C, symBinAddr: 0x1000209A8, symSize: 0x78 }
  - { offsetInCU: 0x1EEF2, offset: 0x3A245, size: 0x8, addend: 0x0, symName: __ZNSt3__119__constexpr_memmoveB8ue170006IcKcLi0EEEPT_S3_PT0_NS_15__element_countE, symObjAddr: 0x1C484, symBinAddr: 0x100020A20, symSize: 0x64 }
  - { offsetInCU: 0x1EF61, offset: 0x3A2B4, size: 0x8, addend: 0x0, symName: __ZNSt3__19make_pairB8ue170006IRPKcPcEENS_4pairINS_18__unwrap_ref_decayIT_E4typeENS6_IT0_E4typeEEEOS7_OSA_, symObjAddr: 0x1C4E8, symBinAddr: 0x100020A84, symSize: 0x38 }
  - { offsetInCU: 0x1F004, offset: 0x3A357, size: 0x8, addend: 0x0, symName: __ZNSt3__113__rewrap_iterB8ue170006IPKcS2_NS_18__unwrap_iter_implIS2_Lb1EEEEET_S5_T0_, symObjAddr: 0x1C624, symBinAddr: 0x100020BC0, symSize: 0x3C }
  - { offsetInCU: 0x1F059, offset: 0x3A3AC, size: 0x8, addend: 0x0, symName: __ZNSt3__16fill_nB8ue170006IPcmcEET_S2_T0_RKT1_, symObjAddr: 0x1C6F0, symBinAddr: 0x100020C8C, symSize: 0x44 }
  - { offsetInCU: 0x1F0BC, offset: 0x3A40F, size: 0x8, addend: 0x0, symName: __ZNSt3__18__fill_nB8ue170006IPcmcEET_S2_T0_RKT1_, symObjAddr: 0x1C734, symBinAddr: 0x100020CD0, symSize: 0x64 }
  - { offsetInCU: 0x1F11F, offset: 0x3A472, size: 0x8, addend: 0x0, symName: __ZNSt3__121__convert_to_integralB8ue170006Em, symObjAddr: 0x1C798, symBinAddr: 0x100020D34, symSize: 0x14 }
  - { offsetInCU: 0x1FCFE, offset: 0x3B051, size: 0x8, addend: 0x0, symName: __ZN11MungeLogger2muEv, symObjAddr: 0x5368, symBinAddr: 0x10000AEFC, symSize: 0x84 }
  - { offsetInCU: 0x1FD1C, offset: 0x3B06F, size: 0x8, addend: 0x0, symName: __ZZN11MungeLogger2muEvE1m, symObjAddr: 0x1DCC0, symBinAddr: 0x100044060, symSize: 0x0 }
  - { offsetInCU: 0x1FD31, offset: 0x3B084, size: 0x8, addend: 0x0, symName: __ZL12inv_norm_cdfd, symObjAddr: 0x1A690, symBinAddr: 0x10001EC2C, symSize: 0x3D4 }
  - { offsetInCU: 0x1FD5B, offset: 0x3B0AE, size: 0x8, addend: 0x0, symName: __ZZL12inv_norm_cdfdE2a1, symObjAddr: 0x1DD10, symBinAddr: 0x10003E1F8, symSize: 0x0 }
  - { offsetInCU: 0x1FD71, offset: 0x3B0C4, size: 0x8, addend: 0x0, symName: __ZZL12inv_norm_cdfdE2a2, symObjAddr: 0x1DD18, symBinAddr: 0x10003E200, symSize: 0x0 }
  - { offsetInCU: 0x1FD87, offset: 0x3B0DA, size: 0x8, addend: 0x0, symName: __ZZL12inv_norm_cdfdE2a3, symObjAddr: 0x1DD20, symBinAddr: 0x10003E208, symSize: 0x0 }
  - { offsetInCU: 0x1FD9D, offset: 0x3B0F0, size: 0x8, addend: 0x0, symName: __ZZL12inv_norm_cdfdE2a4, symObjAddr: 0x1DD28, symBinAddr: 0x10003E210, symSize: 0x0 }
  - { offsetInCU: 0x1FDB3, offset: 0x3B106, size: 0x8, addend: 0x0, symName: __ZZL12inv_norm_cdfdE2a5, symObjAddr: 0x1DD30, symBinAddr: 0x10003E218, symSize: 0x0 }
  - { offsetInCU: 0x1FDC9, offset: 0x3B11C, size: 0x8, addend: 0x0, symName: __ZZL12inv_norm_cdfdE2a6, symObjAddr: 0x1DD38, symBinAddr: 0x10003E220, symSize: 0x0 }
  - { offsetInCU: 0x1FDDF, offset: 0x3B132, size: 0x8, addend: 0x0, symName: __ZZL12inv_norm_cdfdE2b1, symObjAddr: 0x1DD40, symBinAddr: 0x10003E228, symSize: 0x0 }
  - { offsetInCU: 0x1FDF5, offset: 0x3B148, size: 0x8, addend: 0x0, symName: __ZZL12inv_norm_cdfdE2b2, symObjAddr: 0x1DD48, symBinAddr: 0x10003E230, symSize: 0x0 }
  - { offsetInCU: 0x1FE0B, offset: 0x3B15E, size: 0x8, addend: 0x0, symName: __ZZL12inv_norm_cdfdE2b3, symObjAddr: 0x1DD50, symBinAddr: 0x10003E238, symSize: 0x0 }
  - { offsetInCU: 0x1FE21, offset: 0x3B174, size: 0x8, addend: 0x0, symName: __ZZL12inv_norm_cdfdE2b4, symObjAddr: 0x1DD58, symBinAddr: 0x10003E240, symSize: 0x0 }
  - { offsetInCU: 0x1FE37, offset: 0x3B18A, size: 0x8, addend: 0x0, symName: __ZZL12inv_norm_cdfdE2b5, symObjAddr: 0x1DD60, symBinAddr: 0x10003E248, symSize: 0x0 }
  - { offsetInCU: 0x1FE4D, offset: 0x3B1A0, size: 0x8, addend: 0x0, symName: __ZZL12inv_norm_cdfdE2c1, symObjAddr: 0x1DD68, symBinAddr: 0x10003E250, symSize: 0x0 }
  - { offsetInCU: 0x1FE63, offset: 0x3B1B6, size: 0x8, addend: 0x0, symName: __ZZL12inv_norm_cdfdE2c2, symObjAddr: 0x1DD70, symBinAddr: 0x10003E258, symSize: 0x0 }
  - { offsetInCU: 0x1FE79, offset: 0x3B1CC, size: 0x8, addend: 0x0, symName: __ZZL12inv_norm_cdfdE2c3, symObjAddr: 0x1DD78, symBinAddr: 0x10003E260, symSize: 0x0 }
  - { offsetInCU: 0x1FE8F, offset: 0x3B1E2, size: 0x8, addend: 0x0, symName: __ZZL12inv_norm_cdfdE2c4, symObjAddr: 0x1DD80, symBinAddr: 0x10003E268, symSize: 0x0 }
  - { offsetInCU: 0x1FEA5, offset: 0x3B1F8, size: 0x8, addend: 0x0, symName: __ZZL12inv_norm_cdfdE2c5, symObjAddr: 0x1DD88, symBinAddr: 0x10003E270, symSize: 0x0 }
  - { offsetInCU: 0x1FEBB, offset: 0x3B20E, size: 0x8, addend: 0x0, symName: __ZZL12inv_norm_cdfdE2c6, symObjAddr: 0x1DD90, symBinAddr: 0x10003E278, symSize: 0x0 }
  - { offsetInCU: 0x1FED1, offset: 0x3B224, size: 0x8, addend: 0x0, symName: __ZZL12inv_norm_cdfdE2d1, symObjAddr: 0x1DD98, symBinAddr: 0x10003E280, symSize: 0x0 }
  - { offsetInCU: 0x1FEE7, offset: 0x3B23A, size: 0x8, addend: 0x0, symName: __ZZL12inv_norm_cdfdE2d2, symObjAddr: 0x1DDA0, symBinAddr: 0x10003E288, symSize: 0x0 }
  - { offsetInCU: 0x1FEFD, offset: 0x3B250, size: 0x8, addend: 0x0, symName: __ZZL12inv_norm_cdfdE2d3, symObjAddr: 0x1DDA8, symBinAddr: 0x10003E290, symSize: 0x0 }
  - { offsetInCU: 0x1FF13, offset: 0x3B266, size: 0x8, addend: 0x0, symName: __ZZL12inv_norm_cdfdE2d4, symObjAddr: 0x1DDB0, symBinAddr: 0x10003E298, symSize: 0x0 }
  - { offsetInCU: 0x20CA8, offset: 0x3BFFB, size: 0x8, addend: 0x0, symName: __ZNSt3__16vectorI3RowNS_9allocatorIS1_EEE26__swap_out_circular_bufferERNS_14__split_bufferIS1_RS3_EE, symObjAddr: 0xEE30, symBinAddr: 0x100013B18, symSize: 0x110 }
  - { offsetInCU: 0x20D3A, offset: 0x3C08D, size: 0x8, addend: 0x0, symName: __ZNSt3__16vectorINS_12basic_stringIcNS_11char_traitsIcEENS_9allocatorIcEEEENS4_IS6_EEE26__swap_out_circular_bufferERNS_14__split_bufferIS6_RS7_EE, symObjAddr: 0x116E8, symBinAddr: 0x100015C84, symSize: 0x110 }
  - { offsetInCU: 0x21300, offset: 0x3C653, size: 0x8, addend: 0x0, symName: __ZNSt3__16vectorIdNS_9allocatorIdEEE26__swap_out_circular_bufferERNS_14__split_bufferIdRS2_EE, symObjAddr: 0x178D4, symBinAddr: 0x10001BE70, symSize: 0x110 }
  - { offsetInCU: 0x217EE, offset: 0x3CB41, size: 0x8, addend: 0x0, symName: __Z7toloweri, symObjAddr: 0x45C4, symBinAddr: 0x10000A91C, symSize: 0x24 }
  - { offsetInCU: 0x2181C, offset: 0x3CB6F, size: 0x8, addend: 0x0, symName: __Z7toupperi, symObjAddr: 0x6EB4, symBinAddr: 0x10000C534, symSize: 0x24 }
  - { offsetInCU: 0x22FBE, offset: 0x3E311, size: 0x8, addend: 0x0, symName: __Z9run_mungeiPPc, symObjAddr: 0x0, symBinAddr: 0x100006508, symSize: 0x784 }
  - { offsetInCU: 0x2305A, offset: 0x3E3AD, size: 0x8, addend: 0x0, symName: __ZNSt3__19basic_iosIcNS_11char_traitsIcEEE3tieB8ue170006EPNS_13basic_ostreamIcS2_EE, symObjAddr: 0x784, symBinAddr: 0x100006C8C, symSize: 0x2C }
  - { offsetInCU: 0x2309F, offset: 0x3E3F2, size: 0x8, addend: 0x0, symName: __ZL10parse_argsiPPc, symObjAddr: 0x7B0, symBinAddr: 0x100006CB8, symSize: 0xB38 }
  - { offsetInCU: 0x231BD, offset: 0x3E510, size: 0x8, addend: 0x0, symName: __ZN11MungeLoggerC1ERKNSt3__112basic_stringIcNS0_11char_traitsIcEENS0_9allocatorIcEEEEb, symObjAddr: 0x1404, symBinAddr: 0x10000790C, symSize: 0x48 }
  - { offsetInCU: 0x23251, offset: 0x3E5A4, size: 0x8, addend: 0x0, symName: __ZNSt3__119basic_ostringstreamIcNS_11char_traitsIcEENS_9allocatorIcEEEC1B8ue170006Ev, symObjAddr: 0x144C, symBinAddr: 0x100007954, symSize: 0xEC }
  - { offsetInCU: 0x23278, offset: 0x3E5CB, size: 0x8, addend: 0x0, symName: __Z5isnanB8ue170006Ua9enable_ifIXLb1EEEd, symObjAddr: 0x15FC, symBinAddr: 0x100007A40, symSize: 0x20 }
  - { offsetInCU: 0x232A8, offset: 0x3E5FB, size: 0x8, addend: 0x0, symName: __ZN11MungeLogger3logIJNSt3__112basic_stringIcNS1_11char_traitsIcEENS1_9allocatorIcEEEEEEEvDpRKT_, symObjAddr: 0x161C, symBinAddr: 0x100007A60, symSize: 0x174 }
  - { offsetInCU: 0x23305, offset: 0x3E658, size: 0x8, addend: 0x0, symName: __ZNKSt3__119basic_ostringstreamIcNS_11char_traitsIcEENS_9allocatorIcEEE3strB8ue170006Ev, symObjAddr: 0x1790, symBinAddr: 0x100007BD4, symSize: 0x30 }
  - { offsetInCU: 0x2332E, offset: 0x3E681, size: 0x8, addend: 0x0, symName: __ZNSt3__119basic_ostringstreamIcNS_11char_traitsIcEENS_9allocatorIcEEED1Ev, symObjAddr: 0x17C0, symBinAddr: 0x100007C04, symSize: 0x40 }
  - { offsetInCU: 0x23359, offset: 0x3E6AC, size: 0x8, addend: 0x0, symName: __ZL16parse_and_filterRK4ArgsR11MungeLogger, symObjAddr: 0x1800, symBinAddr: 0x100007C44, symSize: 0x1730 }
  - { offsetInCU: 0x23912, offset: 0x3EC65, size: 0x8, addend: 0x0, symName: __ZNKSt3__16vectorI3RowNS_9allocatorIS1_EEE5emptyB8ue170006Ev, symObjAddr: 0x2F30, symBinAddr: 0x100009374, symSize: 0x28 }
  - { offsetInCU: 0x23937, offset: 0x3EC8A, size: 0x8, addend: 0x0, symName: __ZL17process_and_writeRNSt3__16vectorI3RowNS_9allocatorIS1_EEEERK4ArgsR11MungeLogger, symObjAddr: 0x2F58, symBinAddr: 0x10000939C, symSize: 0x118C }
  - { offsetInCU: 0x23F42, offset: 0x3F295, size: 0x8, addend: 0x0, symName: __ZN11MungeLogger3logIJA21_cEEEvDpRKT_, symObjAddr: 0x40E4, symBinAddr: 0x10000A528, symSize: 0x174 }
  - { offsetInCU: 0x23F9F, offset: 0x3F2F2, size: 0x8, addend: 0x0, symName: __ZNSt3__16vectorI3RowNS_9allocatorIS1_EEED1B8ue170006Ev, symObjAddr: 0x4258, symBinAddr: 0x10000A69C, symSize: 0x2C }
  - { offsetInCU: 0x23FC7, offset: 0x3F31A, size: 0x8, addend: 0x0, symName: __ZN11MungeLoggerD1Ev, symObjAddr: 0x4284, symBinAddr: 0x10000A6C8, symSize: 0x2C }
  - { offsetInCU: 0x2412A, offset: 0x3F47D, size: 0x8, addend: 0x0, symName: __ZN4ArgsD1Ev, symObjAddr: 0x42B0, symBinAddr: 0x10000A6F4, symSize: 0x2C }
  - { offsetInCU: 0x24154, offset: 0x3F4A7, size: 0x8, addend: 0x0, symName: __ZN4ArgsC1Ev, symObjAddr: 0x42E8, symBinAddr: 0x10000A720, symSize: 0x2C }
  - { offsetInCU: 0x24197, offset: 0x3F4EA, size: 0x8, addend: 0x0, symName: '__ZZL10parse_argsiPPcENK3$_2clERiRKNSt3__112basic_stringIcNS3_11char_traitsIcEENS3_9allocatorIcEEEE', symObjAddr: 0x43F4, symBinAddr: 0x10000A74C, symSize: 0xB0 }
  - { offsetInCU: 0x241DB, offset: 0x3F52E, size: 0x8, addend: 0x0, symName: __ZNSt3__112basic_stringIcNS_11char_traitsIcEENS_9allocatorIcEEEaSB8ue170006EOS5_, symObjAddr: 0x44A4, symBinAddr: 0x10000A7FC, symSize: 0x34 }
  - { offsetInCU: 0x2420E, offset: 0x3F561, size: 0x8, addend: 0x0, symName: __ZNSt3__112basic_stringIcNS_11char_traitsIcEENS_9allocatorIcEEE5beginB8ue170006Ev, symObjAddr: 0x44D8, symBinAddr: 0x10000A830, symSize: 0x4C }
  - { offsetInCU: 0x24232, offset: 0x3F585, size: 0x8, addend: 0x0, symName: __ZNSt3__112basic_stringIcNS_11char_traitsIcEENS_9allocatorIcEEE3endB8ue170006Ev, symObjAddr: 0x4524, symBinAddr: 0x10000A87C, symSize: 0x54 }
  - { offsetInCU: 0x24256, offset: 0x3F5A9, size: 0x8, addend: 0x0, symName: __ZNKSt3__111__wrap_iterIPcEdeB8ue170006Ev, symObjAddr: 0x45AC, symBinAddr: 0x10000A904, symSize: 0x18 }
  - { offsetInCU: 0x2427B, offset: 0x3F5CE, size: 0x8, addend: 0x0, symName: __ZNSt3__111__wrap_iterIPcEppB8ue170006Ev, symObjAddr: 0x45E8, symBinAddr: 0x10000A940, symSize: 0x20 }
  - { offsetInCU: 0x242A0, offset: 0x3F5F3, size: 0x8, addend: 0x0, symName: __ZN4ArgsC2Ev, symObjAddr: 0x463C, symBinAddr: 0x10000A994, symSize: 0x10C }
  - { offsetInCU: 0x242CA, offset: 0x3F61D, size: 0x8, addend: 0x0, symName: __ZNSt3__114numeric_limitsIdE9quiet_NaNB8ue170006Ev, symObjAddr: 0x4774, symBinAddr: 0x10000AAA0, symSize: 0x14 }
  - { offsetInCU: 0x242E3, offset: 0x3F636, size: 0x8, addend: 0x0, symName: __ZNSt3__123__libcpp_numeric_limitsIdLb1EE9quiet_NaNB8ue170006Ev, symObjAddr: 0x4940, symBinAddr: 0x10000AAB4, symSize: 0xC }
  - { offsetInCU: 0x242F7, offset: 0x3F64A, size: 0x8, addend: 0x0, symName: __ZNSt3__112basic_stringIcNS_11char_traitsIcEENS_9allocatorIcEEE13__move_assignB8ue170006ERS5_NS_17integral_constantIbLb1EEE, symObjAddr: 0x4B1C, symBinAddr: 0x10000AAC0, symSize: 0xC8 }
  - { offsetInCU: 0x24339, offset: 0x3F68C, size: 0x8, addend: 0x0, symName: __ZNSt3__116allocator_traitsINS_9allocatorIcEEE10deallocateB8ue170006ERS2_Pcm, symObjAddr: 0x4BE4, symBinAddr: 0x10000AB88, symSize: 0x34 }
  - { offsetInCU: 0x2437A, offset: 0x3F6CD, size: 0x8, addend: 0x0, symName: __ZNSt3__112basic_stringIcNS_11char_traitsIcEENS_9allocatorIcEEE7__allocB8ue170006Ev, symObjAddr: 0x4C18, symBinAddr: 0x10000ABBC, symSize: 0x24 }
  - { offsetInCU: 0x2439E, offset: 0x3F6F1, size: 0x8, addend: 0x0, symName: __ZNKSt3__112basic_stringIcNS_11char_traitsIcEENS_9allocatorIcEEE14__get_long_capB8ue170006Ev, symObjAddr: 0x4C64, symBinAddr: 0x10000ABE0, symSize: 0x30 }
  - { offsetInCU: 0x243C2, offset: 0x3F715, size: 0x8, addend: 0x0, symName: __ZNSt3__112basic_stringIcNS_11char_traitsIcEENS_9allocatorIcEEE19__move_assign_allocB8ue170006ERS5_, symObjAddr: 0x4C94, symBinAddr: 0x10000AC10, symSize: 0x2C }
  - { offsetInCU: 0x243F5, offset: 0x3F748, size: 0x8, addend: 0x0, symName: __ZNSt3__19allocatorIcE10deallocateB8ue170006EPcm, symObjAddr: 0x4D84, symBinAddr: 0x10000AC3C, symSize: 0x40 }
  - { offsetInCU: 0x24435, offset: 0x3F788, size: 0x8, addend: 0x0, symName: __ZNSt3__117__compressed_pairINS_12basic_stringIcNS_11char_traitsIcEENS_9allocatorIcEEE5__repES5_E6secondB8ue170006Ev, symObjAddr: 0x4EEC, symBinAddr: 0x10000AC7C, symSize: 0x24 }
  - { offsetInCU: 0x24459, offset: 0x3F7AC, size: 0x8, addend: 0x0, symName: __ZNSt3__122__compressed_pair_elemINS_9allocatorIcEELi1ELb1EE5__getB8ue170006Ev, symObjAddr: 0x4F10, symBinAddr: 0x10000ACA0, symSize: 0x14 }
  - { offsetInCU: 0x2447E, offset: 0x3F7D1, size: 0x8, addend: 0x0, symName: __ZNSt3__112basic_stringIcNS_11char_traitsIcEENS_9allocatorIcEEE19__move_assign_allocB8ue170006ERS5_NS_17integral_constantIbLb1EEE, symObjAddr: 0x4F24, symBinAddr: 0x10000ACB4, symSize: 0x38 }
  - { offsetInCU: 0x244BD, offset: 0x3F810, size: 0x8, addend: 0x0, symName: __ZNSt3__112basic_stringIcNS_11char_traitsIcEENS_9allocatorIcEEE15__make_iteratorB8ue170006EPc, symObjAddr: 0x4F70, symBinAddr: 0x10000ACEC, symSize: 0x30 }
  - { offsetInCU: 0x244F0, offset: 0x3F843, size: 0x8, addend: 0x0, symName: __ZNSt3__111__wrap_iterIPcEC1B8ue170006ES1_, symObjAddr: 0x4FF4, symBinAddr: 0x10000AD1C, symSize: 0x34 }
  - { offsetInCU: 0x24526, offset: 0x3F879, size: 0x8, addend: 0x0, symName: __ZNSt3__111__wrap_iterIPcEC2B8ue170006ES1_, symObjAddr: 0x5028, symBinAddr: 0x10000AD50, symSize: 0x20 }
  - { offsetInCU: 0x2455D, offset: 0x3F8B0, size: 0x8, addend: 0x0, symName: __ZNKSt3__111__wrap_iterIPcE4baseB8ue170006Ev, symObjAddr: 0x5090, symBinAddr: 0x10000ADB8, symSize: 0x18 }
  - { offsetInCU: 0x24582, offset: 0x3F8D5, size: 0x8, addend: 0x0, symName: __ZN11MungeLoggerC2ERKNSt3__112basic_stringIcNS0_11char_traitsIcEENS0_9allocatorIcEEEEb, symObjAddr: 0x50A8, symBinAddr: 0x10000ADD0, symSize: 0x12C }
  - { offsetInCU: 0x245DF, offset: 0x3F932, size: 0x8, addend: 0x0, symName: __ZNSt3__119basic_ostringstreamIcNS_11char_traitsIcEENS_9allocatorIcEEED2Ev, symObjAddr: 0x58A4, symBinAddr: 0x10000AF80, symSize: 0x64 }
  - { offsetInCU: 0x24616, offset: 0x3F969, size: 0x8, addend: 0x0, symName: __ZTv0_n24_NSt3__119basic_ostringstreamIcNS_11char_traitsIcEENS_9allocatorIcEEED1Ev, symObjAddr: 0x5908, symBinAddr: 0x10000AFE4, symSize: 0x28 }
  - { offsetInCU: 0x24631, offset: 0x3F984, size: 0x8, addend: 0x0, symName: __ZNSt3__115basic_stringbufIcNS_11char_traitsIcEENS_9allocatorIcEEED1Ev, symObjAddr: 0x5930, symBinAddr: 0x10000B00C, symSize: 0x2C }
  - { offsetInCU: 0x2465C, offset: 0x3F9AF, size: 0x8, addend: 0x0, symName: __ZNSt3__115basic_stringbufIcNS_11char_traitsIcEENS_9allocatorIcEEED2Ev, symObjAddr: 0x595C, symBinAddr: 0x10000B038, symSize: 0x48 }
  - { offsetInCU: 0x24754, offset: 0x3FAA7, size: 0x8, addend: 0x0, symName: __ZNSt3__113unordered_mapINS_12basic_stringIcNS_11char_traitsIcEENS_9allocatorIcEEEENS_4pairIccEENS_4hashIS6_EENS_8equal_toIS6_EENS4_INS7_IKS6_S8_EEEEEC1B8ue170006Ev, symObjAddr: 0x59A4, symBinAddr: 0x10000B080, symSize: 0x2C }
  - { offsetInCU: 0x24792, offset: 0x3FAE5, size: 0x8, addend: 0x0, symName: __ZN11MungeLogger3logIJA30_cNSt3__112basic_stringIcNS2_11char_traitsIcEENS2_9allocatorIcEEEEEEEvDpRKT_, symObjAddr: 0x59D0, symBinAddr: 0x10000B0AC, symSize: 0x18C }
  - { offsetInCU: 0x24803, offset: 0x3FB56, size: 0x8, addend: 0x0, symName: __ZL18read_merge_allelesRKNSt3__112basic_stringIcNS_11char_traitsIcEENS_9allocatorIcEEEE, symObjAddr: 0x5B5C, symBinAddr: 0x10000B238, symSize: 0x7EC }
  - { offsetInCU: 0x24973, offset: 0x3FCC6, size: 0x8, addend: 0x0, symName: __ZNSt3__113unordered_mapINS_12basic_stringIcNS_11char_traitsIcEENS_9allocatorIcEEEENS_4pairIccEENS_4hashIS6_EENS_8equal_toIS6_EENS4_INS7_IKS6_S8_EEEEEaSEOSG_, symObjAddr: 0x6348, symBinAddr: 0x10000BA24, symSize: 0x34 }
  - { offsetInCU: 0x249A9, offset: 0x3FCFC, size: 0x8, addend: 0x0, symName: __ZNSt3__113unordered_mapINS_12basic_stringIcNS_11char_traitsIcEENS_9allocatorIcEEEENS_4pairIccEENS_4hashIS6_EENS_8equal_toIS6_EENS4_INS7_IKS6_S8_EEEEED1B8ue170006Ev, symObjAddr: 0x637C, symBinAddr: 0x10000BA58, symSize: 0x2C }
  - { offsetInCU: 0x249FD, offset: 0x3FD50, size: 0x8, addend: 0x0, symName: __ZN11MungeLogger3logIJA6_cmA24_cEEEvDpRKT_, symObjAddr: 0x63A8, symBinAddr: 0x10000BA84, symSize: 0x1A8 }
  - { offsetInCU: 0x24A82, offset: 0x3FDD5, size: 0x8, addend: 0x0, symName: __ZNKSt3__113unordered_mapINS_12basic_stringIcNS_11char_traitsIcEENS_9allocatorIcEEEENS_4pairIccEENS_4hashIS6_EENS_8equal_toIS6_EENS4_INS7_IKS6_S8_EEEEE4sizeB8ue170006Ev, symObjAddr: 0x6550, symBinAddr: 0x10000BC2C, symSize: 0x24 }
  - { offsetInCU: 0x24B1F, offset: 0x3FE72, size: 0x8, addend: 0x0, symName: __ZNSt3__114basic_ifstreamIcNS_11char_traitsIcEEEC1ERKNS_12basic_stringIcS2_NS_9allocatorIcEEEEj, symObjAddr: 0x6574, symBinAddr: 0x10000BC50, symSize: 0x16C }
  - { offsetInCU: 0x24B67, offset: 0x3FEBA, size: 0x8, addend: 0x0, symName: __ZL11read_headerRNSt3__114basic_ifstreamIcNS_11char_traitsIcEEEE, symObjAddr: 0x66E0, symBinAddr: 0x10000BDBC, symSize: 0x100 }
  - { offsetInCU: 0x24C4A, offset: 0x3FF9D, size: 0x8, addend: 0x0, symName: __ZNSt3__113unordered_mapINS_12basic_stringIcNS_11char_traitsIcEENS_9allocatorIcEEEEiNS_4hashIS6_EENS_8equal_toIS6_EENS4_INS_4pairIKS6_iEEEEEC1B8ue170006Ev, symObjAddr: 0x67E0, symBinAddr: 0x10000BEBC, symSize: 0x2C }
  - { offsetInCU: 0x24C72, offset: 0x3FFC5, size: 0x8, addend: 0x0, symName: __ZNKSt3__16vectorINS_12basic_stringIcNS_11char_traitsIcEENS_9allocatorIcEEEENS4_IS6_EEE4sizeB8ue170006Ev, symObjAddr: 0x680C, symBinAddr: 0x10000BEE8, symSize: 0x28 }
  - { offsetInCU: 0x24C97, offset: 0x3FFEA, size: 0x8, addend: 0x0, symName: __ZNSt3__113unordered_mapINS_12basic_stringIcNS_11char_traitsIcEENS_9allocatorIcEEEEiNS_4hashIS6_EENS_8equal_toIS6_EENS4_INS_4pairIKS6_iEEEEEixERSC_, symObjAddr: 0x6834, symBinAddr: 0x10000BF10, symSize: 0x80 }
  - { offsetInCU: 0x24CCD, offset: 0x40020, size: 0x8, addend: 0x0, symName: __ZNSt3__16vectorINS_12basic_stringIcNS_11char_traitsIcEENS_9allocatorIcEEEENS4_IS6_EEEixB8ue170006Em, symObjAddr: 0x68B4, symBinAddr: 0x10000BF90, symSize: 0x2C }
  - { offsetInCU: 0x24D0D, offset: 0x40060, size: 0x8, addend: 0x0, symName: '__ZZL16parse_and_filterRK4ArgsR11MungeLoggerENK3$_3clERKNSt3__112basic_stringIcNS5_11char_traitsIcEENS5_9allocatorIcEEEE', symObjAddr: 0x68E0, symBinAddr: 0x10000BFBC, symSize: 0x134 }
  - { offsetInCU: 0x24D53, offset: 0x400A6, size: 0x8, addend: 0x0, symName: __ZNKSt3__113unordered_mapINS_12basic_stringIcNS_11char_traitsIcEENS_9allocatorIcEEEEiNS_4hashIS6_EENS_8equal_toIS6_EENS4_INS_4pairIKS6_iEEEEE5countB8ue170006ERSC_, symObjAddr: 0x6A14, symBinAddr: 0x10000C0F0, symSize: 0x2C }
  - { offsetInCU: 0x24D86, offset: 0x400D9, size: 0x8, addend: 0x0, symName: __ZNSt3__16vectorI3RowNS_9allocatorIS1_EEEC1B8ue170006Ev, symObjAddr: 0x6A40, symBinAddr: 0x10000C11C, symSize: 0x2C }
  - { offsetInCU: 0x24DAE, offset: 0x40101, size: 0x8, addend: 0x0, symName: __ZNSt3__16vectorI3RowNS_9allocatorIS1_EEE7reserveEm, symObjAddr: 0x6A6C, symBinAddr: 0x10000C148, symSize: 0xE8 }
  - { offsetInCU: 0x24E09, offset: 0x4015C, size: 0x8, addend: 0x0, symName: __ZNKSt3__19basic_iosIcNS_11char_traitsIcEEEcvbB8ue170006Ev, symObjAddr: 0x6BB0, symBinAddr: 0x10000C230, symSize: 0x2C }
  - { offsetInCU: 0x24E2D, offset: 0x40180, size: 0x8, addend: 0x0, symName: __ZL8split_wsRKNSt3__112basic_stringIcNS_11char_traitsIcEENS_9allocatorIcEEEE, symObjAddr: 0x6BDC, symBinAddr: 0x10000C25C, symSize: 0x144 }
  - { offsetInCU: 0x24E8A, offset: 0x401DD, size: 0x8, addend: 0x0, symName: __ZN3RowC1Ev, symObjAddr: 0x6D70, symBinAddr: 0x10000C3F0, symSize: 0x2C }
  - { offsetInCU: 0x24EB4, offset: 0x40207, size: 0x8, addend: 0x0, symName: __ZNKSt3__113unordered_mapINS_12basic_stringIcNS_11char_traitsIcEENS_9allocatorIcEEEENS_4pairIccEENS_4hashIS6_EENS_8equal_toIS6_EENS4_INS7_IKS6_S8_EEEEE5emptyB8ue170006Ev, symObjAddr: 0x6D9C, symBinAddr: 0x10000C41C, symSize: 0x30 }
  - { offsetInCU: 0x24ED8, offset: 0x4022B, size: 0x8, addend: 0x0, symName: __ZNKSt3__113unordered_mapINS_12basic_stringIcNS_11char_traitsIcEENS_9allocatorIcEEEENS_4pairIccEENS_4hashIS6_EENS_8equal_toIS6_EENS4_INS7_IKS6_S8_EEEEE5countB8ue170006ERSD_, symObjAddr: 0x6DCC, symBinAddr: 0x10000C44C, symSize: 0x2C }
  - { offsetInCU: 0x24F0B, offset: 0x4025E, size: 0x8, addend: 0x0, symName: __ZL19sanitize_p_countingd, symObjAddr: 0x6DF8, symBinAddr: 0x10000C478, symSize: 0xBC }
  - { offsetInCU: 0x24F38, offset: 0x4028B, size: 0x8, addend: 0x0, symName: __ZL12keep_allelesRKNSt3__112basic_stringIcNS_11char_traitsIcEENS_9allocatorIcEEEES7_, symObjAddr: 0x6ED8, symBinAddr: 0x10000C558, symSize: 0x104 }
  - { offsetInCU: 0x24F73, offset: 0x402C6, size: 0x8, addend: 0x0, symName: __ZNSt3__113unordered_mapINS_12basic_stringIcNS_11char_traitsIcEENS_9allocatorIcEEEENS_4pairIccEENS_4hashIS6_EENS_8equal_toIS6_EENS4_INS7_IKS6_S8_EEEEE4findB8ue170006ERSD_, symObjAddr: 0x6FDC, symBinAddr: 0x10000C65C, symSize: 0x40 }
  - { offsetInCU: 0x24FA6, offset: 0x402F9, size: 0x8, addend: 0x0, symName: __ZNSt3__113unordered_mapINS_12basic_stringIcNS_11char_traitsIcEENS_9allocatorIcEEEENS_4pairIccEENS_4hashIS6_EENS_8equal_toIS6_EENS4_INS7_IKS6_S8_EEEEE3endB8ue170006Ev, symObjAddr: 0x704C, symBinAddr: 0x10000C6CC, symSize: 0x38 }
  - { offsetInCU: 0x24FCA, offset: 0x4031D, size: 0x8, addend: 0x0, symName: __ZNKSt3__119__hash_map_iteratorINS_15__hash_iteratorIPNS_11__hash_nodeINS_17__hash_value_typeINS_12basic_stringIcNS_11char_traitsIcEENS_9allocatorIcEEEENS_4pairIccEEEEPvEEEEEptB8ue170006Ev, symObjAddr: 0x7084, symBinAddr: 0x10000C704, symSize: 0x2C }
  - { offsetInCU: 0x24FEE, offset: 0x40341, size: 0x8, addend: 0x0, symName: __ZL13alleles_matchcccc, symObjAddr: 0x70B0, symBinAddr: 0x10000C730, symSize: 0x208 }
  - { offsetInCU: 0x25045, offset: 0x40398, size: 0x8, addend: 0x0, symName: __ZNSt3__112basic_stringIcNS_11char_traitsIcEENS_9allocatorIcEEEixB8ue170006Em, symObjAddr: 0x72B8, symBinAddr: 0x10000C938, symSize: 0x30 }
  - { offsetInCU: 0x25078, offset: 0x403CB, size: 0x8, addend: 0x0, symName: __ZL9pass_infodd, symObjAddr: 0x72E8, symBinAddr: 0x10000C968, symSize: 0xAC }
  - { offsetInCU: 0x250B3, offset: 0x40406, size: 0x8, addend: 0x0, symName: __ZL8pass_mafRdd, symObjAddr: 0x7394, symBinAddr: 0x10000CA14, symSize: 0xE8 }
  - { offsetInCU: 0x250EE, offset: 0x40441, size: 0x8, addend: 0x0, symName: __ZNSt3__16vectorI3RowNS_9allocatorIS1_EEE9push_backB8ue170006EOS1_, symObjAddr: 0x747C, symBinAddr: 0x10000CAFC, symSize: 0x6C }
  - { offsetInCU: 0x25124, offset: 0x40477, size: 0x8, addend: 0x0, symName: __ZN3RowD1Ev, symObjAddr: 0x74E8, symBinAddr: 0x10000CB68, symSize: 0x2C }
  - { offsetInCU: 0x2514E, offset: 0x404A1, size: 0x8, addend: 0x0, symName: __ZNSt3__16vectorINS_12basic_stringIcNS_11char_traitsIcEENS_9allocatorIcEEEENS4_IS6_EEED1B8ue170006Ev, symObjAddr: 0x7514, symBinAddr: 0x10000CB94, symSize: 0x2C }
  - { offsetInCU: 0x25176, offset: 0x404C9, size: 0x8, addend: 0x0, symName: __ZNKSt3__16vectorI3RowNS_9allocatorIS1_EEE4sizeB8ue170006Ev, symObjAddr: 0x7540, symBinAddr: 0x10000CBC0, symSize: 0x28 }
  - { offsetInCU: 0x251C5, offset: 0x40518, size: 0x8, addend: 0x0, symName: __ZN11MungeLogger3logIJA21_cyA8_cyA5_cEEEvDpRKT_, symObjAddr: 0x7568, symBinAddr: 0x10000CBE8, symSize: 0x1DC }
  - { offsetInCU: 0x2538F, offset: 0x406E2, size: 0x8, addend: 0x0, symName: __ZNSt3__113unordered_setINS_12basic_stringIcNS_11char_traitsIcEENS_9allocatorIcEEEENS_4hashIS6_EENS_8equal_toIS6_EENS4_IS6_EEEC1B8ue170006Ev, symObjAddr: 0x7744, symBinAddr: 0x10000CDC4, symSize: 0x2C }
  - { offsetInCU: 0x253B7, offset: 0x4070A, size: 0x8, addend: 0x0, symName: __ZNSt3__113unordered_setINS_12basic_stringIcNS_11char_traitsIcEENS_9allocatorIcEEEENS_4hashIS6_EENS_8equal_toIS6_EENS4_IS6_EEE7reserveB8ue170006Em, symObjAddr: 0x7770, symBinAddr: 0x10000CDF0, symSize: 0x2C }
  - { offsetInCU: 0x253EA, offset: 0x4073D, size: 0x8, addend: 0x0, symName: __ZNSt3__16vectorI3RowNS_9allocatorIS1_EEE5beginB8ue170006Ev, symObjAddr: 0x779C, symBinAddr: 0x10000CE1C, symSize: 0x30 }
  - { offsetInCU: 0x25411, offset: 0x40764, size: 0x8, addend: 0x0, symName: __ZNSt3__16vectorI3RowNS_9allocatorIS1_EEE3endB8ue170006Ev, symObjAddr: 0x77CC, symBinAddr: 0x10000CE4C, symSize: 0x30 }
  - { offsetInCU: 0x25438, offset: 0x4078B, size: 0x8, addend: 0x0, symName: __ZNKSt3__111__wrap_iterIP3RowEdeB8ue170006Ev, symObjAddr: 0x7830, symBinAddr: 0x10000CEB0, symSize: 0x18 }
  - { offsetInCU: 0x2545D, offset: 0x407B0, size: 0x8, addend: 0x0, symName: __ZNSt3__113unordered_setINS_12basic_stringIcNS_11char_traitsIcEENS_9allocatorIcEEEENS_4hashIS6_EENS_8equal_toIS6_EENS4_IS6_EEE6insertB8ue170006ERKS6_, symObjAddr: 0x7848, symBinAddr: 0x10000CEC8, symSize: 0x4C }
  - { offsetInCU: 0x25490, offset: 0x407E3, size: 0x8, addend: 0x0, symName: __ZNSt3__111__wrap_iterIP3RowEppB8ue170006Ev, symObjAddr: 0x7894, symBinAddr: 0x10000CF14, symSize: 0x20 }
  - { offsetInCU: 0x254B5, offset: 0x40808, size: 0x8, addend: 0x0, symName: __ZNSt3__16vectorI3RowNS_9allocatorIS1_EEE4swapERS4_, symObjAddr: 0x78B4, symBinAddr: 0x10000CF34, symSize: 0x84 }
  - { offsetInCU: 0x2552D, offset: 0x40880, size: 0x8, addend: 0x0, symName: __ZN11MungeLogger3logIJA9_cmA35_cmA15_cEEEvDpRKT_, symObjAddr: 0x7938, symBinAddr: 0x10000CFB8, symSize: 0x1DC }
  - { offsetInCU: 0x255DA, offset: 0x4092D, size: 0x8, addend: 0x0, symName: __ZNSt3__113unordered_setINS_12basic_stringIcNS_11char_traitsIcEENS_9allocatorIcEEEENS_4hashIS6_EENS_8equal_toIS6_EENS4_IS6_EEED1B8ue170006Ev, symObjAddr: 0x7B14, symBinAddr: 0x10000D194, symSize: 0x2C }
  - { offsetInCU: 0x25602, offset: 0x40955, size: 0x8, addend: 0x0, symName: __ZNSt3__113unordered_mapINS_12basic_stringIcNS_11char_traitsIcEENS_9allocatorIcEEEEiNS_4hashIS6_EENS_8equal_toIS6_EENS4_INS_4pairIKS6_iEEEEED1B8ue170006Ev, symObjAddr: 0x7B40, symBinAddr: 0x10000D1C0, symSize: 0x2C }
  - { offsetInCU: 0x2562F, offset: 0x40982, size: 0x8, addend: 0x0, symName: __ZNSt3__114basic_ifstreamIcNS_11char_traitsIcEEED1Ev, symObjAddr: 0x7B6C, symBinAddr: 0x10000D1EC, symSize: 0x40 }
  - { offsetInCU: 0x2565A, offset: 0x409AD, size: 0x8, addend: 0x0, symName: __ZNSt3__113unordered_mapINS_12basic_stringIcNS_11char_traitsIcEENS_9allocatorIcEEEENS_4pairIccEENS_4hashIS6_EENS_8equal_toIS6_EENS4_INS7_IKS6_S8_EEEEEC2B8ue170006Ev, symObjAddr: 0x7BAC, symBinAddr: 0x10000D22C, symSize: 0x2C }
  - { offsetInCU: 0x25682, offset: 0x409D5, size: 0x8, addend: 0x0, symName: __ZNSt3__112__hash_tableINS_17__hash_value_typeINS_12basic_stringIcNS_11char_traitsIcEENS_9allocatorIcEEEENS_4pairIccEEEENS_22__unordered_map_hasherIS7_SA_NS_4hashIS7_EENS_8equal_toIS7_EELb1EEENS_21__unordered_map_equalIS7_SA_SF_SD_Lb1EEENS5_ISA_EEEC1Ev, symObjAddr: 0x7BD8, symBinAddr: 0x10000D258, symSize: 0x2C }
  - { offsetInCU: 0x256AC, offset: 0x409FF, size: 0x8, addend: 0x0, symName: __ZNSt3__112__hash_tableINS_17__hash_value_typeINS_12basic_stringIcNS_11char_traitsIcEENS_9allocatorIcEEEENS_4pairIccEEEENS_22__unordered_map_hasherIS7_SA_NS_4hashIS7_EENS_8equal_toIS7_EELb1EEENS_21__unordered_map_equalIS7_SA_SF_SD_Lb1EEENS5_ISA_EEEC2Ev, symObjAddr: 0x7C04, symBinAddr: 0x10000D284, symSize: 0x7C }
  - { offsetInCU: 0x256D6, offset: 0x40A29, size: 0x8, addend: 0x0, symName: __ZNSt3__110unique_ptrIA_PNS_16__hash_node_baseIPNS_11__hash_nodeINS_17__hash_value_typeINS_12basic_stringIcNS_11char_traitsIcEENS_9allocatorIcEEEENS_4pairIccEEEEPvEEEENS_25__bucket_list_deallocatorINS7_ISH_EEEEEC1B8ue170006ILb1EvEEv, symObjAddr: 0x7C80, symBinAddr: 0x10000D300, symSize: 0x2C }
  - { offsetInCU: 0x2570A, offset: 0x40A5D, size: 0x8, addend: 0x0, symName: __ZNSt3__117__compressed_pairINS_16__hash_node_baseIPNS_11__hash_nodeINS_17__hash_value_typeINS_12basic_stringIcNS_11char_traitsIcEENS_9allocatorIcEEEENS_4pairIccEEEEPvEEEENS7_ISE_EEEC1B8ue170006ILb1EvEEv, symObjAddr: 0x7CAC, symBinAddr: 0x10000D32C, symSize: 0x2C }
  - { offsetInCU: 0x25743, offset: 0x40A96, size: 0x8, addend: 0x0, symName: __ZNSt3__117__compressed_pairImNS_22__unordered_map_hasherINS_12basic_stringIcNS_11char_traitsIcEENS_9allocatorIcEEEENS_17__hash_value_typeIS7_NS_4pairIccEEEENS_4hashIS7_EENS_8equal_toIS7_EELb1EEEEC1B8ue170006IiNS_18__default_init_tagEEEOT_OT0_, symObjAddr: 0x7CD8, symBinAddr: 0x10000D358, symSize: 0x3C }
  - { offsetInCU: 0x2579E, offset: 0x40AF1, size: 0x8, addend: 0x0, symName: __ZNSt3__117__compressed_pairIfNS_21__unordered_map_equalINS_12basic_stringIcNS_11char_traitsIcEENS_9allocatorIcEEEENS_17__hash_value_typeIS7_NS_4pairIccEEEENS_8equal_toIS7_EENS_4hashIS7_EELb1EEEEC1B8ue170006IfNS_18__default_init_tagEEEOT_OT0_, symObjAddr: 0x7D14, symBinAddr: 0x10000D394, symSize: 0x3C }
  - { offsetInCU: 0x257F4, offset: 0x40B47, size: 0x8, addend: 0x0, symName: __ZNSt3__110unique_ptrIA_PNS_16__hash_node_baseIPNS_11__hash_nodeINS_17__hash_value_typeINS_12basic_stringIcNS_11char_traitsIcEENS_9allocatorIcEEEENS_4pairIccEEEEPvEEEENS_25__bucket_list_deallocatorINS7_ISH_EEEEEC2B8ue170006ILb1EvEEv, symObjAddr: 0x7D50, symBinAddr: 0x10000D3D0, symSize: 0x3C }
  - { offsetInCU: 0x2582D, offset: 0x40B80, size: 0x8, addend: 0x0, symName: __ZNSt3__117__compressed_pairIPPNS_16__hash_node_baseIPNS_11__hash_nodeINS_17__hash_value_typeINS_12basic_stringIcNS_11char_traitsIcEENS_9allocatorIcEEEENS_4pairIccEEEEPvEEEENS_25__bucket_list_deallocatorINS7_ISH_EEEEEC1B8ue170006INS_16__value_init_tagESO_EEOT_OT0_, symObjAddr: 0x7D8C, symBinAddr: 0x10000D40C, symSize: 0x3C }
  - { offsetInCU: 0x25883, offset: 0x40BD6, size: 0x8, addend: 0x0, symName: __ZNSt3__117__compressed_pairIPPNS_16__hash_node_baseIPNS_11__hash_nodeINS_17__hash_value_typeINS_12basic_stringIcNS_11char_traitsIcEENS_9allocatorIcEEEENS_4pairIccEEEEPvEEEENS_25__bucket_list_deallocatorINS7_ISH_EEEEEC2B8ue170006INS_16__value_init_tagESO_EEOT_OT0_, symObjAddr: 0x7DC8, symBinAddr: 0x10000D448, symSize: 0x40 }
  - { offsetInCU: 0x258D9, offset: 0x40C2C, size: 0x8, addend: 0x0, symName: __ZNSt3__122__compressed_pair_elemIPPNS_16__hash_node_baseIPNS_11__hash_nodeINS_17__hash_value_typeINS_12basic_stringIcNS_11char_traitsIcEENS_9allocatorIcEEEENS_4pairIccEEEEPvEEEELi0ELb0EEC2B8ue170006ENS_16__value_init_tagE, symObjAddr: 0x7E08, symBinAddr: 0x10000D488, symSize: 0x18 }
  - { offsetInCU: 0x2590D, offset: 0x40C60, size: 0x8, addend: 0x0, symName: __ZNSt3__122__compressed_pair_elemINS_25__bucket_list_deallocatorINS_9allocatorIPNS_16__hash_node_baseIPNS_11__hash_nodeINS_17__hash_value_typeINS_12basic_stringIcNS_11char_traitsIcEENS2_IcEEEENS_4pairIccEEEEPvEEEEEEEELi1ELb0EEC2B8ue170006ENS_16__value_init_tagE, symObjAddr: 0x7E20, symBinAddr: 0x10000D4A0, symSize: 0x2C }
  - { offsetInCU: 0x25940, offset: 0x40C93, size: 0x8, addend: 0x0, symName: __ZNSt3__125__bucket_list_deallocatorINS_9allocatorIPNS_16__hash_node_baseIPNS_11__hash_nodeINS_17__hash_value_typeINS_12basic_stringIcNS_11char_traitsIcEENS1_IcEEEENS_4pairIccEEEEPvEEEEEEEC1B8ue170006Ev, symObjAddr: 0x7E4C, symBinAddr: 0x10000D4CC, symSize: 0x2C }
  - { offsetInCU: 0x25968, offset: 0x40CBB, size: 0x8, addend: 0x0, symName: __ZNSt3__125__bucket_list_deallocatorINS_9allocatorIPNS_16__hash_node_baseIPNS_11__hash_nodeINS_17__hash_value_typeINS_12basic_stringIcNS_11char_traitsIcEENS1_IcEEEENS_4pairIccEEEEPvEEEEEEEC2B8ue170006Ev, symObjAddr: 0x7E78, symBinAddr: 0x10000D4F8, symSize: 0x40 }
  - { offsetInCU: 0x25990, offset: 0x40CE3, size: 0x8, addend: 0x0, symName: __ZNSt3__117__compressed_pairImNS_9allocatorIPNS_16__hash_node_baseIPNS_11__hash_nodeINS_17__hash_value_typeINS_12basic_stringIcNS_11char_traitsIcEENS1_IcEEEENS_4pairIccEEEEPvEEEEEEEC1B8ue170006IiNS_18__default_init_tagEEEOT_OT0_, symObjAddr: 0x7EB8, symBinAddr: 0x10000D538, symSize: 0x3C }
  - { offsetInCU: 0x259E6, offset: 0x40D39, size: 0x8, addend: 0x0, symName: __ZNSt3__117__compressed_pairImNS_9allocatorIPNS_16__hash_node_baseIPNS_11__hash_nodeINS_17__hash_value_typeINS_12basic_stringIcNS_11char_traitsIcEENS1_IcEEEENS_4pairIccEEEEPvEEEEEEEC2B8ue170006IiNS_18__default_init_tagEEEOT_OT0_, symObjAddr: 0x7EF4, symBinAddr: 0x10000D574, symSize: 0x40 }
  - { offsetInCU: 0x25A3C, offset: 0x40D8F, size: 0x8, addend: 0x0, symName: __ZNSt3__122__compressed_pair_elemImLi0ELb0EEC2B8ue170006IivEEOT_, symObjAddr: 0x7F34, symBinAddr: 0x10000D5B4, symSize: 0x24 }
  - { offsetInCU: 0x25A7E, offset: 0x40DD1, size: 0x8, addend: 0x0, symName: __ZNSt3__122__compressed_pair_elemINS_9allocatorIPNS_16__hash_node_baseIPNS_11__hash_nodeINS_17__hash_value_typeINS_12basic_stringIcNS_11char_traitsIcEENS1_IcEEEENS_4pairIccEEEEPvEEEEEELi1ELb1EEC2B8ue170006ENS_18__default_init_tagE, symObjAddr: 0x7F58, symBinAddr: 0x10000D5D8, symSize: 0x2C }
  - { offsetInCU: 0x25AB1, offset: 0x40E04, size: 0x8, addend: 0x0, symName: __ZNSt3__19allocatorIPNS_16__hash_node_baseIPNS_11__hash_nodeINS_17__hash_value_typeINS_12basic_stringIcNS_11char_traitsIcEENS0_IcEEEENS_4pairIccEEEEPvEEEEEC2B8ue170006Ev, symObjAddr: 0x7F84, symBinAddr: 0x10000D604, symSize: 0x2C }
  - { offsetInCU: 0x25AD9, offset: 0x40E2C, size: 0x8, addend: 0x0, symName: __ZNSt3__116__non_trivial_ifILb1ENS_9allocatorIPNS_16__hash_node_baseIPNS_11__hash_nodeINS_17__hash_value_typeINS_12basic_stringIcNS_11char_traitsIcEENS1_IcEEEENS_4pairIccEEEEPvEEEEEEEC2B8ue170006Ev, symObjAddr: 0x7FB0, symBinAddr: 0x10000D630, symSize: 0x14 }
  - { offsetInCU: 0x25B02, offset: 0x40E55, size: 0x8, addend: 0x0, symName: __ZNSt3__117__compressed_pairINS_16__hash_node_baseIPNS_11__hash_nodeINS_17__hash_value_typeINS_12basic_stringIcNS_11char_traitsIcEENS_9allocatorIcEEEENS_4pairIccEEEEPvEEEENS7_ISE_EEEC2B8ue170006ILb1EvEEv, symObjAddr: 0x7FC4, symBinAddr: 0x10000D644, symSize: 0x34 }
  - { offsetInCU: 0x25B36, offset: 0x40E89, size: 0x8, addend: 0x0, symName: __ZNSt3__122__compressed_pair_elemINS_16__hash_node_baseIPNS_11__hash_nodeINS_17__hash_value_typeINS_12basic_stringIcNS_11char_traitsIcEENS_9allocatorIcEEEENS_4pairIccEEEEPvEEEELi0ELb0EEC2B8ue170006ENS_16__value_init_tagE, symObjAddr: 0x7FF8, symBinAddr: 0x10000D678, symSize: 0x2C }
  - { offsetInCU: 0x25B69, offset: 0x40EBC, size: 0x8, addend: 0x0, symName: __ZNSt3__122__compressed_pair_elemINS_9allocatorINS_11__hash_nodeINS_17__hash_value_typeINS_12basic_stringIcNS_11char_traitsIcEENS1_IcEEEENS_4pairIccEEEEPvEEEELi1ELb1EEC2B8ue170006ENS_16__value_init_tagE, symObjAddr: 0x8024, symBinAddr: 0x10000D6A4, symSize: 0x2C }
  - { offsetInCU: 0x25B9C, offset: 0x40EEF, size: 0x8, addend: 0x0, symName: __ZNSt3__116__hash_node_baseIPNS_11__hash_nodeINS_17__hash_value_typeINS_12basic_stringIcNS_11char_traitsIcEENS_9allocatorIcEEEENS_4pairIccEEEEPvEEEC1B8ue170006Ev, symObjAddr: 0x8050, symBinAddr: 0x10000D6D0, symSize: 0x2C }
  - { offsetInCU: 0x25BC4, offset: 0x40F17, size: 0x8, addend: 0x0, symName: __ZNSt3__116__hash_node_baseIPNS_11__hash_nodeINS_17__hash_value_typeINS_12basic_stringIcNS_11char_traitsIcEENS_9allocatorIcEEEENS_4pairIccEEEEPvEEEC2B8ue170006Ev, symObjAddr: 0x807C, symBinAddr: 0x10000D6FC, symSize: 0x18 }
  - { offsetInCU: 0x25BED, offset: 0x40F40, size: 0x8, addend: 0x0, symName: __ZNSt3__19allocatorINS_11__hash_nodeINS_17__hash_value_typeINS_12basic_stringIcNS_11char_traitsIcEENS0_IcEEEENS_4pairIccEEEEPvEEEC2B8ue170006Ev, symObjAddr: 0x8094, symBinAddr: 0x10000D714, symSize: 0x2C }
  - { offsetInCU: 0x25C15, offset: 0x40F68, size: 0x8, addend: 0x0, symName: __ZNSt3__116__non_trivial_ifILb1ENS_9allocatorINS_11__hash_nodeINS_17__hash_value_typeINS_12basic_stringIcNS_11char_traitsIcEENS1_IcEEEENS_4pairIccEEEEPvEEEEEC2B8ue170006Ev, symObjAddr: 0x80C0, symBinAddr: 0x10000D740, symSize: 0x14 }
  - { offsetInCU: 0x25C3E, offset: 0x40F91, size: 0x8, addend: 0x0, symName: __ZNSt3__117__compressed_pairImNS_22__unordered_map_hasherINS_12basic_stringIcNS_11char_traitsIcEENS_9allocatorIcEEEENS_17__hash_value_typeIS7_NS_4pairIccEEEENS_4hashIS7_EENS_8equal_toIS7_EELb1EEEEC2B8ue170006IiNS_18__default_init_tagEEEOT_OT0_, symObjAddr: 0x80D4, symBinAddr: 0x10000D754, symSize: 0x40 }
  - { offsetInCU: 0x25C94, offset: 0x40FE7, size: 0x8, addend: 0x0, symName: __ZNSt3__122__compressed_pair_elemINS_22__unordered_map_hasherINS_12basic_stringIcNS_11char_traitsIcEENS_9allocatorIcEEEENS_17__hash_value_typeIS7_NS_4pairIccEEEENS_4hashIS7_EENS_8equal_toIS7_EELb1EEELi1ELb1EEC2B8ue170006ENS_18__default_init_tagE, symObjAddr: 0x8114, symBinAddr: 0x10000D794, symSize: 0x2C }
  - { offsetInCU: 0x25CC7, offset: 0x4101A, size: 0x8, addend: 0x0, symName: __ZNSt3__122__unordered_map_hasherINS_12basic_stringIcNS_11char_traitsIcEENS_9allocatorIcEEEENS_17__hash_value_typeIS6_NS_4pairIccEEEENS_4hashIS6_EENS_8equal_toIS6_EELb1EEC2B8ue170006Ev, symObjAddr: 0x8140, symBinAddr: 0x10000D7C0, symSize: 0x14 }
  - { offsetInCU: 0x25CF0, offset: 0x41043, size: 0x8, addend: 0x0, symName: __ZNSt3__117__compressed_pairIfNS_21__unordered_map_equalINS_12basic_stringIcNS_11char_traitsIcEENS_9allocatorIcEEEENS_17__hash_value_typeIS7_NS_4pairIccEEEENS_8equal_toIS7_EENS_4hashIS7_EELb1EEEEC2B8ue170006IfNS_18__default_init_tagEEEOT_OT0_, symObjAddr: 0x8154, symBinAddr: 0x10000D7D4, symSize: 0x40 }
  - { offsetInCU: 0x25D46, offset: 0x41099, size: 0x8, addend: 0x0, symName: __ZNSt3__122__compressed_pair_elemIfLi0ELb0EEC2B8ue170006IfvEEOT_, symObjAddr: 0x8194, symBinAddr: 0x10000D814, symSize: 0x24 }
  - { offsetInCU: 0x25D88, offset: 0x410DB, size: 0x8, addend: 0x0, symName: __ZNSt3__122__compressed_pair_elemINS_21__unordered_map_equalINS_12basic_stringIcNS_11char_traitsIcEENS_9allocatorIcEEEENS_17__hash_value_typeIS7_NS_4pairIccEEEENS_8equal_toIS7_EENS_4hashIS7_EELb1EEELi1ELb1EEC2B8ue170006ENS_18__default_init_tagE, symObjAddr: 0x81B8, symBinAddr: 0x10000D838, symSize: 0x2C }
  - { offsetInCU: 0x25DBB, offset: 0x4110E, size: 0x8, addend: 0x0, symName: __ZNSt3__121__unordered_map_equalINS_12basic_stringIcNS_11char_traitsIcEENS_9allocatorIcEEEENS_17__hash_value_typeIS6_NS_4pairIccEEEENS_8equal_toIS6_EENS_4hashIS6_EELb1EEC2B8ue170006Ev, symObjAddr: 0x81E4, symBinAddr: 0x10000D864, symSize: 0x14 }
  - { offsetInCU: 0x25E07, offset: 0x4115A, size: 0x8, addend: 0x0, symName: __ZNSt3__113unordered_mapINS_12basic_stringIcNS_11char_traitsIcEENS_9allocatorIcEEEENS_4pairIccEENS_4hashIS6_EENS_8equal_toIS6_EENS4_INS7_IKS6_S8_EEEEE7reserveB8ue170006Em, symObjAddr: 0x8A2C, symBinAddr: 0x10000D8AC, symSize: 0x2C }
  - { offsetInCU: 0x25E3A, offset: 0x4118D, size: 0x8, addend: 0x0, symName: __ZL13is_valid_basec, symObjAddr: 0x8A84, symBinAddr: 0x10000D904, symSize: 0x98 }
  - { offsetInCU: 0x25E67, offset: 0x411BA, size: 0x8, addend: 0x0, symName: __ZNSt3__113unordered_mapINS_12basic_stringIcNS_11char_traitsIcEENS_9allocatorIcEEEENS_4pairIccEENS_4hashIS6_EENS_8equal_toIS6_EENS4_INS7_IKS6_S8_EEEEE7emplaceB8ue170006IJRS6_S8_EEENS7_INS_19__hash_map_iteratorINS_15__hash_iteratorIPNS_11__hash_nodeINS_17__hash_value_typeIS6_S8_EEPvEEEEEEbEEDpOT_, symObjAddr: 0x8B1C, symBinAddr: 0x10000D99C, symSize: 0x54 }
  - { offsetInCU: 0x25EBC, offset: 0x4120F, size: 0x8, addend: 0x0, symName: __ZNSt3__112__hash_tableINS_17__hash_value_typeINS_12basic_stringIcNS_11char_traitsIcEENS_9allocatorIcEEEENS_4pairIccEEEENS_22__unordered_map_hasherIS7_SA_NS_4hashIS7_EENS_8equal_toIS7_EELb1EEENS_21__unordered_map_equalIS7_SA_SF_SD_Lb1EEENS5_ISA_EEE16__reserve_uniqueB8ue170006Em, symObjAddr: 0x8BA4, symBinAddr: 0x10000DA24, symSize: 0x58 }
  - { offsetInCU: 0x25EEF, offset: 0x41242, size: 0x8, addend: 0x0, symName: __ZNSt3__112__hash_tableINS_17__hash_value_typeINS_12basic_stringIcNS_11char_traitsIcEENS_9allocatorIcEEEENS_4pairIccEEEENS_22__unordered_map_hasherIS7_SA_NS_4hashIS7_EENS_8equal_toIS7_EELb1EEENS_21__unordered_map_equalIS7_SA_SF_SD_Lb1EEENS5_ISA_EEE15__rehash_uniqueB8ue170006Em, symObjAddr: 0x8BFC, symBinAddr: 0x10000DA7C, symSize: 0x2C }
  - { offsetInCU: 0x25F21, offset: 0x41274, size: 0x8, addend: 0x0, symName: __Z4ceilB8ue170006f, symObjAddr: 0x8C28, symBinAddr: 0x10000DAA8, symSize: 0x18 }
  - { offsetInCU: 0x25F51, offset: 0x412A4, size: 0x8, addend: 0x0, symName: __ZNSt3__112__hash_tableINS_17__hash_value_typeINS_12basic_stringIcNS_11char_traitsIcEENS_9allocatorIcEEEENS_4pairIccEEEENS_22__unordered_map_hasherIS7_SA_NS_4hashIS7_EENS_8equal_toIS7_EELb1EEENS_21__unordered_map_equalIS7_SA_SF_SD_Lb1EEENS5_ISA_EEE15max_load_factorB8ue170006Ev, symObjAddr: 0x8C40, symBinAddr: 0x10000DAC0, symSize: 0x28 }
  - { offsetInCU: 0x25F75, offset: 0x412C8, size: 0x8, addend: 0x0, symName: __ZNSt3__112__hash_tableINS_17__hash_value_typeINS_12basic_stringIcNS_11char_traitsIcEENS_9allocatorIcEEEENS_4pairIccEEEENS_22__unordered_map_hasherIS7_SA_NS_4hashIS7_EENS_8equal_toIS7_EELb1EEENS_21__unordered_map_equalIS7_SA_SF_SD_Lb1EEENS5_ISA_EEE8__rehashILb1EEEvm, symObjAddr: 0x8C68, symBinAddr: 0x10000DAE8, symSize: 0x1A8 }
  - { offsetInCU: 0x25FC4, offset: 0x41317, size: 0x8, addend: 0x0, symName: __ZNKSt3__112__hash_tableINS_17__hash_value_typeINS_12basic_stringIcNS_11char_traitsIcEENS_9allocatorIcEEEENS_4pairIccEEEENS_22__unordered_map_hasherIS7_SA_NS_4hashIS7_EENS_8equal_toIS7_EELb1EEENS_21__unordered_map_equalIS7_SA_SF_SD_Lb1EEENS5_ISA_EEE12bucket_countB8ue170006Ev, symObjAddr: 0x8E10, symBinAddr: 0x10000DC90, symSize: 0x28 }
  - { offsetInCU: 0x25FE8, offset: 0x4133B, size: 0x8, addend: 0x0, symName: __ZNSt3__112__hash_tableINS_17__hash_value_typeINS_12basic_stringIcNS_11char_traitsIcEENS_9allocatorIcEEEENS_4pairIccEEEENS_22__unordered_map_hasherIS7_SA_NS_4hashIS7_EENS_8equal_toIS7_EELb1EEENS_21__unordered_map_equalIS7_SA_SF_SD_Lb1EEENS5_ISA_EEE11__do_rehashILb1EEEvm, symObjAddr: 0x8E38, symBinAddr: 0x10000DCB8, symSize: 0x288 }
  - { offsetInCU: 0x260CE, offset: 0x41421, size: 0x8, addend: 0x0, symName: __ZNSt3__112__hash_tableINS_17__hash_value_typeINS_12basic_stringIcNS_11char_traitsIcEENS_9allocatorIcEEEENS_4pairIccEEEENS_22__unordered_map_hasherIS7_SA_NS_4hashIS7_EENS_8equal_toIS7_EELb1EEENS_21__unordered_map_equalIS7_SA_SF_SD_Lb1EEENS5_ISA_EEE4sizeB8ue170006Ev, symObjAddr: 0x91A8, symBinAddr: 0x10000DFFC, symSize: 0x28 }
  - { offsetInCU: 0x260F2, offset: 0x41445, size: 0x8, addend: 0x0, symName: __ZNKSt3__110unique_ptrIA_PNS_16__hash_node_baseIPNS_11__hash_nodeINS_17__hash_value_typeINS_12basic_stringIcNS_11char_traitsIcEENS_9allocatorIcEEEENS_4pairIccEEEEPvEEEENS_25__bucket_list_deallocatorINS7_ISH_EEEEE11get_deleterB8ue170006Ev, symObjAddr: 0x91D0, symBinAddr: 0x10000E024, symSize: 0x24 }
  - { offsetInCU: 0x26116, offset: 0x41469, size: 0x8, addend: 0x0, symName: __ZNKSt3__125__bucket_list_deallocatorINS_9allocatorIPNS_16__hash_node_baseIPNS_11__hash_nodeINS_17__hash_value_typeINS_12basic_stringIcNS_11char_traitsIcEENS1_IcEEEENS_4pairIccEEEEPvEEEEEEE4sizeB8ue170006Ev, symObjAddr: 0x91F4, symBinAddr: 0x10000E048, symSize: 0x28 }
  - { offsetInCU: 0x2613A, offset: 0x4148D, size: 0x8, addend: 0x0, symName: __ZNKSt3__117__compressed_pairIPPNS_16__hash_node_baseIPNS_11__hash_nodeINS_17__hash_value_typeINS_12basic_stringIcNS_11char_traitsIcEENS_9allocatorIcEEEENS_4pairIccEEEEPvEEEENS_25__bucket_list_deallocatorINS7_ISH_EEEEE6secondB8ue170006Ev, symObjAddr: 0x921C, symBinAddr: 0x10000E070, symSize: 0x28 }
  - { offsetInCU: 0x2615E, offset: 0x414B1, size: 0x8, addend: 0x0, symName: __ZNKSt3__122__compressed_pair_elemINS_25__bucket_list_deallocatorINS_9allocatorIPNS_16__hash_node_baseIPNS_11__hash_nodeINS_17__hash_value_typeINS_12basic_stringIcNS_11char_traitsIcEENS2_IcEEEENS_4pairIccEEEEPvEEEEEEEELi1ELb0EE5__getB8ue170006Ev, symObjAddr: 0x9244, symBinAddr: 0x10000E098, symSize: 0x14 }
  - { offsetInCU: 0x26183, offset: 0x414D6, size: 0x8, addend: 0x0, symName: __ZNKSt3__117__compressed_pairImNS_9allocatorIPNS_16__hash_node_baseIPNS_11__hash_nodeINS_17__hash_value_typeINS_12basic_stringIcNS_11char_traitsIcEENS1_IcEEEENS_4pairIccEEEEPvEEEEEEE5firstB8ue170006Ev, symObjAddr: 0x9258, symBinAddr: 0x10000E0AC, symSize: 0x24 }
  - { offsetInCU: 0x261A7, offset: 0x414FA, size: 0x8, addend: 0x0, symName: __ZNKSt3__122__compressed_pair_elemImLi0ELb0EE5__getB8ue170006Ev, symObjAddr: 0x927C, symBinAddr: 0x10000E0D0, symSize: 0x14 }
  - { offsetInCU: 0x261CC, offset: 0x4151F, size: 0x8, addend: 0x0, symName: __ZNSt3__110unique_ptrIA_PNS_16__hash_node_baseIPNS_11__hash_nodeINS_17__hash_value_typeINS_12basic_stringIcNS_11char_traitsIcEENS_9allocatorIcEEEENS_4pairIccEEEEPvEEEENS_25__bucket_list_deallocatorINS7_ISH_EEEEE11get_deleterB8ue170006Ev, symObjAddr: 0x9290, symBinAddr: 0x10000E0E4, symSize: 0x24 }
  - { offsetInCU: 0x261F0, offset: 0x41543, size: 0x8, addend: 0x0, symName: __ZNSt3__125__bucket_list_deallocatorINS_9allocatorIPNS_16__hash_node_baseIPNS_11__hash_nodeINS_17__hash_value_typeINS_12basic_stringIcNS_11char_traitsIcEENS1_IcEEEENS_4pairIccEEEEPvEEEEEEE7__allocB8ue170006Ev, symObjAddr: 0x92B4, symBinAddr: 0x10000E108, symSize: 0x24 }
  - { offsetInCU: 0x26214, offset: 0x41567, size: 0x8, addend: 0x0, symName: __ZNSt3__110unique_ptrIA_PNS_16__hash_node_baseIPNS_11__hash_nodeINS_17__hash_value_typeINS_12basic_stringIcNS_11char_traitsIcEENS_9allocatorIcEEEENS_4pairIccEEEEPvEEEENS_25__bucket_list_deallocatorINS7_ISH_EEEEE5resetB8ue170006IPSH_EENS_9enable_ifIXsr28_CheckArrayPointerConversionIT_EE5valueEvE4typeESQ_, symObjAddr: 0x92D8, symBinAddr: 0x10000E12C, symSize: 0x78 }
  - { offsetInCU: 0x2625F, offset: 0x415B2, size: 0x8, addend: 0x0, symName: __ZNSt3__116allocator_traitsINS_9allocatorIPNS_16__hash_node_baseIPNS_11__hash_nodeINS_17__hash_value_typeINS_12basic_stringIcNS_11char_traitsIcEENS1_IcEEEENS_4pairIccEEEEPvEEEEEEE8allocateB8ue170006ERSI_m, symObjAddr: 0x9350, symBinAddr: 0x10000E1A4, symSize: 0x2C }
  - { offsetInCU: 0x26291, offset: 0x415E4, size: 0x8, addend: 0x0, symName: __ZNSt3__125__bucket_list_deallocatorINS_9allocatorIPNS_16__hash_node_baseIPNS_11__hash_nodeINS_17__hash_value_typeINS_12basic_stringIcNS_11char_traitsIcEENS1_IcEEEENS_4pairIccEEEEPvEEEEEEE4sizeB8ue170006Ev, symObjAddr: 0x937C, symBinAddr: 0x10000E1D0, symSize: 0x24 }
  - { offsetInCU: 0x262B5, offset: 0x41608, size: 0x8, addend: 0x0, symName: __ZNKSt3__110unique_ptrIA_PNS_16__hash_node_baseIPNS_11__hash_nodeINS_17__hash_value_typeINS_12basic_stringIcNS_11char_traitsIcEENS_9allocatorIcEEEENS_4pairIccEEEEPvEEEENS_25__bucket_list_deallocatorINS7_ISH_EEEEEixB8ue170006Em, symObjAddr: 0x93A0, symBinAddr: 0x10000E1F4, symSize: 0x34 }
  - { offsetInCU: 0x262E8, offset: 0x4163B, size: 0x8, addend: 0x0, symName: __ZNSt3__117__compressed_pairINS_16__hash_node_baseIPNS_11__hash_nodeINS_17__hash_value_typeINS_12basic_stringIcNS_11char_traitsIcEENS_9allocatorIcEEEENS_4pairIccEEEEPvEEEENS7_ISE_EEE5firstB8ue170006Ev, symObjAddr: 0x93D4, symBinAddr: 0x10000E228, symSize: 0x24 }
  - { offsetInCU: 0x2630C, offset: 0x4165F, size: 0x8, addend: 0x0, symName: __ZNSt3__116__hash_node_baseIPNS_11__hash_nodeINS_17__hash_value_typeINS_12basic_stringIcNS_11char_traitsIcEENS_9allocatorIcEEEENS_4pairIccEEEEPvEEE5__ptrB8ue170006Ev, symObjAddr: 0x93F8, symBinAddr: 0x10000E24C, symSize: 0x24 }
  - { offsetInCU: 0x26330, offset: 0x41683, size: 0x8, addend: 0x0, symName: __ZNKSt3__116__hash_node_baseIPNS_11__hash_nodeINS_17__hash_value_typeINS_12basic_stringIcNS_11char_traitsIcEENS_9allocatorIcEEEENS_4pairIccEEEEPvEEE6__hashB8ue170006Ev, symObjAddr: 0x94B4, symBinAddr: 0x10000E308, symSize: 0x18 }
  - { offsetInCU: 0x26355, offset: 0x416A8, size: 0x8, addend: 0x0, symName: __ZNSt3__117__compressed_pairIPPNS_16__hash_node_baseIPNS_11__hash_nodeINS_17__hash_value_typeINS_12basic_stringIcNS_11char_traitsIcEENS_9allocatorIcEEEENS_4pairIccEEEEPvEEEENS_25__bucket_list_deallocatorINS7_ISH_EEEEE6secondB8ue170006Ev, symObjAddr: 0x94CC, symBinAddr: 0x10000E320, symSize: 0x28 }
  - { offsetInCU: 0x26379, offset: 0x416CC, size: 0x8, addend: 0x0, symName: __ZNSt3__122__compressed_pair_elemINS_25__bucket_list_deallocatorINS_9allocatorIPNS_16__hash_node_baseIPNS_11__hash_nodeINS_17__hash_value_typeINS_12basic_stringIcNS_11char_traitsIcEENS2_IcEEEENS_4pairIccEEEEPvEEEEEEEELi1ELb0EE5__getB8ue170006Ev, symObjAddr: 0x94F4, symBinAddr: 0x10000E348, symSize: 0x14 }
  - { offsetInCU: 0x2639E, offset: 0x416F1, size: 0x8, addend: 0x0, symName: __ZNSt3__117__compressed_pairImNS_9allocatorIPNS_16__hash_node_baseIPNS_11__hash_nodeINS_17__hash_value_typeINS_12basic_stringIcNS_11char_traitsIcEENS1_IcEEEENS_4pairIccEEEEPvEEEEEEE6secondB8ue170006Ev, symObjAddr: 0x9508, symBinAddr: 0x10000E35C, symSize: 0x24 }
  - { offsetInCU: 0x263C2, offset: 0x41715, size: 0x8, addend: 0x0, symName: __ZNSt3__122__compressed_pair_elemINS_9allocatorIPNS_16__hash_node_baseIPNS_11__hash_nodeINS_17__hash_value_typeINS_12basic_stringIcNS_11char_traitsIcEENS1_IcEEEENS_4pairIccEEEEPvEEEEEELi1ELb1EE5__getB8ue170006Ev, symObjAddr: 0x952C, symBinAddr: 0x10000E380, symSize: 0x14 }
  - { offsetInCU: 0x263E7, offset: 0x4173A, size: 0x8, addend: 0x0, symName: __ZNSt3__117__compressed_pairIPPNS_16__hash_node_baseIPNS_11__hash_nodeINS_17__hash_value_typeINS_12basic_stringIcNS_11char_traitsIcEENS_9allocatorIcEEEENS_4pairIccEEEEPvEEEENS_25__bucket_list_deallocatorINS7_ISH_EEEEE5firstB8ue170006Ev, symObjAddr: 0x9540, symBinAddr: 0x10000E394, symSize: 0x24 }
  - { offsetInCU: 0x2640B, offset: 0x4175E, size: 0x8, addend: 0x0, symName: __ZNSt3__125__bucket_list_deallocatorINS_9allocatorIPNS_16__hash_node_baseIPNS_11__hash_nodeINS_17__hash_value_typeINS_12basic_stringIcNS_11char_traitsIcEENS1_IcEEEENS_4pairIccEEEEPvEEEEEEEclB8ue170006EPSH_, symObjAddr: 0x9564, symBinAddr: 0x10000E3B8, symSize: 0x58 }
  - { offsetInCU: 0x2643E, offset: 0x41791, size: 0x8, addend: 0x0, symName: __ZNSt3__122__compressed_pair_elemIPPNS_16__hash_node_baseIPNS_11__hash_nodeINS_17__hash_value_typeINS_12basic_stringIcNS_11char_traitsIcEENS_9allocatorIcEEEENS_4pairIccEEEEPvEEEELi0ELb0EE5__getB8ue170006Ev, symObjAddr: 0x95BC, symBinAddr: 0x10000E410, symSize: 0x14 }
  - { offsetInCU: 0x26463, offset: 0x417B6, size: 0x8, addend: 0x0, symName: __ZNSt3__116allocator_traitsINS_9allocatorIPNS_16__hash_node_baseIPNS_11__hash_nodeINS_17__hash_value_typeINS_12basic_stringIcNS_11char_traitsIcEENS1_IcEEEENS_4pairIccEEEEPvEEEEEEE10deallocateB8ue170006ERSI_PSH_m, symObjAddr: 0x95D0, symBinAddr: 0x10000E424, symSize: 0x34 }
  - { offsetInCU: 0x264A4, offset: 0x417F7, size: 0x8, addend: 0x0, symName: __ZNSt3__19allocatorIPNS_16__hash_node_baseIPNS_11__hash_nodeINS_17__hash_value_typeINS_12basic_stringIcNS_11char_traitsIcEENS0_IcEEEENS_4pairIccEEEEPvEEEEE10deallocateB8ue170006EPSG_m, symObjAddr: 0x9604, symBinAddr: 0x10000E458, symSize: 0x40 }
  - { offsetInCU: 0x264E4, offset: 0x41837, size: 0x8, addend: 0x0, symName: __ZNSt3__19allocatorIPNS_16__hash_node_baseIPNS_11__hash_nodeINS_17__hash_value_typeINS_12basic_stringIcNS_11char_traitsIcEENS0_IcEEEENS_4pairIccEEEEPvEEEEE8allocateB8ue170006Em, symObjAddr: 0x9644, symBinAddr: 0x10000E498, symSize: 0x58 }
  - { offsetInCU: 0x26520, offset: 0x41873, size: 0x8, addend: 0x0, symName: __ZNSt3__116allocator_traitsINS_9allocatorIPNS_16__hash_node_baseIPNS_11__hash_nodeINS_17__hash_value_typeINS_12basic_stringIcNS_11char_traitsIcEENS1_IcEEEENS_4pairIccEEEEPvEEEEEEE8max_sizeB8ue170006ISI_vEEmRKSI_, symObjAddr: 0x969C, symBinAddr: 0x10000E4F0, symSize: 0x24 }
  - { offsetInCU: 0x2654E, offset: 0x418A1, size: 0x8, addend: 0x0, symName: __ZNKSt3__19allocatorIPNS_16__hash_node_baseIPNS_11__hash_nodeINS_17__hash_value_typeINS_12basic_stringIcNS_11char_traitsIcEENS0_IcEEEENS_4pairIccEEEEPvEEEEE8max_sizeB8ue170006Ev, symObjAddr: 0x9754, symBinAddr: 0x10000E514, symSize: 0x14 }
  - { offsetInCU: 0x26573, offset: 0x418C6, size: 0x8, addend: 0x0, symName: __ZNSt3__117__compressed_pairImNS_9allocatorIPNS_16__hash_node_baseIPNS_11__hash_nodeINS_17__hash_value_typeINS_12basic_stringIcNS_11char_traitsIcEENS1_IcEEEENS_4pairIccEEEEPvEEEEEEE5firstB8ue170006Ev, symObjAddr: 0x97B8, symBinAddr: 0x10000E528, symSize: 0x24 }
  - { offsetInCU: 0x26597, offset: 0x418EA, size: 0x8, addend: 0x0, symName: __ZNSt3__122__compressed_pair_elemImLi0ELb0EE5__getB8ue170006Ev, symObjAddr: 0x97DC, symBinAddr: 0x10000E54C, symSize: 0x14 }
  - { offsetInCU: 0x265BC, offset: 0x4190F, size: 0x8, addend: 0x0, symName: __ZNKSt3__117__compressed_pairIPPNS_16__hash_node_baseIPNS_11__hash_nodeINS_17__hash_value_typeINS_12basic_stringIcNS_11char_traitsIcEENS_9allocatorIcEEEENS_4pairIccEEEEPvEEEENS_25__bucket_list_deallocatorINS7_ISH_EEEEE5firstB8ue170006Ev, symObjAddr: 0x97F0, symBinAddr: 0x10000E560, symSize: 0x24 }
  - { offsetInCU: 0x265E0, offset: 0x41933, size: 0x8, addend: 0x0, symName: __ZNKSt3__122__compressed_pair_elemIPPNS_16__hash_node_baseIPNS_11__hash_nodeINS_17__hash_value_typeINS_12basic_stringIcNS_11char_traitsIcEENS_9allocatorIcEEEENS_4pairIccEEEEPvEEEELi0ELb0EE5__getB8ue170006Ev, symObjAddr: 0x9814, symBinAddr: 0x10000E584, symSize: 0x14 }
  - { offsetInCU: 0x26605, offset: 0x41958, size: 0x8, addend: 0x0, symName: __ZNSt3__122__compressed_pair_elemINS_16__hash_node_baseIPNS_11__hash_nodeINS_17__hash_value_typeINS_12basic_stringIcNS_11char_traitsIcEENS_9allocatorIcEEEENS_4pairIccEEEEPvEEEELi0ELb0EE5__getB8ue170006Ev, symObjAddr: 0x9828, symBinAddr: 0x10000E598, symSize: 0x14 }
  - { offsetInCU: 0x2662A, offset: 0x4197D, size: 0x8, addend: 0x0, symName: __ZNSt3__114pointer_traitsIPNS_16__hash_node_baseIPNS_11__hash_nodeINS_17__hash_value_typeINS_12basic_stringIcNS_11char_traitsIcEENS_9allocatorIcEEEENS_4pairIccEEEEPvEEEEE10pointer_toB8ue170006ERSG_, symObjAddr: 0x983C, symBinAddr: 0x10000E5AC, symSize: 0x14 }
  - { offsetInCU: 0x26657, offset: 0x419AA, size: 0x8, addend: 0x0, symName: __ZNSt3__117__compressed_pairImNS_22__unordered_map_hasherINS_12basic_stringIcNS_11char_traitsIcEENS_9allocatorIcEEEENS_17__hash_value_typeIS7_NS_4pairIccEEEENS_4hashIS7_EENS_8equal_toIS7_EELb1EEEE5firstB8ue170006Ev, symObjAddr: 0x98F4, symBinAddr: 0x10000E5DC, symSize: 0x24 }
  - { offsetInCU: 0x2667B, offset: 0x419CE, size: 0x8, addend: 0x0, symName: __ZNSt3__117__compressed_pairIfNS_21__unordered_map_equalINS_12basic_stringIcNS_11char_traitsIcEENS_9allocatorIcEEEENS_17__hash_value_typeIS7_NS_4pairIccEEEENS_8equal_toIS7_EENS_4hashIS7_EELb1EEEE5firstB8ue170006Ev, symObjAddr: 0x9918, symBinAddr: 0x10000E600, symSize: 0x24 }
  - { offsetInCU: 0x2669F, offset: 0x419F2, size: 0x8, addend: 0x0, symName: __ZNSt3__122__compressed_pair_elemIfLi0ELb0EE5__getB8ue170006Ev, symObjAddr: 0x993C, symBinAddr: 0x10000E624, symSize: 0x14 }
  - { offsetInCU: 0x266C9, offset: 0x41A1C, size: 0x8, addend: 0x0, symName: __ZNKSt3__16__lessIvvEclB8ue170006IiiEEbRKT_RKT0_, symObjAddr: 0x99A4, symBinAddr: 0x10000E68C, symSize: 0x34 }
  - { offsetInCU: 0x2671C, offset: 0x41A6F, size: 0x8, addend: 0x0, symName: __ZNSt3__112__hash_tableINS_17__hash_value_typeINS_12basic_stringIcNS_11char_traitsIcEENS_9allocatorIcEEEENS_4pairIccEEEENS_22__unordered_map_hasherIS7_SA_NS_4hashIS7_EENS_8equal_toIS7_EELb1EEENS_21__unordered_map_equalIS7_SA_SF_SD_Lb1EEENS5_ISA_EEE16__emplace_uniqueB8ue170006IRS7_S9_EENS_9enable_ifIXsr21__can_extract_map_keyIT_S7_NS8_IKS7_S9_EEEE5valueENS8_INS_15__hash_iteratorIPNS_11__hash_nodeISA_PvEEEEbEEE4typeEOSO_OT0_, symObjAddr: 0x99D8, symBinAddr: 0x10000E6C0, symSize: 0x48 }
  - { offsetInCU: 0x26770, offset: 0x41AC3, size: 0x8, addend: 0x0, symName: __ZNSt3__14pairINS_19__hash_map_iteratorINS_15__hash_iteratorIPNS_11__hash_nodeINS_17__hash_value_typeINS_12basic_stringIcNS_11char_traitsIcEENS_9allocatorIcEEEENS0_IccEEEEPvEEEEEEbEC1B8ue170006ISG_bLSD_0EEEONS0_IT_T0_EE, symObjAddr: 0x9A20, symBinAddr: 0x10000E708, symSize: 0x34 }
  - { offsetInCU: 0x267C0, offset: 0x41B13, size: 0x8, addend: 0x0, symName: __ZNSt3__112__hash_tableINS_17__hash_value_typeINS_12basic_stringIcNS_11char_traitsIcEENS_9allocatorIcEEEENS_4pairIccEEEENS_22__unordered_map_hasherIS7_SA_NS_4hashIS7_EENS_8equal_toIS7_EELb1EEENS_21__unordered_map_equalIS7_SA_SF_SD_Lb1EEENS5_ISA_EEE25__emplace_unique_key_argsIS7_JRS7_S9_EEENS8_INS_15__hash_iteratorIPNS_11__hash_nodeISA_PvEEEEbEERKT_DpOT0_, symObjAddr: 0x9A54, symBinAddr: 0x10000E73C, symSize: 0x4A8 }
  - { offsetInCU: 0x268B7, offset: 0x41C0A, size: 0x8, addend: 0x0, symName: __ZNSt3__112__hash_tableINS_17__hash_value_typeINS_12basic_stringIcNS_11char_traitsIcEENS_9allocatorIcEEEENS_4pairIccEEEENS_22__unordered_map_hasherIS7_SA_NS_4hashIS7_EENS_8equal_toIS7_EELb1EEENS_21__unordered_map_equalIS7_SA_SF_SD_Lb1EEENS5_ISA_EEE13hash_functionB8ue170006Ev, symObjAddr: 0x9EFC, symBinAddr: 0x10000EBE4, symSize: 0x28 }
  - { offsetInCU: 0x268DB, offset: 0x41C2E, size: 0x8, addend: 0x0, symName: __ZNKSt3__122__unordered_map_hasherINS_12basic_stringIcNS_11char_traitsIcEENS_9allocatorIcEEEENS_17__hash_value_typeIS6_NS_4pairIccEEEENS_4hashIS6_EENS_8equal_toIS6_EELb1EEclB8ue170006ERKS6_, symObjAddr: 0x9F24, symBinAddr: 0x10000EC0C, symSize: 0x2C }
  - { offsetInCU: 0x2690E, offset: 0x41C61, size: 0x8, addend: 0x0, symName: __ZNSt3__112__hash_tableINS_17__hash_value_typeINS_12basic_stringIcNS_11char_traitsIcEENS_9allocatorIcEEEENS_4pairIccEEEENS_22__unordered_map_hasherIS7_SA_NS_4hashIS7_EENS_8equal_toIS7_EELb1EEENS_21__unordered_map_equalIS7_SA_SF_SD_Lb1EEENS5_ISA_EEE6key_eqB8ue170006Ev, symObjAddr: 0x9F50, symBinAddr: 0x10000EC38, symSize: 0x28 }
  - { offsetInCU: 0x26932, offset: 0x41C85, size: 0x8, addend: 0x0, symName: __ZNKSt3__121__unordered_map_equalINS_12basic_stringIcNS_11char_traitsIcEENS_9allocatorIcEEEENS_17__hash_value_typeIS6_NS_4pairIccEEEENS_8equal_toIS6_EENS_4hashIS6_EELb1EEclB8ue170006ERKSA_RKS6_, symObjAddr: 0x9F78, symBinAddr: 0x10000EC60, symSize: 0x48 }
  - { offsetInCU: 0x26974, offset: 0x41CC7, size: 0x8, addend: 0x0, symName: __ZNSt3__116__hash_node_baseIPNS_11__hash_nodeINS_17__hash_value_typeINS_12basic_stringIcNS_11char_traitsIcEENS_9allocatorIcEEEENS_4pairIccEEEEPvEEE8__upcastB8ue170006Ev, symObjAddr: 0x9FC0, symBinAddr: 0x10000ECA8, symSize: 0x24 }
  - { offsetInCU: 0x26998, offset: 0x41CEB, size: 0x8, addend: 0x0, symName: __ZNSt3__112__hash_tableINS_17__hash_value_typeINS_12basic_stringIcNS_11char_traitsIcEENS_9allocatorIcEEEENS_4pairIccEEEENS_22__unordered_map_hasherIS7_SA_NS_4hashIS7_EENS_8equal_toIS7_EELb1EEENS_21__unordered_map_equalIS7_SA_SF_SD_Lb1EEENS5_ISA_EEE21__construct_node_hashIRS7_JS9_EEENS_10unique_ptrINS_11__hash_nodeISA_PvEENS_22__hash_node_destructorINS5_ISQ_EEEEEEmOT_DpOT0_, symObjAddr: 0x9FE4, symBinAddr: 0x10000ECCC, symSize: 0x148 }
  - { offsetInCU: 0x26A21, offset: 0x41D74, size: 0x8, addend: 0x0, symName: __ZNKSt3__110unique_ptrINS_11__hash_nodeINS_17__hash_value_typeINS_12basic_stringIcNS_11char_traitsIcEENS_9allocatorIcEEEENS_4pairIccEEEEPvEENS_22__hash_node_destructorINS6_ISD_EEEEEptB8ue170006Ev, symObjAddr: 0xA12C, symBinAddr: 0x10000EE14, symSize: 0x28 }
  - { offsetInCU: 0x26A45, offset: 0x41D98, size: 0x8, addend: 0x0, symName: __ZNKSt3__110unique_ptrINS_11__hash_nodeINS_17__hash_value_typeINS_12basic_stringIcNS_11char_traitsIcEENS_9allocatorIcEEEENS_4pairIccEEEEPvEENS_22__hash_node_destructorINS6_ISD_EEEEE3getB8ue170006Ev, symObjAddr: 0xA154, symBinAddr: 0x10000EE3C, symSize: 0x28 }
  - { offsetInCU: 0x26A69, offset: 0x41DBC, size: 0x8, addend: 0x0, symName: __ZNSt3__110unique_ptrINS_11__hash_nodeINS_17__hash_value_typeINS_12basic_stringIcNS_11char_traitsIcEENS_9allocatorIcEEEENS_4pairIccEEEEPvEENS_22__hash_node_destructorINS6_ISD_EEEEE7releaseB8ue170006Ev, symObjAddr: 0xA17C, symBinAddr: 0x10000EE64, symSize: 0x44 }
  - { offsetInCU: 0x26A9C, offset: 0x41DEF, size: 0x8, addend: 0x0, symName: __ZNSt3__110unique_ptrINS_11__hash_nodeINS_17__hash_value_typeINS_12basic_stringIcNS_11char_traitsIcEENS_9allocatorIcEEEENS_4pairIccEEEEPvEENS_22__hash_node_destructorINS6_ISD_EEEEED1B8ue170006Ev, symObjAddr: 0xA1C0, symBinAddr: 0x10000EEA8, symSize: 0x2C }
  - { offsetInCU: 0x26AC4, offset: 0x41E17, size: 0x8, addend: 0x0, symName: __ZNSt3__115__hash_iteratorIPNS_11__hash_nodeINS_17__hash_value_typeINS_12basic_stringIcNS_11char_traitsIcEENS_9allocatorIcEEEENS_4pairIccEEEEPvEEEC1B8ue170006EPNS_16__hash_node_baseISE_EE, symObjAddr: 0xA1EC, symBinAddr: 0x10000EED4, symSize: 0x34 }
  - { offsetInCU: 0x26B00, offset: 0x41E53, size: 0x8, addend: 0x0, symName: __ZNSt3__14pairINS_15__hash_iteratorIPNS_11__hash_nodeINS_17__hash_value_typeINS_12basic_stringIcNS_11char_traitsIcEENS_9allocatorIcEEEENS0_IccEEEEPvEEEEbEC1B8ue170006ISF_RbLSC_0EEEOT_OT0_, symObjAddr: 0xA220, symBinAddr: 0x10000EF08, symSize: 0x3C }
  - { offsetInCU: 0x26B5D, offset: 0x41EB0, size: 0x8, addend: 0x0, symName: __ZNSt3__117__compressed_pairImNS_22__unordered_map_hasherINS_12basic_stringIcNS_11char_traitsIcEENS_9allocatorIcEEEENS_17__hash_value_typeIS7_NS_4pairIccEEEENS_4hashIS7_EENS_8equal_toIS7_EELb1EEEE6secondB8ue170006Ev, symObjAddr: 0xA25C, symBinAddr: 0x10000EF44, symSize: 0x24 }
  - { offsetInCU: 0x26B81, offset: 0x41ED4, size: 0x8, addend: 0x0, symName: __ZNSt3__122__compressed_pair_elemINS_22__unordered_map_hasherINS_12basic_stringIcNS_11char_traitsIcEENS_9allocatorIcEEEENS_17__hash_value_typeIS7_NS_4pairIccEEEENS_4hashIS7_EENS_8equal_toIS7_EELb1EEELi1ELb1EE5__getB8ue170006Ev, symObjAddr: 0xA280, symBinAddr: 0x10000EF68, symSize: 0x14 }
  - { offsetInCU: 0x26BA6, offset: 0x41EF9, size: 0x8, addend: 0x0, symName: __ZNKSt3__113__string_hashIcNS_9allocatorIcEEEclB8ue170006ERKNS_12basic_stringIcNS_11char_traitsIcEES2_EE, symObjAddr: 0xA294, symBinAddr: 0x10000EF7C, symSize: 0x64 }
  - { offsetInCU: 0x26BD9, offset: 0x41F2C, size: 0x8, addend: 0x0, symName: __ZNKSt3__121__murmur2_or_cityhashImLm64EEclB8ue170006EPKvm, symObjAddr: 0xA334, symBinAddr: 0x10000F01C, symSize: 0x410 }
  - { offsetInCU: 0x26C71, offset: 0x41FC4, size: 0x8, addend: 0x0, symName: __ZNSt3__121__murmur2_or_cityhashImLm64EE18__hash_len_0_to_16B8ue170006EPKcm, symObjAddr: 0xA744, symBinAddr: 0x10000F42C, symSize: 0x1C0 }
  - { offsetInCU: 0x26D4C, offset: 0x4209F, size: 0x8, addend: 0x0, symName: __ZNSt3__121__murmur2_or_cityhashImLm64EE19__hash_len_17_to_32B8ue170006EPKcm, symObjAddr: 0xA904, symBinAddr: 0x10000F5EC, symSize: 0x130 }
  - { offsetInCU: 0x26DB4, offset: 0x42107, size: 0x8, addend: 0x0, symName: __ZNSt3__121__murmur2_or_cityhashImLm64EE19__hash_len_33_to_64B8ue170006EPKcm, symObjAddr: 0xAA34, symBinAddr: 0x10000F71C, symSize: 0x2B8 }
  - { offsetInCU: 0x26E68, offset: 0x421BB, size: 0x8, addend: 0x0, symName: __ZNSt3__121__murmur2_or_cityhashImLm64EE13__hash_len_16B8ue170006Emm, symObjAddr: 0xAD0C, symBinAddr: 0x10000F9F4, symSize: 0x80 }
  - { offsetInCU: 0x26EC3, offset: 0x42216, size: 0x8, addend: 0x0, symName: __ZNSt3__121__murmur2_or_cityhashImLm64EE29__weak_hash_len_32_with_seedsB8ue170006EPKcmm, symObjAddr: 0xAD8C, symBinAddr: 0x10000FA74, symSize: 0x88 }
  - { offsetInCU: 0x26F01, offset: 0x42254, size: 0x8, addend: 0x0, symName: __ZNSt3__121__murmur2_or_cityhashImLm64EE8__rotateB8ue170006Emi, symObjAddr: 0xAE14, symBinAddr: 0x10000FAFC, symSize: 0x64 }
  - { offsetInCU: 0x26F32, offset: 0x42285, size: 0x8, addend: 0x0, symName: __ZNSt3__14pairImmEaSB8ue170006EOS1_, symObjAddr: 0xAE78, symBinAddr: 0x10000FB60, symSize: 0x30 }
  - { offsetInCU: 0x26F66, offset: 0x422B9, size: 0x8, addend: 0x0, symName: __ZNSt3__121__murmur2_or_cityhashImLm64EE11__shift_mixB8ue170006Em, symObjAddr: 0xAEE4, symBinAddr: 0x10000FBCC, symSize: 0x1C }
  - { offsetInCU: 0x26F89, offset: 0x422DC, size: 0x8, addend: 0x0, symName: __ZNSt3__121__murmur2_or_cityhashImLm64EE22__rotate_by_at_least_1B8ue170006Emi, symObjAddr: 0xAF00, symBinAddr: 0x10000FBE8, symSize: 0x38 }
  - { offsetInCU: 0x26FBA, offset: 0x4230D, size: 0x8, addend: 0x0, symName: __ZNSt3__121__murmur2_or_cityhashImLm64EE29__weak_hash_len_32_with_seedsB8ue170006Emmmmmm, symObjAddr: 0xAF58, symBinAddr: 0x10000FC40, symSize: 0xD8 }
  - { offsetInCU: 0x27035, offset: 0x42388, size: 0x8, addend: 0x0, symName: __ZNSt3__14pairImmEC1B8ue170006ImmLPv0EEEOT_OT0_, symObjAddr: 0xB030, symBinAddr: 0x10000FD18, symSize: 0x3C }
  - { offsetInCU: 0x27092, offset: 0x423E5, size: 0x8, addend: 0x0, symName: __ZNSt3__14pairImmEC2B8ue170006ImmLPv0EEEOT_OT0_, symObjAddr: 0xB06C, symBinAddr: 0x10000FD54, symSize: 0x34 }
  - { offsetInCU: 0x270F0, offset: 0x42443, size: 0x8, addend: 0x0, symName: __ZNSt3__117__compressed_pairIfNS_21__unordered_map_equalINS_12basic_stringIcNS_11char_traitsIcEENS_9allocatorIcEEEENS_17__hash_value_typeIS7_NS_4pairIccEEEENS_8equal_toIS7_EENS_4hashIS7_EELb1EEEE6secondB8ue170006Ev, symObjAddr: 0xB0A0, symBinAddr: 0x10000FD88, symSize: 0x24 }
  - { offsetInCU: 0x27114, offset: 0x42467, size: 0x8, addend: 0x0, symName: __ZNSt3__122__compressed_pair_elemINS_21__unordered_map_equalINS_12basic_stringIcNS_11char_traitsIcEENS_9allocatorIcEEEENS_17__hash_value_typeIS7_NS_4pairIccEEEENS_8equal_toIS7_EENS_4hashIS7_EELb1EEELi1ELb1EE5__getB8ue170006Ev, symObjAddr: 0xB0C4, symBinAddr: 0x10000FDAC, symSize: 0x14 }
  - { offsetInCU: 0x27139, offset: 0x4248C, size: 0x8, addend: 0x0, symName: __ZNKSt3__18equal_toINS_12basic_stringIcNS_11char_traitsIcEENS_9allocatorIcEEEEEclB8ue170006ERKS6_S9_, symObjAddr: 0xB0D8, symBinAddr: 0x10000FDC0, symSize: 0x34 }
  - { offsetInCU: 0x2717B, offset: 0x424CE, size: 0x8, addend: 0x0, symName: __ZNKSt3__117__hash_value_typeINS_12basic_stringIcNS_11char_traitsIcEENS_9allocatorIcEEEENS_4pairIccEEE11__get_valueB8ue170006Ev, symObjAddr: 0xB10C, symBinAddr: 0x10000FDF4, symSize: 0x24 }
  - { offsetInCU: 0x2719F, offset: 0x424F2, size: 0x8, addend: 0x0, symName: __ZNSt3__111char_traitsIcE7compareB8ue170006EPKcS3_m, symObjAddr: 0xB278, symBinAddr: 0x10000FF60, symSize: 0x34 }
  - { offsetInCU: 0x271DD, offset: 0x42530, size: 0x8, addend: 0x0, symName: __ZNSt3__112__hash_tableINS_17__hash_value_typeINS_12basic_stringIcNS_11char_traitsIcEENS_9allocatorIcEEEENS_4pairIccEEEENS_22__unordered_map_hasherIS7_SA_NS_4hashIS7_EENS_8equal_toIS7_EELb1EEENS_21__unordered_map_equalIS7_SA_SF_SD_Lb1EEENS5_ISA_EEE12__node_allocB8ue170006Ev, symObjAddr: 0xB2E4, symBinAddr: 0x10000FFCC, symSize: 0x28 }
  - { offsetInCU: 0x27201, offset: 0x42554, size: 0x8, addend: 0x0, symName: __ZNSt3__116allocator_traitsINS_9allocatorINS_11__hash_nodeINS_17__hash_value_typeINS_12basic_stringIcNS_11char_traitsIcEENS1_IcEEEENS_4pairIccEEEEPvEEEEE8allocateB8ue170006ERSE_m, symObjAddr: 0xB30C, symBinAddr: 0x10000FFF4, symSize: 0x2C }
  - { offsetInCU: 0x27233, offset: 0x42586, size: 0x8, addend: 0x0, symName: __ZNSt3__122__hash_node_destructorINS_9allocatorINS_11__hash_nodeINS_17__hash_value_typeINS_12basic_stringIcNS_11char_traitsIcEENS1_IcEEEENS_4pairIccEEEEPvEEEEEC1B8ue170006ERSE_b, symObjAddr: 0xB338, symBinAddr: 0x100010020, symSize: 0x48 }
  - { offsetInCU: 0x2727E, offset: 0x425D1, size: 0x8, addend: 0x0, symName: __ZNSt3__110unique_ptrINS_11__hash_nodeINS_17__hash_value_typeINS_12basic_stringIcNS_11char_traitsIcEENS_9allocatorIcEEEENS_4pairIccEEEEPvEENS_22__hash_node_destructorINS6_ISD_EEEEEC1B8ue170006ILb1EvEEPSD_NS_16__dependent_typeINS_27__unique_ptr_deleter_sfinaeISG_EEXT_EE20__good_rval_ref_typeE, symObjAddr: 0xB380, symBinAddr: 0x100010068, symSize: 0x3C }
  - { offsetInCU: 0x272CE, offset: 0x42621, size: 0x8, addend: 0x0, symName: __ZNSt3__116allocator_traitsINS_9allocatorINS_11__hash_nodeINS_17__hash_value_typeINS_12basic_stringIcNS_11char_traitsIcEENS1_IcEEEENS_4pairIccEEEEPvEEEEE9constructB8ue170006INS9_IKS8_SA_EEJRS8_SA_EvEEvRSE_PT_DpOT0_, symObjAddr: 0xB3BC, symBinAddr: 0x1000100A4, symSize: 0x3C }
  - { offsetInCU: 0x2733C, offset: 0x4268F, size: 0x8, addend: 0x0, symName: __ZNSt3__122__hash_key_value_typesINS_17__hash_value_typeINS_12basic_stringIcNS_11char_traitsIcEENS_9allocatorIcEEEENS_4pairIccEEEEE9__get_ptrB8ue170006ERSA_, symObjAddr: 0xB3F8, symBinAddr: 0x1000100E0, symSize: 0x24 }
  - { offsetInCU: 0x2735E, offset: 0x426B1, size: 0x8, addend: 0x0, symName: __ZNSt3__110unique_ptrINS_11__hash_nodeINS_17__hash_value_typeINS_12basic_stringIcNS_11char_traitsIcEENS_9allocatorIcEEEENS_4pairIccEEEEPvEENS_22__hash_node_destructorINS6_ISD_EEEEE11get_deleterB8ue170006Ev, symObjAddr: 0xB41C, symBinAddr: 0x100010104, symSize: 0x24 }
  - { offsetInCU: 0x27382, offset: 0x426D5, size: 0x8, addend: 0x0, symName: __ZNSt3__117__compressed_pairINS_16__hash_node_baseIPNS_11__hash_nodeINS_17__hash_value_typeINS_12basic_stringIcNS_11char_traitsIcEENS_9allocatorIcEEEENS_4pairIccEEEEPvEEEENS7_ISE_EEE6secondB8ue170006Ev, symObjAddr: 0xB440, symBinAddr: 0x100010128, symSize: 0x24 }
  - { offsetInCU: 0x273A6, offset: 0x426F9, size: 0x8, addend: 0x0, symName: __ZNSt3__122__compressed_pair_elemINS_9allocatorINS_11__hash_nodeINS_17__hash_value_typeINS_12basic_stringIcNS_11char_traitsIcEENS1_IcEEEENS_4pairIccEEEEPvEEEELi1ELb1EE5__getB8ue170006Ev, symObjAddr: 0xB464, symBinAddr: 0x10001014C, symSize: 0x14 }
  - { offsetInCU: 0x273CB, offset: 0x4271E, size: 0x8, addend: 0x0, symName: __ZNSt3__19allocatorINS_11__hash_nodeINS_17__hash_value_typeINS_12basic_stringIcNS_11char_traitsIcEENS0_IcEEEENS_4pairIccEEEEPvEEE8allocateB8ue170006Em, symObjAddr: 0xB478, symBinAddr: 0x100010160, symSize: 0x5C }
  - { offsetInCU: 0x27407, offset: 0x4275A, size: 0x8, addend: 0x0, symName: __ZNSt3__116allocator_traitsINS_9allocatorINS_11__hash_nodeINS_17__hash_value_typeINS_12basic_stringIcNS_11char_traitsIcEENS1_IcEEEENS_4pairIccEEEEPvEEEEE8max_sizeB8ue170006ISE_vEEmRKSE_, symObjAddr: 0xB4D4, symBinAddr: 0x1000101BC, symSize: 0x24 }
  - { offsetInCU: 0x27435, offset: 0x42788, size: 0x8, addend: 0x0, symName: __ZNKSt3__19allocatorINS_11__hash_nodeINS_17__hash_value_typeINS_12basic_stringIcNS_11char_traitsIcEENS0_IcEEEENS_4pairIccEEEEPvEEE8max_sizeB8ue170006Ev, symObjAddr: 0xB4F8, symBinAddr: 0x1000101E0, symSize: 0x18 }
  - { offsetInCU: 0x2745A, offset: 0x427AD, size: 0x8, addend: 0x0, symName: __ZNSt3__122__hash_node_destructorINS_9allocatorINS_11__hash_nodeINS_17__hash_value_typeINS_12basic_stringIcNS_11char_traitsIcEENS1_IcEEEENS_4pairIccEEEEPvEEEEEC2B8ue170006ERSE_b, symObjAddr: 0xB510, symBinAddr: 0x1000101F8, symSize: 0x38 }
  - { offsetInCU: 0x274A1, offset: 0x427F4, size: 0x8, addend: 0x0, symName: __ZNSt3__110unique_ptrINS_11__hash_nodeINS_17__hash_value_typeINS_12basic_stringIcNS_11char_traitsIcEENS_9allocatorIcEEEENS_4pairIccEEEEPvEENS_22__hash_node_destructorINS6_ISD_EEEEEC2B8ue170006ILb1EvEEPSD_NS_16__dependent_typeINS_27__unique_ptr_deleter_sfinaeISG_EEXT_EE20__good_rval_ref_typeE, symObjAddr: 0xB548, symBinAddr: 0x100010230, symSize: 0x48 }
  - { offsetInCU: 0x274F1, offset: 0x42844, size: 0x8, addend: 0x0, symName: __ZNSt3__117__compressed_pairIPNS_11__hash_nodeINS_17__hash_value_typeINS_12basic_stringIcNS_11char_traitsIcEENS_9allocatorIcEEEENS_4pairIccEEEEPvEENS_22__hash_node_destructorINS6_ISD_EEEEEC1B8ue170006IRSE_SH_EEOT_OT0_, symObjAddr: 0xB590, symBinAddr: 0x100010278, symSize: 0x3C }
  - { offsetInCU: 0x27547, offset: 0x4289A, size: 0x8, addend: 0x0, symName: __ZNSt3__117__compressed_pairIPNS_11__hash_nodeINS_17__hash_value_typeINS_12basic_stringIcNS_11char_traitsIcEENS_9allocatorIcEEEENS_4pairIccEEEEPvEENS_22__hash_node_destructorINS6_ISD_EEEEEC2B8ue170006IRSE_SH_EEOT_OT0_, symObjAddr: 0xB5CC, symBinAddr: 0x1000102B4, symSize: 0x48 }
  - { offsetInCU: 0x2759D, offset: 0x428F0, size: 0x8, addend: 0x0, symName: __ZNSt3__122__compressed_pair_elemIPNS_11__hash_nodeINS_17__hash_value_typeINS_12basic_stringIcNS_11char_traitsIcEENS_9allocatorIcEEEENS_4pairIccEEEEPvEELi0ELb0EEC2B8ue170006IRSE_vEEOT_, symObjAddr: 0xB614, symBinAddr: 0x1000102FC, symSize: 0x24 }
  - { offsetInCU: 0x275DF, offset: 0x42932, size: 0x8, addend: 0x0, symName: __ZNSt3__122__compressed_pair_elemINS_22__hash_node_destructorINS_9allocatorINS_11__hash_nodeINS_17__hash_value_typeINS_12basic_stringIcNS_11char_traitsIcEENS2_IcEEEENS_4pairIccEEEEPvEEEEEELi1ELb0EEC2B8ue170006ISG_vEEOT_, symObjAddr: 0xB638, symBinAddr: 0x100010320, symSize: 0x24 }
  - { offsetInCU: 0x27621, offset: 0x42974, size: 0x8, addend: 0x0, symName: __ZNSt3__19allocatorINS_11__hash_nodeINS_17__hash_value_typeINS_12basic_stringIcNS_11char_traitsIcEENS0_IcEEEENS_4pairIccEEEEPvEEE9constructB8ue170006INS8_IKS7_S9_EEJRS7_S9_EEEvPT_DpOT0_, symObjAddr: 0xB65C, symBinAddr: 0x100010344, symSize: 0x38 }
  - { offsetInCU: 0x2768B, offset: 0x429DE, size: 0x8, addend: 0x0, symName: __ZNSt3__14pairIKNS_12basic_stringIcNS_11char_traitsIcEENS_9allocatorIcEEEENS0_IccEEEC1B8ue170006IRS6_S8_LPv0EEEOT_OT0_, symObjAddr: 0xB694, symBinAddr: 0x10001037C, symSize: 0x3C }
  - { offsetInCU: 0x276E8, offset: 0x42A3B, size: 0x8, addend: 0x0, symName: __ZNSt3__14pairIKNS_12basic_stringIcNS_11char_traitsIcEENS_9allocatorIcEEEENS0_IccEEEC2B8ue170006IRS6_S8_LPv0EEEOT_OT0_, symObjAddr: 0xB6D0, symBinAddr: 0x1000103B8, symSize: 0x44 }
  - { offsetInCU: 0x27745, offset: 0x42A98, size: 0x8, addend: 0x0, symName: __ZNSt3__117__hash_value_typeINS_12basic_stringIcNS_11char_traitsIcEENS_9allocatorIcEEEENS_4pairIccEEE11__get_valueB8ue170006Ev, symObjAddr: 0xB714, symBinAddr: 0x1000103FC, symSize: 0x24 }
  - { offsetInCU: 0x27769, offset: 0x42ABC, size: 0x8, addend: 0x0, symName: __ZNSt3__117__compressed_pairIPNS_11__hash_nodeINS_17__hash_value_typeINS_12basic_stringIcNS_11char_traitsIcEENS_9allocatorIcEEEENS_4pairIccEEEEPvEENS_22__hash_node_destructorINS6_ISD_EEEEE6secondB8ue170006Ev, symObjAddr: 0xB770, symBinAddr: 0x100010458, symSize: 0x28 }
  - { offsetInCU: 0x2778D, offset: 0x42AE0, size: 0x8, addend: 0x0, symName: __ZNSt3__122__compressed_pair_elemINS_22__hash_node_destructorINS_9allocatorINS_11__hash_nodeINS_17__hash_value_typeINS_12basic_stringIcNS_11char_traitsIcEENS2_IcEEEENS_4pairIccEEEEPvEEEEEELi1ELb0EE5__getB8ue170006Ev, symObjAddr: 0xB798, symBinAddr: 0x100010480, symSize: 0x14 }
  - { offsetInCU: 0x277B2, offset: 0x42B05, size: 0x8, addend: 0x0, symName: __ZNKSt3__117__compressed_pairIPNS_11__hash_nodeINS_17__hash_value_typeINS_12basic_stringIcNS_11char_traitsIcEENS_9allocatorIcEEEENS_4pairIccEEEEPvEENS_22__hash_node_destructorINS6_ISD_EEEEE5firstB8ue170006Ev, symObjAddr: 0xB7AC, symBinAddr: 0x100010494, symSize: 0x24 }
  - { offsetInCU: 0x277D6, offset: 0x42B29, size: 0x8, addend: 0x0, symName: __ZNKSt3__122__compressed_pair_elemIPNS_11__hash_nodeINS_17__hash_value_typeINS_12basic_stringIcNS_11char_traitsIcEENS_9allocatorIcEEEENS_4pairIccEEEEPvEELi0ELb0EE5__getB8ue170006Ev, symObjAddr: 0xB7D0, symBinAddr: 0x1000104B8, symSize: 0x14 }
  - { offsetInCU: 0x277FB, offset: 0x42B4E, size: 0x8, addend: 0x0, symName: __ZNSt3__117__compressed_pairIPNS_11__hash_nodeINS_17__hash_value_typeINS_12basic_stringIcNS_11char_traitsIcEENS_9allocatorIcEEEENS_4pairIccEEEEPvEENS_22__hash_node_destructorINS6_ISD_EEEEE5firstB8ue170006Ev, symObjAddr: 0xB7E4, symBinAddr: 0x1000104CC, symSize: 0x24 }
  - { offsetInCU: 0x2781F, offset: 0x42B72, size: 0x8, addend: 0x0, symName: __ZNSt3__122__compressed_pair_elemIPNS_11__hash_nodeINS_17__hash_value_typeINS_12basic_stringIcNS_11char_traitsIcEENS_9allocatorIcEEEENS_4pairIccEEEEPvEELi0ELb0EE5__getB8ue170006Ev, symObjAddr: 0xB808, symBinAddr: 0x1000104F0, symSize: 0x14 }
  - { offsetInCU: 0x27844, offset: 0x42B97, size: 0x8, addend: 0x0, symName: __ZNSt3__110unique_ptrINS_11__hash_nodeINS_17__hash_value_typeINS_12basic_stringIcNS_11char_traitsIcEENS_9allocatorIcEEEENS_4pairIccEEEEPvEENS_22__hash_node_destructorINS6_ISD_EEEEED2B8ue170006Ev, symObjAddr: 0xB81C, symBinAddr: 0x100010504, symSize: 0x30 }
  - { offsetInCU: 0x2786C, offset: 0x42BBF, size: 0x8, addend: 0x0, symName: __ZNSt3__110unique_ptrINS_11__hash_nodeINS_17__hash_value_typeINS_12basic_stringIcNS_11char_traitsIcEENS_9allocatorIcEEEENS_4pairIccEEEEPvEENS_22__hash_node_destructorINS6_ISD_EEEEE5resetB8ue170006EPSD_, symObjAddr: 0xB84C, symBinAddr: 0x100010534, symSize: 0x78 }
  - { offsetInCU: 0x278AE, offset: 0x42C01, size: 0x8, addend: 0x0, symName: __ZNSt3__122__hash_node_destructorINS_9allocatorINS_11__hash_nodeINS_17__hash_value_typeINS_12basic_stringIcNS_11char_traitsIcEENS1_IcEEEENS_4pairIccEEEEPvEEEEEclB8ue170006EPSD_, symObjAddr: 0xB8C4, symBinAddr: 0x1000105AC, symSize: 0x98 }
  - { offsetInCU: 0x278E1, offset: 0x42C34, size: 0x8, addend: 0x0, symName: __ZNSt3__116allocator_traitsINS_9allocatorINS_11__hash_nodeINS_17__hash_value_typeINS_12basic_stringIcNS_11char_traitsIcEENS1_IcEEEENS_4pairIccEEEEPvEEEEE7destroyB8ue170006INS9_IKS8_SA_EEvvEEvRSE_PT_, symObjAddr: 0xB95C, symBinAddr: 0x100010644, symSize: 0x28 }
  - { offsetInCU: 0x2791D, offset: 0x42C70, size: 0x8, addend: 0x0, symName: __ZNSt3__116allocator_traitsINS_9allocatorINS_11__hash_nodeINS_17__hash_value_typeINS_12basic_stringIcNS_11char_traitsIcEENS1_IcEEEENS_4pairIccEEEEPvEEEEE10deallocateB8ue170006ERSE_PSD_m, symObjAddr: 0xB984, symBinAddr: 0x10001066C, symSize: 0x34 }
  - { offsetInCU: 0x2795E, offset: 0x42CB1, size: 0x8, addend: 0x0, symName: __ZNSt3__14pairIKNS_12basic_stringIcNS_11char_traitsIcEENS_9allocatorIcEEEENS0_IccEEED1Ev, symObjAddr: 0xB9B8, symBinAddr: 0x1000106A0, symSize: 0x2C }
  - { offsetInCU: 0x27988, offset: 0x42CDB, size: 0x8, addend: 0x0, symName: __ZNSt3__14pairIKNS_12basic_stringIcNS_11char_traitsIcEENS_9allocatorIcEEEENS0_IccEEED2Ev, symObjAddr: 0xB9E4, symBinAddr: 0x1000106CC, symSize: 0x2C }
  - { offsetInCU: 0x279B2, offset: 0x42D05, size: 0x8, addend: 0x0, symName: __ZNSt3__19allocatorINS_11__hash_nodeINS_17__hash_value_typeINS_12basic_stringIcNS_11char_traitsIcEENS0_IcEEEENS_4pairIccEEEEPvEEE10deallocateB8ue170006EPSC_m, symObjAddr: 0xBA10, symBinAddr: 0x1000106F8, symSize: 0x44 }
  - { offsetInCU: 0x279F2, offset: 0x42D45, size: 0x8, addend: 0x0, symName: __ZNSt3__115__hash_iteratorIPNS_11__hash_nodeINS_17__hash_value_typeINS_12basic_stringIcNS_11char_traitsIcEENS_9allocatorIcEEEENS_4pairIccEEEEPvEEEC2B8ue170006EPNS_16__hash_node_baseISE_EE, symObjAddr: 0xBA54, symBinAddr: 0x10001073C, symSize: 0x20 }
  - { offsetInCU: 0x27A2A, offset: 0x42D7D, size: 0x8, addend: 0x0, symName: __ZNSt3__14pairINS_15__hash_iteratorIPNS_11__hash_nodeINS_17__hash_value_typeINS_12basic_stringIcNS_11char_traitsIcEENS_9allocatorIcEEEENS0_IccEEEEPvEEEEbEC2B8ue170006ISF_RbLSC_0EEEOT_OT0_, symObjAddr: 0xBA74, symBinAddr: 0x10001075C, symSize: 0x38 }
  - { offsetInCU: 0x27A88, offset: 0x42DDB, size: 0x8, addend: 0x0, symName: __ZNSt3__14pairINS_19__hash_map_iteratorINS_15__hash_iteratorIPNS_11__hash_nodeINS_17__hash_value_typeINS_12basic_stringIcNS_11char_traitsIcEENS_9allocatorIcEEEENS0_IccEEEEPvEEEEEEbEC2B8ue170006ISG_bLSD_0EEEONS0_IT_T0_EE, symObjAddr: 0xBAAC, symBinAddr: 0x100010794, symSize: 0x50 }
  - { offsetInCU: 0x27AD8, offset: 0x42E2B, size: 0x8, addend: 0x0, symName: __ZNSt3__119__hash_map_iteratorINS_15__hash_iteratorIPNS_11__hash_nodeINS_17__hash_value_typeINS_12basic_stringIcNS_11char_traitsIcEENS_9allocatorIcEEEENS_4pairIccEEEEPvEEEEEC1B8ue170006ESG_, symObjAddr: 0xBAFC, symBinAddr: 0x1000107E4, symSize: 0x34 }
  - { offsetInCU: 0x27B0F, offset: 0x42E62, size: 0x8, addend: 0x0, symName: __ZNSt3__119__hash_map_iteratorINS_15__hash_iteratorIPNS_11__hash_nodeINS_17__hash_value_typeINS_12basic_stringIcNS_11char_traitsIcEENS_9allocatorIcEEEENS_4pairIccEEEEPvEEEEEC2B8ue170006ESG_, symObjAddr: 0xBB30, symBinAddr: 0x100010818, symSize: 0x20 }
  - { offsetInCU: 0x27B47, offset: 0x42E9A, size: 0x8, addend: 0x0, symName: __ZNSt3__14pairIccEC1B8ue170006IRcS3_LPv0EEEOT_OT0_, symObjAddr: 0xBB50, symBinAddr: 0x100010838, symSize: 0x3C }
  - { offsetInCU: 0x27BA4, offset: 0x42EF7, size: 0x8, addend: 0x0, symName: __ZNSt3__14pairIccEC2B8ue170006IRcS3_LPv0EEEOT_OT0_, symObjAddr: 0xBB8C, symBinAddr: 0x100010874, symSize: 0x34 }
  - { offsetInCU: 0x27C02, offset: 0x42F55, size: 0x8, addend: 0x0, symName: __ZNSt3__112__hash_tableINS_17__hash_value_typeINS_12basic_stringIcNS_11char_traitsIcEENS_9allocatorIcEEEENS_4pairIccEEEENS_22__unordered_map_hasherIS7_SA_NS_4hashIS7_EENS_8equal_toIS7_EELb1EEENS_21__unordered_map_equalIS7_SA_SF_SD_Lb1EEENS5_ISA_EEEaSEOSK_, symObjAddr: 0xBBC0, symBinAddr: 0x1000108A8, symSize: 0x34 }
  - { offsetInCU: 0x27C38, offset: 0x42F8B, size: 0x8, addend: 0x0, symName: __ZNSt3__112__hash_tableINS_17__hash_value_typeINS_12basic_stringIcNS_11char_traitsIcEENS_9allocatorIcEEEENS_4pairIccEEEENS_22__unordered_map_hasherIS7_SA_NS_4hashIS7_EENS_8equal_toIS7_EELb1EEENS_21__unordered_map_equalIS7_SA_SF_SD_Lb1EEENS5_ISA_EEE13__move_assignERSK_NS_17integral_constantIbLb1EEE, symObjAddr: 0xBBF4, symBinAddr: 0x1000108DC, symSize: 0x1B8 }
  - { offsetInCU: 0x27C7A, offset: 0x42FCD, size: 0x8, addend: 0x0, symName: __ZNSt3__112__hash_tableINS_17__hash_value_typeINS_12basic_stringIcNS_11char_traitsIcEENS_9allocatorIcEEEENS_4pairIccEEEENS_22__unordered_map_hasherIS7_SA_NS_4hashIS7_EENS_8equal_toIS7_EELb1EEENS_21__unordered_map_equalIS7_SA_SF_SD_Lb1EEENS5_ISA_EEE5clearEv, symObjAddr: 0xBDAC, symBinAddr: 0x100010A94, symSize: 0xCC }
  - { offsetInCU: 0x27CDD, offset: 0x43030, size: 0x8, addend: 0x0, symName: __ZNSt3__110unique_ptrIA_PNS_16__hash_node_baseIPNS_11__hash_nodeINS_17__hash_value_typeINS_12basic_stringIcNS_11char_traitsIcEENS_9allocatorIcEEEENS_4pairIccEEEEPvEEEENS_25__bucket_list_deallocatorINS7_ISH_EEEEE7releaseB8ue170006Ev, symObjAddr: 0xBE78, symBinAddr: 0x100010B60, symSize: 0x44 }
  - { offsetInCU: 0x27D10, offset: 0x43063, size: 0x8, addend: 0x0, symName: __ZNSt3__112__hash_tableINS_17__hash_value_typeINS_12basic_stringIcNS_11char_traitsIcEENS_9allocatorIcEEEENS_4pairIccEEEENS_22__unordered_map_hasherIS7_SA_NS_4hashIS7_EENS_8equal_toIS7_EELb1EEENS_21__unordered_map_equalIS7_SA_SF_SD_Lb1EEENS5_ISA_EEE19__move_assign_allocB8ue170006ERSK_, symObjAddr: 0xBEBC, symBinAddr: 0x100010BA4, symSize: 0x2C }
  - { offsetInCU: 0x27D43, offset: 0x43096, size: 0x8, addend: 0x0, symName: __ZNSt3__112__hash_tableINS_17__hash_value_typeINS_12basic_stringIcNS_11char_traitsIcEENS_9allocatorIcEEEENS_4pairIccEEEENS_22__unordered_map_hasherIS7_SA_NS_4hashIS7_EENS_8equal_toIS7_EELb1EEENS_21__unordered_map_equalIS7_SA_SF_SD_Lb1EEENS5_ISA_EEE17__deallocate_nodeEPNS_16__hash_node_baseIPNS_11__hash_nodeISA_PvEEEE, symObjAddr: 0xBEE8, symBinAddr: 0x100010BD0, symSize: 0xA4 }
  - { offsetInCU: 0x27DAC, offset: 0x430FF, size: 0x8, addend: 0x0, symName: __ZNSt3__112__hash_tableINS_17__hash_value_typeINS_12basic_stringIcNS_11char_traitsIcEENS_9allocatorIcEEEENS_4pairIccEEEENS_22__unordered_map_hasherIS7_SA_NS_4hashIS7_EENS_8equal_toIS7_EELb1EEENS_21__unordered_map_equalIS7_SA_SF_SD_Lb1EEENS5_ISA_EEE19__move_assign_allocB8ue170006ERSK_NS_17integral_constantIbLb1EEE, symObjAddr: 0xBF8C, symBinAddr: 0x100010C74, symSize: 0x50 }
  - { offsetInCU: 0x27DEB, offset: 0x4313E, size: 0x8, addend: 0x0, symName: __ZNSt3__113unordered_mapINS_12basic_stringIcNS_11char_traitsIcEENS_9allocatorIcEEEENS_4pairIccEENS_4hashIS6_EENS_8equal_toIS6_EENS4_INS7_IKS6_S8_EEEEED2B8ue170006Ev, symObjAddr: 0xBFDC, symBinAddr: 0x100010CC4, symSize: 0x2C }
  - { offsetInCU: 0x27E13, offset: 0x43166, size: 0x8, addend: 0x0, symName: __ZNSt3__112__hash_tableINS_17__hash_value_typeINS_12basic_stringIcNS_11char_traitsIcEENS_9allocatorIcEEEENS_4pairIccEEEENS_22__unordered_map_hasherIS7_SA_NS_4hashIS7_EENS_8equal_toIS7_EELb1EEENS_21__unordered_map_equalIS7_SA_SF_SD_Lb1EEENS5_ISA_EEED1Ev, symObjAddr: 0xC008, symBinAddr: 0x100010CF0, symSize: 0x2C }
  - { offsetInCU: 0x27E3D, offset: 0x43190, size: 0x8, addend: 0x0, symName: __ZNSt3__112__hash_tableINS_17__hash_value_typeINS_12basic_stringIcNS_11char_traitsIcEENS_9allocatorIcEEEENS_4pairIccEEEENS_22__unordered_map_hasherIS7_SA_NS_4hashIS7_EENS_8equal_toIS7_EELb1EEENS_21__unordered_map_equalIS7_SA_SF_SD_Lb1EEENS5_ISA_EEED2Ev, symObjAddr: 0xC034, symBinAddr: 0x100010D1C, symSize: 0x48 }
  - { offsetInCU: 0x27E67, offset: 0x431BA, size: 0x8, addend: 0x0, symName: __ZNSt3__110unique_ptrIA_PNS_16__hash_node_baseIPNS_11__hash_nodeINS_17__hash_value_typeINS_12basic_stringIcNS_11char_traitsIcEENS_9allocatorIcEEEENS_4pairIccEEEEPvEEEENS_25__bucket_list_deallocatorINS7_ISH_EEEEED1B8ue170006Ev, symObjAddr: 0xC07C, symBinAddr: 0x100010D64, symSize: 0x2C }
  - { offsetInCU: 0x27E8F, offset: 0x431E2, size: 0x8, addend: 0x0, symName: __ZNSt3__110unique_ptrIA_PNS_16__hash_node_baseIPNS_11__hash_nodeINS_17__hash_value_typeINS_12basic_stringIcNS_11char_traitsIcEENS_9allocatorIcEEEENS_4pairIccEEEEPvEEEENS_25__bucket_list_deallocatorINS7_ISH_EEEEED2B8ue170006Ev, symObjAddr: 0xC0A8, symBinAddr: 0x100010D90, symSize: 0x30 }
  - { offsetInCU: 0x27EB7, offset: 0x4320A, size: 0x8, addend: 0x0, symName: __ZNSt3__110unique_ptrIA_PNS_16__hash_node_baseIPNS_11__hash_nodeINS_17__hash_value_typeINS_12basic_stringIcNS_11char_traitsIcEENS_9allocatorIcEEEENS_4pairIccEEEEPvEEEENS_25__bucket_list_deallocatorINS7_ISH_EEEEE5resetB8ue170006EDn, symObjAddr: 0xC0D8, symBinAddr: 0x100010DC0, symSize: 0x6C }
  - { offsetInCU: 0x27EF6, offset: 0x43249, size: 0x8, addend: 0x0, symName: __ZNKSt3__112__hash_tableINS_17__hash_value_typeINS_12basic_stringIcNS_11char_traitsIcEENS_9allocatorIcEEEENS_4pairIccEEEENS_22__unordered_map_hasherIS7_SA_NS_4hashIS7_EENS_8equal_toIS7_EELb1EEENS_21__unordered_map_equalIS7_SA_SF_SD_Lb1EEENS5_ISA_EEE4sizeB8ue170006Ev, symObjAddr: 0xC144, symBinAddr: 0x100010E2C, symSize: 0x2C }
  - { offsetInCU: 0x27F1A, offset: 0x4326D, size: 0x8, addend: 0x0, symName: __ZNKSt3__117__compressed_pairImNS_22__unordered_map_hasherINS_12basic_stringIcNS_11char_traitsIcEENS_9allocatorIcEEEENS_17__hash_value_typeIS7_NS_4pairIccEEEENS_4hashIS7_EENS_8equal_toIS7_EELb1EEEE5firstB8ue170006Ev, symObjAddr: 0xC170, symBinAddr: 0x100010E58, symSize: 0x24 }
  - { offsetInCU: 0x27F3E, offset: 0x43291, size: 0x8, addend: 0x0, symName: __ZNSt3__113basic_istreamIcNS_11char_traitsIcEEEC2B8ue170006EPNS_15basic_streambufIcS2_EE, symObjAddr: 0xC194, symBinAddr: 0x100010E7C, symSize: 0x64 }
  - { offsetInCU: 0x27F80, offset: 0x432D3, size: 0x8, addend: 0x0, symName: __ZNSt3__113unordered_mapINS_12basic_stringIcNS_11char_traitsIcEENS_9allocatorIcEEEEiNS_4hashIS6_EENS_8equal_toIS6_EENS4_INS_4pairIKS6_iEEEEEC2B8ue170006Ev, symObjAddr: 0xC1F8, symBinAddr: 0x100010EE0, symSize: 0x2C }
  - { offsetInCU: 0x27FA8, offset: 0x432FB, size: 0x8, addend: 0x0, symName: __ZNSt3__112__hash_tableINS_17__hash_value_typeINS_12basic_stringIcNS_11char_traitsIcEENS_9allocatorIcEEEEiEENS_22__unordered_map_hasherIS7_S8_NS_4hashIS7_EENS_8equal_toIS7_EELb1EEENS_21__unordered_map_equalIS7_S8_SD_SB_Lb1EEENS5_IS8_EEEC1Ev, symObjAddr: 0xC224, symBinAddr: 0x100010F0C, symSize: 0x2C }
  - { offsetInCU: 0x27FD2, offset: 0x43325, size: 0x8, addend: 0x0, symName: __ZNSt3__112__hash_tableINS_17__hash_value_typeINS_12basic_stringIcNS_11char_traitsIcEENS_9allocatorIcEEEEiEENS_22__unordered_map_hasherIS7_S8_NS_4hashIS7_EENS_8equal_toIS7_EELb1EEENS_21__unordered_map_equalIS7_S8_SD_SB_Lb1EEENS5_IS8_EEEC2Ev, symObjAddr: 0xC250, symBinAddr: 0x100010F38, symSize: 0x7C }
  - { offsetInCU: 0x27FFC, offset: 0x4334F, size: 0x8, addend: 0x0, symName: __ZNSt3__110unique_ptrIA_PNS_16__hash_node_baseIPNS_11__hash_nodeINS_17__hash_value_typeINS_12basic_stringIcNS_11char_traitsIcEENS_9allocatorIcEEEEiEEPvEEEENS_25__bucket_list_deallocatorINS7_ISF_EEEEEC1B8ue170006ILb1EvEEv, symObjAddr: 0xC2CC, symBinAddr: 0x100010FB4, symSize: 0x2C }
  - { offsetInCU: 0x28030, offset: 0x43383, size: 0x8, addend: 0x0, symName: __ZNSt3__117__compressed_pairINS_16__hash_node_baseIPNS_11__hash_nodeINS_17__hash_value_typeINS_12basic_stringIcNS_11char_traitsIcEENS_9allocatorIcEEEEiEEPvEEEENS7_ISC_EEEC1B8ue170006ILb1EvEEv, symObjAddr: 0xC2F8, symBinAddr: 0x100010FE0, symSize: 0x2C }
  - { offsetInCU: 0x28064, offset: 0x433B7, size: 0x8, addend: 0x0, symName: __ZNSt3__117__compressed_pairImNS_22__unordered_map_hasherINS_12basic_stringIcNS_11char_traitsIcEENS_9allocatorIcEEEENS_17__hash_value_typeIS7_iEENS_4hashIS7_EENS_8equal_toIS7_EELb1EEEEC1B8ue170006IiNS_18__default_init_tagEEEOT_OT0_, symObjAddr: 0xC324, symBinAddr: 0x10001100C, symSize: 0x3C }
  - { offsetInCU: 0x280BA, offset: 0x4340D, size: 0x8, addend: 0x0, symName: __ZNSt3__117__compressed_pairIfNS_21__unordered_map_equalINS_12basic_stringIcNS_11char_traitsIcEENS_9allocatorIcEEEENS_17__hash_value_typeIS7_iEENS_8equal_toIS7_EENS_4hashIS7_EELb1EEEEC1B8ue170006IfNS_18__default_init_tagEEEOT_OT0_, symObjAddr: 0xC360, symBinAddr: 0x100011048, symSize: 0x3C }
  - { offsetInCU: 0x28110, offset: 0x43463, size: 0x8, addend: 0x0, symName: __ZNSt3__110unique_ptrIA_PNS_16__hash_node_baseIPNS_11__hash_nodeINS_17__hash_value_typeINS_12basic_stringIcNS_11char_traitsIcEENS_9allocatorIcEEEEiEEPvEEEENS_25__bucket_list_deallocatorINS7_ISF_EEEEEC2B8ue170006ILb1EvEEv, symObjAddr: 0xC39C, symBinAddr: 0x100011084, symSize: 0x3C }
  - { offsetInCU: 0x28144, offset: 0x43497, size: 0x8, addend: 0x0, symName: __ZNSt3__117__compressed_pairIPPNS_16__hash_node_baseIPNS_11__hash_nodeINS_17__hash_value_typeINS_12basic_stringIcNS_11char_traitsIcEENS_9allocatorIcEEEEiEEPvEEEENS_25__bucket_list_deallocatorINS7_ISF_EEEEEC1B8ue170006INS_16__value_init_tagESM_EEOT_OT0_, symObjAddr: 0xC3D8, symBinAddr: 0x1000110C0, symSize: 0x3C }
  - { offsetInCU: 0x2819A, offset: 0x434ED, size: 0x8, addend: 0x0, symName: __ZNSt3__117__compressed_pairIPPNS_16__hash_node_baseIPNS_11__hash_nodeINS_17__hash_value_typeINS_12basic_stringIcNS_11char_traitsIcEENS_9allocatorIcEEEEiEEPvEEEENS_25__bucket_list_deallocatorINS7_ISF_EEEEEC2B8ue170006INS_16__value_init_tagESM_EEOT_OT0_, symObjAddr: 0xC414, symBinAddr: 0x1000110FC, symSize: 0x40 }
  - { offsetInCU: 0x281F0, offset: 0x43543, size: 0x8, addend: 0x0, symName: __ZNSt3__122__compressed_pair_elemIPPNS_16__hash_node_baseIPNS_11__hash_nodeINS_17__hash_value_typeINS_12basic_stringIcNS_11char_traitsIcEENS_9allocatorIcEEEEiEEPvEEEELi0ELb0EEC2B8ue170006ENS_16__value_init_tagE, symObjAddr: 0xC454, symBinAddr: 0x10001113C, symSize: 0x18 }
  - { offsetInCU: 0x28224, offset: 0x43577, size: 0x8, addend: 0x0, symName: __ZNSt3__122__compressed_pair_elemINS_25__bucket_list_deallocatorINS_9allocatorIPNS_16__hash_node_baseIPNS_11__hash_nodeINS_17__hash_value_typeINS_12basic_stringIcNS_11char_traitsIcEENS2_IcEEEEiEEPvEEEEEEEELi1ELb0EEC2B8ue170006ENS_16__value_init_tagE, symObjAddr: 0xC46C, symBinAddr: 0x100011154, symSize: 0x2C }
  - { offsetInCU: 0x28257, offset: 0x435AA, size: 0x8, addend: 0x0, symName: __ZNSt3__125__bucket_list_deallocatorINS_9allocatorIPNS_16__hash_node_baseIPNS_11__hash_nodeINS_17__hash_value_typeINS_12basic_stringIcNS_11char_traitsIcEENS1_IcEEEEiEEPvEEEEEEEC1B8ue170006Ev, symObjAddr: 0xC498, symBinAddr: 0x100011180, symSize: 0x2C }
  - { offsetInCU: 0x2827F, offset: 0x435D2, size: 0x8, addend: 0x0, symName: __ZNSt3__125__bucket_list_deallocatorINS_9allocatorIPNS_16__hash_node_baseIPNS_11__hash_nodeINS_17__hash_value_typeINS_12basic_stringIcNS_11char_traitsIcEENS1_IcEEEEiEEPvEEEEEEEC2B8ue170006Ev, symObjAddr: 0xC4C4, symBinAddr: 0x1000111AC, symSize: 0x40 }
  - { offsetInCU: 0x282A7, offset: 0x435FA, size: 0x8, addend: 0x0, symName: __ZNSt3__117__compressed_pairImNS_9allocatorIPNS_16__hash_node_baseIPNS_11__hash_nodeINS_17__hash_value_typeINS_12basic_stringIcNS_11char_traitsIcEENS1_IcEEEEiEEPvEEEEEEEC1B8ue170006IiNS_18__default_init_tagEEEOT_OT0_, symObjAddr: 0xC504, symBinAddr: 0x1000111EC, symSize: 0x3C }
  - { offsetInCU: 0x282FD, offset: 0x43650, size: 0x8, addend: 0x0, symName: __ZNSt3__117__compressed_pairImNS_9allocatorIPNS_16__hash_node_baseIPNS_11__hash_nodeINS_17__hash_value_typeINS_12basic_stringIcNS_11char_traitsIcEENS1_IcEEEEiEEPvEEEEEEEC2B8ue170006IiNS_18__default_init_tagEEEOT_OT0_, symObjAddr: 0xC540, symBinAddr: 0x100011228, symSize: 0x40 }
  - { offsetInCU: 0x28353, offset: 0x436A6, size: 0x8, addend: 0x0, symName: __ZNSt3__122__compressed_pair_elemINS_9allocatorIPNS_16__hash_node_baseIPNS_11__hash_nodeINS_17__hash_value_typeINS_12basic_stringIcNS_11char_traitsIcEENS1_IcEEEEiEEPvEEEEEELi1ELb1EEC2B8ue170006ENS_18__default_init_tagE, symObjAddr: 0xC580, symBinAddr: 0x100011268, symSize: 0x2C }
  - { offsetInCU: 0x28386, offset: 0x436D9, size: 0x8, addend: 0x0, symName: __ZNSt3__19allocatorIPNS_16__hash_node_baseIPNS_11__hash_nodeINS_17__hash_value_typeINS_12basic_stringIcNS_11char_traitsIcEENS0_IcEEEEiEEPvEEEEEC2B8ue170006Ev, symObjAddr: 0xC5AC, symBinAddr: 0x100011294, symSize: 0x2C }
  - { offsetInCU: 0x283AE, offset: 0x43701, size: 0x8, addend: 0x0, symName: __ZNSt3__116__non_trivial_ifILb1ENS_9allocatorIPNS_16__hash_node_baseIPNS_11__hash_nodeINS_17__hash_value_typeINS_12basic_stringIcNS_11char_traitsIcEENS1_IcEEEEiEEPvEEEEEEEC2B8ue170006Ev, symObjAddr: 0xC5D8, symBinAddr: 0x1000112C0, symSize: 0x14 }
  - { offsetInCU: 0x283D7, offset: 0x4372A, size: 0x8, addend: 0x0, symName: __ZNSt3__117__compressed_pairINS_16__hash_node_baseIPNS_11__hash_nodeINS_17__hash_value_typeINS_12basic_stringIcNS_11char_traitsIcEENS_9allocatorIcEEEEiEEPvEEEENS7_ISC_EEEC2B8ue170006ILb1EvEEv, symObjAddr: 0xC5EC, symBinAddr: 0x1000112D4, symSize: 0x34 }
  - { offsetInCU: 0x2840B, offset: 0x4375E, size: 0x8, addend: 0x0, symName: __ZNSt3__122__compressed_pair_elemINS_16__hash_node_baseIPNS_11__hash_nodeINS_17__hash_value_typeINS_12basic_stringIcNS_11char_traitsIcEENS_9allocatorIcEEEEiEEPvEEEELi0ELb0EEC2B8ue170006ENS_16__value_init_tagE, symObjAddr: 0xC620, symBinAddr: 0x100011308, symSize: 0x2C }
  - { offsetInCU: 0x2843E, offset: 0x43791, size: 0x8, addend: 0x0, symName: __ZNSt3__122__compressed_pair_elemINS_9allocatorINS_11__hash_nodeINS_17__hash_value_typeINS_12basic_stringIcNS_11char_traitsIcEENS1_IcEEEEiEEPvEEEELi1ELb1EEC2B8ue170006ENS_16__value_init_tagE, symObjAddr: 0xC64C, symBinAddr: 0x100011334, symSize: 0x2C }
  - { offsetInCU: 0x28471, offset: 0x437C4, size: 0x8, addend: 0x0, symName: __ZNSt3__116__hash_node_baseIPNS_11__hash_nodeINS_17__hash_value_typeINS_12basic_stringIcNS_11char_traitsIcEENS_9allocatorIcEEEEiEEPvEEEC1B8ue170006Ev, symObjAddr: 0xC678, symBinAddr: 0x100011360, symSize: 0x2C }
  - { offsetInCU: 0x28499, offset: 0x437EC, size: 0x8, addend: 0x0, symName: __ZNSt3__116__hash_node_baseIPNS_11__hash_nodeINS_17__hash_value_typeINS_12basic_stringIcNS_11char_traitsIcEENS_9allocatorIcEEEEiEEPvEEEC2B8ue170006Ev, symObjAddr: 0xC6A4, symBinAddr: 0x10001138C, symSize: 0x18 }
  - { offsetInCU: 0x284C2, offset: 0x43815, size: 0x8, addend: 0x0, symName: __ZNSt3__19allocatorINS_11__hash_nodeINS_17__hash_value_typeINS_12basic_stringIcNS_11char_traitsIcEENS0_IcEEEEiEEPvEEEC2B8ue170006Ev, symObjAddr: 0xC6BC, symBinAddr: 0x1000113A4, symSize: 0x2C }
  - { offsetInCU: 0x284EA, offset: 0x4383D, size: 0x8, addend: 0x0, symName: __ZNSt3__116__non_trivial_ifILb1ENS_9allocatorINS_11__hash_nodeINS_17__hash_value_typeINS_12basic_stringIcNS_11char_traitsIcEENS1_IcEEEEiEEPvEEEEEC2B8ue170006Ev, symObjAddr: 0xC6E8, symBinAddr: 0x1000113D0, symSize: 0x14 }
  - { offsetInCU: 0x28513, offset: 0x43866, size: 0x8, addend: 0x0, symName: __ZNSt3__117__compressed_pairImNS_22__unordered_map_hasherINS_12basic_stringIcNS_11char_traitsIcEENS_9allocatorIcEEEENS_17__hash_value_typeIS7_iEENS_4hashIS7_EENS_8equal_toIS7_EELb1EEEEC2B8ue170006IiNS_18__default_init_tagEEEOT_OT0_, symObjAddr: 0xC6FC, symBinAddr: 0x1000113E4, symSize: 0x40 }
  - { offsetInCU: 0x28569, offset: 0x438BC, size: 0x8, addend: 0x0, symName: __ZNSt3__122__compressed_pair_elemINS_22__unordered_map_hasherINS_12basic_stringIcNS_11char_traitsIcEENS_9allocatorIcEEEENS_17__hash_value_typeIS7_iEENS_4hashIS7_EENS_8equal_toIS7_EELb1EEELi1ELb1EEC2B8ue170006ENS_18__default_init_tagE, symObjAddr: 0xC73C, symBinAddr: 0x100011424, symSize: 0x2C }
  - { offsetInCU: 0x2859C, offset: 0x438EF, size: 0x8, addend: 0x0, symName: __ZNSt3__122__unordered_map_hasherINS_12basic_stringIcNS_11char_traitsIcEENS_9allocatorIcEEEENS_17__hash_value_typeIS6_iEENS_4hashIS6_EENS_8equal_toIS6_EELb1EEC2B8ue170006Ev, symObjAddr: 0xC768, symBinAddr: 0x100011450, symSize: 0x14 }
  - { offsetInCU: 0x285C5, offset: 0x43918, size: 0x8, addend: 0x0, symName: __ZNSt3__117__compressed_pairIfNS_21__unordered_map_equalINS_12basic_stringIcNS_11char_traitsIcEENS_9allocatorIcEEEENS_17__hash_value_typeIS7_iEENS_8equal_toIS7_EENS_4hashIS7_EELb1EEEEC2B8ue170006IfNS_18__default_init_tagEEEOT_OT0_, symObjAddr: 0xC77C, symBinAddr: 0x100011464, symSize: 0x40 }
  - { offsetInCU: 0x2861B, offset: 0x4396E, size: 0x8, addend: 0x0, symName: __ZNSt3__122__compressed_pair_elemINS_21__unordered_map_equalINS_12basic_stringIcNS_11char_traitsIcEENS_9allocatorIcEEEENS_17__hash_value_typeIS7_iEENS_8equal_toIS7_EENS_4hashIS7_EELb1EEELi1ELb1EEC2B8ue170006ENS_18__default_init_tagE, symObjAddr: 0xC7BC, symBinAddr: 0x1000114A4, symSize: 0x2C }
  - { offsetInCU: 0x2864E, offset: 0x439A1, size: 0x8, addend: 0x0, symName: __ZNSt3__121__unordered_map_equalINS_12basic_stringIcNS_11char_traitsIcEENS_9allocatorIcEEEENS_17__hash_value_typeIS6_iEENS_8equal_toIS6_EENS_4hashIS6_EELb1EEC2B8ue170006Ev, symObjAddr: 0xC7E8, symBinAddr: 0x1000114D0, symSize: 0x14 }
  - { offsetInCU: 0x2868B, offset: 0x439DE, size: 0x8, addend: 0x0, symName: __ZNSt3__112__hash_tableINS_17__hash_value_typeINS_12basic_stringIcNS_11char_traitsIcEENS_9allocatorIcEEEEiEENS_22__unordered_map_hasherIS7_S8_NS_4hashIS7_EENS_8equal_toIS7_EELb1EEENS_21__unordered_map_equalIS7_S8_SD_SB_Lb1EEENS5_IS8_EEE25__emplace_unique_key_argsIS7_JRKNS_21piecewise_construct_tENS_5tupleIJRKS7_EEENSN_IJEEEEEENS_4pairINS_15__hash_iteratorIPNS_11__hash_nodeIS8_PvEEEEbEERKT_DpOT0_, symObjAddr: 0xC7FC, symBinAddr: 0x1000114E4, symSize: 0x4CC }
  - { offsetInCU: 0x28798, offset: 0x43AEB, size: 0x8, addend: 0x0, symName: __ZNKSt3__115__hash_iteratorIPNS_11__hash_nodeINS_17__hash_value_typeINS_12basic_stringIcNS_11char_traitsIcEENS_9allocatorIcEEEEiEEPvEEEptB8ue170006Ev, symObjAddr: 0xCCF8, symBinAddr: 0x1000119E0, symSize: 0x30 }
  - { offsetInCU: 0x287BC, offset: 0x43B0F, size: 0x8, addend: 0x0, symName: __ZNSt3__117__hash_value_typeINS_12basic_stringIcNS_11char_traitsIcEENS_9allocatorIcEEEEiE11__get_valueB8ue170006Ev, symObjAddr: 0xCD28, symBinAddr: 0x100011A10, symSize: 0x24 }
  - { offsetInCU: 0x287E0, offset: 0x43B33, size: 0x8, addend: 0x0, symName: __ZNSt3__112__hash_tableINS_17__hash_value_typeINS_12basic_stringIcNS_11char_traitsIcEENS_9allocatorIcEEEEiEENS_22__unordered_map_hasherIS7_S8_NS_4hashIS7_EENS_8equal_toIS7_EELb1EEENS_21__unordered_map_equalIS7_S8_SD_SB_Lb1EEENS5_IS8_EEE13hash_functionB8ue170006Ev, symObjAddr: 0xCD4C, symBinAddr: 0x100011A34, symSize: 0x28 }
  - { offsetInCU: 0x28804, offset: 0x43B57, size: 0x8, addend: 0x0, symName: __ZNKSt3__122__unordered_map_hasherINS_12basic_stringIcNS_11char_traitsIcEENS_9allocatorIcEEEENS_17__hash_value_typeIS6_iEENS_4hashIS6_EENS_8equal_toIS6_EELb1EEclB8ue170006ERKS6_, symObjAddr: 0xCD74, symBinAddr: 0x100011A5C, symSize: 0x2C }
  - { offsetInCU: 0x28837, offset: 0x43B8A, size: 0x8, addend: 0x0, symName: __ZNKSt3__112__hash_tableINS_17__hash_value_typeINS_12basic_stringIcNS_11char_traitsIcEENS_9allocatorIcEEEEiEENS_22__unordered_map_hasherIS7_S8_NS_4hashIS7_EENS_8equal_toIS7_EELb1EEENS_21__unordered_map_equalIS7_S8_SD_SB_Lb1EEENS5_IS8_EEE12bucket_countB8ue170006Ev, symObjAddr: 0xCDA0, symBinAddr: 0x100011A88, symSize: 0x28 }
  - { offsetInCU: 0x2885B, offset: 0x43BAE, size: 0x8, addend: 0x0, symName: __ZNKSt3__110unique_ptrIA_PNS_16__hash_node_baseIPNS_11__hash_nodeINS_17__hash_value_typeINS_12basic_stringIcNS_11char_traitsIcEENS_9allocatorIcEEEEiEEPvEEEENS_25__bucket_list_deallocatorINS7_ISF_EEEEEixB8ue170006Em, symObjAddr: 0xCDC8, symBinAddr: 0x100011AB0, symSize: 0x34 }
  - { offsetInCU: 0x2888E, offset: 0x43BE1, size: 0x8, addend: 0x0, symName: __ZNKSt3__116__hash_node_baseIPNS_11__hash_nodeINS_17__hash_value_typeINS_12basic_stringIcNS_11char_traitsIcEENS_9allocatorIcEEEEiEEPvEEE6__hashB8ue170006Ev, symObjAddr: 0xCDFC, symBinAddr: 0x100011AE4, symSize: 0x18 }
  - { offsetInCU: 0x288B3, offset: 0x43C06, size: 0x8, addend: 0x0, symName: __ZNSt3__112__hash_tableINS_17__hash_value_typeINS_12basic_stringIcNS_11char_traitsIcEENS_9allocatorIcEEEEiEENS_22__unordered_map_hasherIS7_S8_NS_4hashIS7_EENS_8equal_toIS7_EELb1EEENS_21__unordered_map_equalIS7_S8_SD_SB_Lb1EEENS5_IS8_EEE6key_eqB8ue170006Ev, symObjAddr: 0xCE14, symBinAddr: 0x100011AFC, symSize: 0x28 }
  - { offsetInCU: 0x288D7, offset: 0x43C2A, size: 0x8, addend: 0x0, symName: __ZNKSt3__121__unordered_map_equalINS_12basic_stringIcNS_11char_traitsIcEENS_9allocatorIcEEEENS_17__hash_value_typeIS6_iEENS_8equal_toIS6_EENS_4hashIS6_EELb1EEclB8ue170006ERKS8_RKS6_, symObjAddr: 0xCE3C, symBinAddr: 0x100011B24, symSize: 0x48 }
  - { offsetInCU: 0x28919, offset: 0x43C6C, size: 0x8, addend: 0x0, symName: __ZNSt3__116__hash_node_baseIPNS_11__hash_nodeINS_17__hash_value_typeINS_12basic_stringIcNS_11char_traitsIcEENS_9allocatorIcEEEEiEEPvEEE8__upcastB8ue170006Ev, symObjAddr: 0xCE84, symBinAddr: 0x100011B6C, symSize: 0x24 }
  - { offsetInCU: 0x2893D, offset: 0x43C90, size: 0x8, addend: 0x0, symName: __ZNSt3__112__hash_tableINS_17__hash_value_typeINS_12basic_stringIcNS_11char_traitsIcEENS_9allocatorIcEEEEiEENS_22__unordered_map_hasherIS7_S8_NS_4hashIS7_EENS_8equal_toIS7_EELb1EEENS_21__unordered_map_equalIS7_S8_SD_SB_Lb1EEENS5_IS8_EEE21__construct_node_hashIRKNS_21piecewise_construct_tEJNS_5tupleIJRKS7_EEENSN_IJEEEEEENS_10unique_ptrINS_11__hash_nodeIS8_PvEENS_22__hash_node_destructorINS5_ISV_EEEEEEmOT_DpOT0_, symObjAddr: 0xCEA8, symBinAddr: 0x100011B90, symSize: 0x150 }
  - { offsetInCU: 0x289DB, offset: 0x43D2E, size: 0x8, addend: 0x0, symName: __ZNSt3__112__hash_tableINS_17__hash_value_typeINS_12basic_stringIcNS_11char_traitsIcEENS_9allocatorIcEEEEiEENS_22__unordered_map_hasherIS7_S8_NS_4hashIS7_EENS_8equal_toIS7_EELb1EEENS_21__unordered_map_equalIS7_S8_SD_SB_Lb1EEENS5_IS8_EEE4sizeB8ue170006Ev, symObjAddr: 0xCFF8, symBinAddr: 0x100011CE0, symSize: 0x28 }
  - { offsetInCU: 0x289FF, offset: 0x43D52, size: 0x8, addend: 0x0, symName: __ZNSt3__112__hash_tableINS_17__hash_value_typeINS_12basic_stringIcNS_11char_traitsIcEENS_9allocatorIcEEEEiEENS_22__unordered_map_hasherIS7_S8_NS_4hashIS7_EENS_8equal_toIS7_EELb1EEENS_21__unordered_map_equalIS7_S8_SD_SB_Lb1EEENS5_IS8_EEE15max_load_factorB8ue170006Ev, symObjAddr: 0xD020, symBinAddr: 0x100011D08, symSize: 0x28 }
  - { offsetInCU: 0x28A23, offset: 0x43D76, size: 0x8, addend: 0x0, symName: __ZNSt3__112__hash_tableINS_17__hash_value_typeINS_12basic_stringIcNS_11char_traitsIcEENS_9allocatorIcEEEEiEENS_22__unordered_map_hasherIS7_S8_NS_4hashIS7_EENS_8equal_toIS7_EELb1EEENS_21__unordered_map_equalIS7_S8_SD_SB_Lb1EEENS5_IS8_EEE15__rehash_uniqueB8ue170006Em, symObjAddr: 0xD048, symBinAddr: 0x100011D30, symSize: 0x2C }
  - { offsetInCU: 0x28A56, offset: 0x43DA9, size: 0x8, addend: 0x0, symName: __ZNSt3__117__compressed_pairINS_16__hash_node_baseIPNS_11__hash_nodeINS_17__hash_value_typeINS_12basic_stringIcNS_11char_traitsIcEENS_9allocatorIcEEEEiEEPvEEEENS7_ISC_EEE5firstB8ue170006Ev, symObjAddr: 0xD074, symBinAddr: 0x100011D5C, symSize: 0x24 }
  - { offsetInCU: 0x28A7A, offset: 0x43DCD, size: 0x8, addend: 0x0, symName: __ZNSt3__116__hash_node_baseIPNS_11__hash_nodeINS_17__hash_value_typeINS_12basic_stringIcNS_11char_traitsIcEENS_9allocatorIcEEEEiEEPvEEE5__ptrB8ue170006Ev, symObjAddr: 0xD098, symBinAddr: 0x100011D80, symSize: 0x24 }
  - { offsetInCU: 0x28A9E, offset: 0x43DF1, size: 0x8, addend: 0x0, symName: __ZNKSt3__110unique_ptrINS_11__hash_nodeINS_17__hash_value_typeINS_12basic_stringIcNS_11char_traitsIcEENS_9allocatorIcEEEEiEEPvEENS_22__hash_node_destructorINS6_ISB_EEEEEptB8ue170006Ev, symObjAddr: 0xD0BC, symBinAddr: 0x100011DA4, symSize: 0x28 }
  - { offsetInCU: 0x28AC2, offset: 0x43E15, size: 0x8, addend: 0x0, symName: __ZNKSt3__110unique_ptrINS_11__hash_nodeINS_17__hash_value_typeINS_12basic_stringIcNS_11char_traitsIcEENS_9allocatorIcEEEEiEEPvEENS_22__hash_node_destructorINS6_ISB_EEEEE3getB8ue170006Ev, symObjAddr: 0xD0E4, symBinAddr: 0x100011DCC, symSize: 0x28 }
  - { offsetInCU: 0x28AE6, offset: 0x43E39, size: 0x8, addend: 0x0, symName: __ZNSt3__110unique_ptrINS_11__hash_nodeINS_17__hash_value_typeINS_12basic_stringIcNS_11char_traitsIcEENS_9allocatorIcEEEEiEEPvEENS_22__hash_node_destructorINS6_ISB_EEEEE7releaseB8ue170006Ev, symObjAddr: 0xD10C, symBinAddr: 0x100011DF4, symSize: 0x44 }
  - { offsetInCU: 0x28B19, offset: 0x43E6C, size: 0x8, addend: 0x0, symName: __ZNSt3__110unique_ptrINS_11__hash_nodeINS_17__hash_value_typeINS_12basic_stringIcNS_11char_traitsIcEENS_9allocatorIcEEEEiEEPvEENS_22__hash_node_destructorINS6_ISB_EEEEED1B8ue170006Ev, symObjAddr: 0xD150, symBinAddr: 0x100011E38, symSize: 0x2C }
  - { offsetInCU: 0x28B41, offset: 0x43E94, size: 0x8, addend: 0x0, symName: __ZNSt3__115__hash_iteratorIPNS_11__hash_nodeINS_17__hash_value_typeINS_12basic_stringIcNS_11char_traitsIcEENS_9allocatorIcEEEEiEEPvEEEC1B8ue170006EPNS_16__hash_node_baseISC_EE, symObjAddr: 0xD17C, symBinAddr: 0x100011E64, symSize: 0x34 }
  - { offsetInCU: 0x28B7D, offset: 0x43ED0, size: 0x8, addend: 0x0, symName: __ZNSt3__14pairINS_15__hash_iteratorIPNS_11__hash_nodeINS_17__hash_value_typeINS_12basic_stringIcNS_11char_traitsIcEENS_9allocatorIcEEEEiEEPvEEEEbEC1B8ue170006ISE_RbLSB_0EEEOT_OT0_, symObjAddr: 0xD1B0, symBinAddr: 0x100011E98, symSize: 0x3C }
  - { offsetInCU: 0x28BDA, offset: 0x43F2D, size: 0x8, addend: 0x0, symName: __ZNSt3__117__compressed_pairImNS_22__unordered_map_hasherINS_12basic_stringIcNS_11char_traitsIcEENS_9allocatorIcEEEENS_17__hash_value_typeIS7_iEENS_4hashIS7_EENS_8equal_toIS7_EELb1EEEE6secondB8ue170006Ev, symObjAddr: 0xD1EC, symBinAddr: 0x100011ED4, symSize: 0x24 }
  - { offsetInCU: 0x28BFE, offset: 0x43F51, size: 0x8, addend: 0x0, symName: __ZNSt3__122__compressed_pair_elemINS_22__unordered_map_hasherINS_12basic_stringIcNS_11char_traitsIcEENS_9allocatorIcEEEENS_17__hash_value_typeIS7_iEENS_4hashIS7_EENS_8equal_toIS7_EELb1EEELi1ELb1EE5__getB8ue170006Ev, symObjAddr: 0xD210, symBinAddr: 0x100011EF8, symSize: 0x14 }
  - { offsetInCU: 0x28C23, offset: 0x43F76, size: 0x8, addend: 0x0, symName: __ZNKSt3__110unique_ptrIA_PNS_16__hash_node_baseIPNS_11__hash_nodeINS_17__hash_value_typeINS_12basic_stringIcNS_11char_traitsIcEENS_9allocatorIcEEEEiEEPvEEEENS_25__bucket_list_deallocatorINS7_ISF_EEEEE11get_deleterB8ue170006Ev, symObjAddr: 0xD224, symBinAddr: 0x100011F0C, symSize: 0x24 }
  - { offsetInCU: 0x28C47, offset: 0x43F9A, size: 0x8, addend: 0x0, symName: __ZNKSt3__125__bucket_list_deallocatorINS_9allocatorIPNS_16__hash_node_baseIPNS_11__hash_nodeINS_17__hash_value_typeINS_12basic_stringIcNS_11char_traitsIcEENS1_IcEEEEiEEPvEEEEEEE4sizeB8ue170006Ev, symObjAddr: 0xD248, symBinAddr: 0x100011F30, symSize: 0x28 }
  - { offsetInCU: 0x28C6B, offset: 0x43FBE, size: 0x8, addend: 0x0, symName: __ZNKSt3__117__compressed_pairIPPNS_16__hash_node_baseIPNS_11__hash_nodeINS_17__hash_value_typeINS_12basic_stringIcNS_11char_traitsIcEENS_9allocatorIcEEEEiEEPvEEEENS_25__bucket_list_deallocatorINS7_ISF_EEEEE6secondB8ue170006Ev, symObjAddr: 0xD270, symBinAddr: 0x100011F58, symSize: 0x28 }
  - { offsetInCU: 0x28C8F, offset: 0x43FE2, size: 0x8, addend: 0x0, symName: __ZNKSt3__122__compressed_pair_elemINS_25__bucket_list_deallocatorINS_9allocatorIPNS_16__hash_node_baseIPNS_11__hash_nodeINS_17__hash_value_typeINS_12basic_stringIcNS_11char_traitsIcEENS2_IcEEEEiEEPvEEEEEEEELi1ELb0EE5__getB8ue170006Ev, symObjAddr: 0xD298, symBinAddr: 0x100011F80, symSize: 0x14 }
  - { offsetInCU: 0x28CB4, offset: 0x44007, size: 0x8, addend: 0x0, symName: __ZNKSt3__117__compressed_pairImNS_9allocatorIPNS_16__hash_node_baseIPNS_11__hash_nodeINS_17__hash_value_typeINS_12basic_stringIcNS_11char_traitsIcEENS1_IcEEEEiEEPvEEEEEEE5firstB8ue170006Ev, symObjAddr: 0xD2AC, symBinAddr: 0x100011F94, symSize: 0x24 }
  - { offsetInCU: 0x28CD8, offset: 0x4402B, size: 0x8, addend: 0x0, symName: __ZNKSt3__117__compressed_pairIPPNS_16__hash_node_baseIPNS_11__hash_nodeINS_17__hash_value_typeINS_12basic_stringIcNS_11char_traitsIcEENS_9allocatorIcEEEEiEEPvEEEENS_25__bucket_list_deallocatorINS7_ISF_EEEEE5firstB8ue170006Ev, symObjAddr: 0xD2D0, symBinAddr: 0x100011FB8, symSize: 0x24 }
  - { offsetInCU: 0x28CFC, offset: 0x4404F, size: 0x8, addend: 0x0, symName: __ZNKSt3__122__compressed_pair_elemIPPNS_16__hash_node_baseIPNS_11__hash_nodeINS_17__hash_value_typeINS_12basic_stringIcNS_11char_traitsIcEENS_9allocatorIcEEEEiEEPvEEEELi0ELb0EE5__getB8ue170006Ev, symObjAddr: 0xD2F4, symBinAddr: 0x100011FDC, symSize: 0x14 }
  - { offsetInCU: 0x28D21, offset: 0x44074, size: 0x8, addend: 0x0, symName: __ZNSt3__117__compressed_pairIfNS_21__unordered_map_equalINS_12basic_stringIcNS_11char_traitsIcEENS_9allocatorIcEEEENS_17__hash_value_typeIS7_iEENS_8equal_toIS7_EENS_4hashIS7_EELb1EEEE6secondB8ue170006Ev, symObjAddr: 0xD308, symBinAddr: 0x100011FF0, symSize: 0x24 }
  - { offsetInCU: 0x28D45, offset: 0x44098, size: 0x8, addend: 0x0, symName: __ZNSt3__122__compressed_pair_elemINS_21__unordered_map_equalINS_12basic_stringIcNS_11char_traitsIcEENS_9allocatorIcEEEENS_17__hash_value_typeIS7_iEENS_8equal_toIS7_EENS_4hashIS7_EELb1EEELi1ELb1EE5__getB8ue170006Ev, symObjAddr: 0xD32C, symBinAddr: 0x100012014, symSize: 0x14 }
  - { offsetInCU: 0x28D6A, offset: 0x440BD, size: 0x8, addend: 0x0, symName: __ZNKSt3__117__hash_value_typeINS_12basic_stringIcNS_11char_traitsIcEENS_9allocatorIcEEEEiE11__get_valueB8ue170006Ev, symObjAddr: 0xD340, symBinAddr: 0x100012028, symSize: 0x24 }
  - { offsetInCU: 0x28D8E, offset: 0x440E1, size: 0x8, addend: 0x0, symName: __ZNSt3__114pointer_traitsIPNS_16__hash_node_baseIPNS_11__hash_nodeINS_17__hash_value_typeINS_12basic_stringIcNS_11char_traitsIcEENS_9allocatorIcEEEEiEEPvEEEEE10pointer_toB8ue170006ERSE_, symObjAddr: 0xD39C, symBinAddr: 0x100012084, symSize: 0x14 }
  - { offsetInCU: 0x28DB1, offset: 0x44104, size: 0x8, addend: 0x0, symName: __ZNSt3__112__hash_tableINS_17__hash_value_typeINS_12basic_stringIcNS_11char_traitsIcEENS_9allocatorIcEEEEiEENS_22__unordered_map_hasherIS7_S8_NS_4hashIS7_EENS_8equal_toIS7_EELb1EEENS_21__unordered_map_equalIS7_S8_SD_SB_Lb1EEENS5_IS8_EEE12__node_allocB8ue170006Ev, symObjAddr: 0xD3B0, symBinAddr: 0x100012098, symSize: 0x28 }
  - { offsetInCU: 0x28DD5, offset: 0x44128, size: 0x8, addend: 0x0, symName: __ZNSt3__116allocator_traitsINS_9allocatorINS_11__hash_nodeINS_17__hash_value_typeINS_12basic_stringIcNS_11char_traitsIcEENS1_IcEEEEiEEPvEEEEE8allocateB8ue170006ERSC_m, symObjAddr: 0xD3D8, symBinAddr: 0x1000120C0, symSize: 0x2C }
  - { offsetInCU: 0x28E07, offset: 0x4415A, size: 0x8, addend: 0x0, symName: __ZNSt3__122__hash_node_destructorINS_9allocatorINS_11__hash_nodeINS_17__hash_value_typeINS_12basic_stringIcNS_11char_traitsIcEENS1_IcEEEEiEEPvEEEEEC1B8ue170006ERSC_b, symObjAddr: 0xD404, symBinAddr: 0x1000120EC, symSize: 0x48 }
  - { offsetInCU: 0x28E52, offset: 0x441A5, size: 0x8, addend: 0x0, symName: __ZNSt3__110unique_ptrINS_11__hash_nodeINS_17__hash_value_typeINS_12basic_stringIcNS_11char_traitsIcEENS_9allocatorIcEEEEiEEPvEENS_22__hash_node_destructorINS6_ISB_EEEEEC1B8ue170006ILb1EvEEPSB_NS_16__dependent_typeINS_27__unique_ptr_deleter_sfinaeISE_EEXT_EE20__good_rval_ref_typeE, symObjAddr: 0xD44C, symBinAddr: 0x100012134, symSize: 0x3C }
  - { offsetInCU: 0x28EA2, offset: 0x441F5, size: 0x8, addend: 0x0, symName: __ZNSt3__116allocator_traitsINS_9allocatorINS_11__hash_nodeINS_17__hash_value_typeINS_12basic_stringIcNS_11char_traitsIcEENS1_IcEEEEiEEPvEEEEE9constructB8ue170006INS_4pairIKS8_iEEJRKNS_21piecewise_construct_tENS_5tupleIJRSG_EEENSL_IJEEEEvEEvRSC_PT_DpOT0_, symObjAddr: 0xD488, symBinAddr: 0x100012170, symSize: 0x44 }
  - { offsetInCU: 0x28F25, offset: 0x44278, size: 0x8, addend: 0x0, symName: __ZNSt3__122__hash_key_value_typesINS_17__hash_value_typeINS_12basic_stringIcNS_11char_traitsIcEENS_9allocatorIcEEEEiEEE9__get_ptrB8ue170006ERS8_, symObjAddr: 0xD4CC, symBinAddr: 0x1000121B4, symSize: 0x24 }
  - { offsetInCU: 0x28F47, offset: 0x4429A, size: 0x8, addend: 0x0, symName: __ZNSt3__110unique_ptrINS_11__hash_nodeINS_17__hash_value_typeINS_12basic_stringIcNS_11char_traitsIcEENS_9allocatorIcEEEEiEEPvEENS_22__hash_node_destructorINS6_ISB_EEEEE11get_deleterB8ue170006Ev, symObjAddr: 0xD4F0, symBinAddr: 0x1000121D8, symSize: 0x24 }
  - { offsetInCU: 0x28F6B, offset: 0x442BE, size: 0x8, addend: 0x0, symName: __ZNSt3__117__compressed_pairINS_16__hash_node_baseIPNS_11__hash_nodeINS_17__hash_value_typeINS_12basic_stringIcNS_11char_traitsIcEENS_9allocatorIcEEEEiEEPvEEEENS7_ISC_EEE6secondB8ue170006Ev, symObjAddr: 0xD514, symBinAddr: 0x1000121FC, symSize: 0x24 }
  - { offsetInCU: 0x28F8F, offset: 0x442E2, size: 0x8, addend: 0x0, symName: __ZNSt3__122__compressed_pair_elemINS_9allocatorINS_11__hash_nodeINS_17__hash_value_typeINS_12basic_stringIcNS_11char_traitsIcEENS1_IcEEEEiEEPvEEEELi1ELb1EE5__getB8ue170006Ev, symObjAddr: 0xD538, symBinAddr: 0x100012220, symSize: 0x14 }
  - { offsetInCU: 0x28FB4, offset: 0x44307, size: 0x8, addend: 0x0, symName: __ZNSt3__19allocatorINS_11__hash_nodeINS_17__hash_value_typeINS_12basic_stringIcNS_11char_traitsIcEENS0_IcEEEEiEEPvEEE8allocateB8ue170006Em, symObjAddr: 0xD54C, symBinAddr: 0x100012234, symSize: 0x5C }
  - { offsetInCU: 0x28FF0, offset: 0x44343, size: 0x8, addend: 0x0, symName: __ZNSt3__116allocator_traitsINS_9allocatorINS_11__hash_nodeINS_17__hash_value_typeINS_12basic_stringIcNS_11char_traitsIcEENS1_IcEEEEiEEPvEEEEE8max_sizeB8ue170006ISC_vEEmRKSC_, symObjAddr: 0xD5A8, symBinAddr: 0x100012290, symSize: 0x24 }
  - { offsetInCU: 0x2901E, offset: 0x44371, size: 0x8, addend: 0x0, symName: __ZNKSt3__19allocatorINS_11__hash_nodeINS_17__hash_value_typeINS_12basic_stringIcNS_11char_traitsIcEENS0_IcEEEEiEEPvEEE8max_sizeB8ue170006Ev, symObjAddr: 0xD5CC, symBinAddr: 0x1000122B4, symSize: 0x18 }
  - { offsetInCU: 0x29043, offset: 0x44396, size: 0x8, addend: 0x0, symName: __ZNSt3__122__hash_node_destructorINS_9allocatorINS_11__hash_nodeINS_17__hash_value_typeINS_12basic_stringIcNS_11char_traitsIcEENS1_IcEEEEiEEPvEEEEEC2B8ue170006ERSC_b, symObjAddr: 0xD5E4, symBinAddr: 0x1000122CC, symSize: 0x38 }
  - { offsetInCU: 0x2908A, offset: 0x443DD, size: 0x8, addend: 0x0, symName: __ZNSt3__110unique_ptrINS_11__hash_nodeINS_17__hash_value_typeINS_12basic_stringIcNS_11char_traitsIcEENS_9allocatorIcEEEEiEEPvEENS_22__hash_node_destructorINS6_ISB_EEEEEC2B8ue170006ILb1EvEEPSB_NS_16__dependent_typeINS_27__unique_ptr_deleter_sfinaeISE_EEXT_EE20__good_rval_ref_typeE, symObjAddr: 0xD61C, symBinAddr: 0x100012304, symSize: 0x48 }
  - { offsetInCU: 0x290DA, offset: 0x4442D, size: 0x8, addend: 0x0, symName: __ZNSt3__117__compressed_pairIPNS_11__hash_nodeINS_17__hash_value_typeINS_12basic_stringIcNS_11char_traitsIcEENS_9allocatorIcEEEEiEEPvEENS_22__hash_node_destructorINS6_ISB_EEEEEC1B8ue170006IRSC_SF_EEOT_OT0_, symObjAddr: 0xD664, symBinAddr: 0x10001234C, symSize: 0x3C }
  - { offsetInCU: 0x29130, offset: 0x44483, size: 0x8, addend: 0x0, symName: __ZNSt3__117__compressed_pairIPNS_11__hash_nodeINS_17__hash_value_typeINS_12basic_stringIcNS_11char_traitsIcEENS_9allocatorIcEEEEiEEPvEENS_22__hash_node_destructorINS6_ISB_EEEEEC2B8ue170006IRSC_SF_EEOT_OT0_, symObjAddr: 0xD6A0, symBinAddr: 0x100012388, symSize: 0x48 }
  - { offsetInCU: 0x29186, offset: 0x444D9, size: 0x8, addend: 0x0, symName: __ZNSt3__122__compressed_pair_elemIPNS_11__hash_nodeINS_17__hash_value_typeINS_12basic_stringIcNS_11char_traitsIcEENS_9allocatorIcEEEEiEEPvEELi0ELb0EEC2B8ue170006IRSC_vEEOT_, symObjAddr: 0xD6E8, symBinAddr: 0x1000123D0, symSize: 0x24 }
  - { offsetInCU: 0x291C8, offset: 0x4451B, size: 0x8, addend: 0x0, symName: __ZNSt3__122__compressed_pair_elemINS_22__hash_node_destructorINS_9allocatorINS_11__hash_nodeINS_17__hash_value_typeINS_12basic_stringIcNS_11char_traitsIcEENS2_IcEEEEiEEPvEEEEEELi1ELb0EEC2B8ue170006ISE_vEEOT_, symObjAddr: 0xD70C, symBinAddr: 0x1000123F4, symSize: 0x24 }
  - { offsetInCU: 0x2920A, offset: 0x4455D, size: 0x8, addend: 0x0, symName: __ZNSt3__19allocatorINS_11__hash_nodeINS_17__hash_value_typeINS_12basic_stringIcNS_11char_traitsIcEENS0_IcEEEEiEEPvEEE9constructB8ue170006INS_4pairIKS7_iEEJRKNS_21piecewise_construct_tENS_5tupleIJRSE_EEENSJ_IJEEEEEEvPT_DpOT0_, symObjAddr: 0xD730, symBinAddr: 0x100012418, symSize: 0x44 }
  - { offsetInCU: 0x29288, offset: 0x445DB, size: 0x8, addend: 0x0, symName: __ZNSt3__14pairIKNS_12basic_stringIcNS_11char_traitsIcEENS_9allocatorIcEEEEiEC1B8ue170006IJRS7_EJEEENS_21piecewise_construct_tENS_5tupleIJDpT_EEENSC_IJDpT0_EEE, symObjAddr: 0xD774, symBinAddr: 0x10001245C, symSize: 0x3C }
  - { offsetInCU: 0x292F0, offset: 0x44643, size: 0x8, addend: 0x0, symName: __ZNSt3__14pairIKNS_12basic_stringIcNS_11char_traitsIcEENS_9allocatorIcEEEEiEC1B8ue170006IJRS7_EJEJLm0EEJEEENS_21piecewise_construct_tERNS_5tupleIJDpT_EEERNSC_IJDpT0_EEENS_15__tuple_indicesIJXspT1_EEEENSL_IJXspT2_EEEE, symObjAddr: 0xD7B0, symBinAddr: 0x100012498, symSize: 0x3C }
  - { offsetInCU: 0x29384, offset: 0x446D7, size: 0x8, addend: 0x0, symName: __ZNSt3__14pairIKNS_12basic_stringIcNS_11char_traitsIcEENS_9allocatorIcEEEEiEC2B8ue170006IJRS7_EJEJLm0EEJEEENS_21piecewise_construct_tERNS_5tupleIJDpT_EEERNSC_IJDpT0_EEENS_15__tuple_indicesIJXspT1_EEEENSL_IJXspT2_EEEE, symObjAddr: 0xD7EC, symBinAddr: 0x1000124D4, symSize: 0x48 }
  - { offsetInCU: 0x29418, offset: 0x4476B, size: 0x8, addend: 0x0, symName: __ZNSt3__112__tuple_leafILm0ERKNS_12basic_stringIcNS_11char_traitsIcEENS_9allocatorIcEEEELb0EE3getB8ue170006Ev, symObjAddr: 0xD858, symBinAddr: 0x100012540, symSize: 0x18 }
  - { offsetInCU: 0x2943D, offset: 0x44790, size: 0x8, addend: 0x0, symName: __ZNSt3__117__compressed_pairIPNS_11__hash_nodeINS_17__hash_value_typeINS_12basic_stringIcNS_11char_traitsIcEENS_9allocatorIcEEEEiEEPvEENS_22__hash_node_destructorINS6_ISB_EEEEE6secondB8ue170006Ev, symObjAddr: 0xD870, symBinAddr: 0x100012558, symSize: 0x28 }
  - { offsetInCU: 0x29461, offset: 0x447B4, size: 0x8, addend: 0x0, symName: __ZNSt3__122__compressed_pair_elemINS_22__hash_node_destructorINS_9allocatorINS_11__hash_nodeINS_17__hash_value_typeINS_12basic_stringIcNS_11char_traitsIcEENS2_IcEEEEiEEPvEEEEEELi1ELb0EE5__getB8ue170006Ev, symObjAddr: 0xD898, symBinAddr: 0x100012580, symSize: 0x14 }
  - { offsetInCU: 0x29486, offset: 0x447D9, size: 0x8, addend: 0x0, symName: __ZNSt3__117__compressed_pairImNS_22__unordered_map_hasherINS_12basic_stringIcNS_11char_traitsIcEENS_9allocatorIcEEEENS_17__hash_value_typeIS7_iEENS_4hashIS7_EENS_8equal_toIS7_EELb1EEEE5firstB8ue170006Ev, symObjAddr: 0xD8AC, symBinAddr: 0x100012594, symSize: 0x24 }
  - { offsetInCU: 0x294AA, offset: 0x447FD, size: 0x8, addend: 0x0, symName: __ZNSt3__117__compressed_pairIfNS_21__unordered_map_equalINS_12basic_stringIcNS_11char_traitsIcEENS_9allocatorIcEEEENS_17__hash_value_typeIS7_iEENS_8equal_toIS7_EENS_4hashIS7_EELb1EEEE5firstB8ue170006Ev, symObjAddr: 0xD8D0, symBinAddr: 0x1000125B8, symSize: 0x24 }
  - { offsetInCU: 0x294CE, offset: 0x44821, size: 0x8, addend: 0x0, symName: __ZNSt3__112__hash_tableINS_17__hash_value_typeINS_12basic_stringIcNS_11char_traitsIcEENS_9allocatorIcEEEEiEENS_22__unordered_map_hasherIS7_S8_NS_4hashIS7_EENS_8equal_toIS7_EELb1EEENS_21__unordered_map_equalIS7_S8_SD_SB_Lb1EEENS5_IS8_EEE8__rehashILb1EEEvm, symObjAddr: 0xD8F4, symBinAddr: 0x1000125DC, symSize: 0x1A8 }
  - { offsetInCU: 0x2951D, offset: 0x44870, size: 0x8, addend: 0x0, symName: __ZNSt3__112__hash_tableINS_17__hash_value_typeINS_12basic_stringIcNS_11char_traitsIcEENS_9allocatorIcEEEEiEENS_22__unordered_map_hasherIS7_S8_NS_4hashIS7_EENS_8equal_toIS7_EELb1EEENS_21__unordered_map_equalIS7_S8_SD_SB_Lb1EEENS5_IS8_EEE11__do_rehashILb1EEEvm, symObjAddr: 0xDA9C, symBinAddr: 0x100012784, symSize: 0x288 }
  - { offsetInCU: 0x29603, offset: 0x44956, size: 0x8, addend: 0x0, symName: __ZNSt3__110unique_ptrIA_PNS_16__hash_node_baseIPNS_11__hash_nodeINS_17__hash_value_typeINS_12basic_stringIcNS_11char_traitsIcEENS_9allocatorIcEEEEiEEPvEEEENS_25__bucket_list_deallocatorINS7_ISF_EEEEE11get_deleterB8ue170006Ev, symObjAddr: 0xDD24, symBinAddr: 0x100012A0C, symSize: 0x24 }
  - { offsetInCU: 0x29627, offset: 0x4497A, size: 0x8, addend: 0x0, symName: __ZNSt3__125__bucket_list_deallocatorINS_9allocatorIPNS_16__hash_node_baseIPNS_11__hash_nodeINS_17__hash_value_typeINS_12basic_stringIcNS_11char_traitsIcEENS1_IcEEEEiEEPvEEEEEEE7__allocB8ue170006Ev, symObjAddr: 0xDD48, symBinAddr: 0x100012A30, symSize: 0x24 }
  - { offsetInCU: 0x2964B, offset: 0x4499E, size: 0x8, addend: 0x0, symName: __ZNSt3__110unique_ptrIA_PNS_16__hash_node_baseIPNS_11__hash_nodeINS_17__hash_value_typeINS_12basic_stringIcNS_11char_traitsIcEENS_9allocatorIcEEEEiEEPvEEEENS_25__bucket_list_deallocatorINS7_ISF_EEEEE5resetB8ue170006IPSF_EENS_9enable_ifIXsr28_CheckArrayPointerConversionIT_EE5valueEvE4typeESO_, symObjAddr: 0xDD6C, symBinAddr: 0x100012A54, symSize: 0x78 }
  - { offsetInCU: 0x29696, offset: 0x449E9, size: 0x8, addend: 0x0, symName: __ZNSt3__116allocator_traitsINS_9allocatorIPNS_16__hash_node_baseIPNS_11__hash_nodeINS_17__hash_value_typeINS_12basic_stringIcNS_11char_traitsIcEENS1_IcEEEEiEEPvEEEEEEE8allocateB8ue170006ERSG_m, symObjAddr: 0xDDE4, symBinAddr: 0x100012ACC, symSize: 0x2C }
  - { offsetInCU: 0x296C8, offset: 0x44A1B, size: 0x8, addend: 0x0, symName: __ZNSt3__125__bucket_list_deallocatorINS_9allocatorIPNS_16__hash_node_baseIPNS_11__hash_nodeINS_17__hash_value_typeINS_12basic_stringIcNS_11char_traitsIcEENS1_IcEEEEiEEPvEEEEEEE4sizeB8ue170006Ev, symObjAddr: 0xDE10, symBinAddr: 0x100012AF8, symSize: 0x24 }
  - { offsetInCU: 0x296EC, offset: 0x44A3F, size: 0x8, addend: 0x0, symName: __ZNSt3__117__compressed_pairIPPNS_16__hash_node_baseIPNS_11__hash_nodeINS_17__hash_value_typeINS_12basic_stringIcNS_11char_traitsIcEENS_9allocatorIcEEEEiEEPvEEEENS_25__bucket_list_deallocatorINS7_ISF_EEEEE6secondB8ue170006Ev, symObjAddr: 0xDE34, symBinAddr: 0x100012B1C, symSize: 0x28 }
  - { offsetInCU: 0x29710, offset: 0x44A63, size: 0x8, addend: 0x0, symName: __ZNSt3__122__compressed_pair_elemINS_25__bucket_list_deallocatorINS_9allocatorIPNS_16__hash_node_baseIPNS_11__hash_nodeINS_17__hash_value_typeINS_12basic_stringIcNS_11char_traitsIcEENS2_IcEEEEiEEPvEEEEEEEELi1ELb0EE5__getB8ue170006Ev, symObjAddr: 0xDE5C, symBinAddr: 0x100012B44, symSize: 0x14 }
  - { offsetInCU: 0x29735, offset: 0x44A88, size: 0x8, addend: 0x0, symName: __ZNSt3__117__compressed_pairImNS_9allocatorIPNS_16__hash_node_baseIPNS_11__hash_nodeINS_17__hash_value_typeINS_12basic_stringIcNS_11char_traitsIcEENS1_IcEEEEiEEPvEEEEEEE6secondB8ue170006Ev, symObjAddr: 0xDE70, symBinAddr: 0x100012B58, symSize: 0x24 }
  - { offsetInCU: 0x29759, offset: 0x44AAC, size: 0x8, addend: 0x0, symName: __ZNSt3__122__compressed_pair_elemINS_9allocatorIPNS_16__hash_node_baseIPNS_11__hash_nodeINS_17__hash_value_typeINS_12basic_stringIcNS_11char_traitsIcEENS1_IcEEEEiEEPvEEEEEELi1ELb1EE5__getB8ue170006Ev, symObjAddr: 0xDE94, symBinAddr: 0x100012B7C, symSize: 0x14 }
  - { offsetInCU: 0x2977E, offset: 0x44AD1, size: 0x8, addend: 0x0, symName: __ZNSt3__117__compressed_pairIPPNS_16__hash_node_baseIPNS_11__hash_nodeINS_17__hash_value_typeINS_12basic_stringIcNS_11char_traitsIcEENS_9allocatorIcEEEEiEEPvEEEENS_25__bucket_list_deallocatorINS7_ISF_EEEEE5firstB8ue170006Ev, symObjAddr: 0xDEA8, symBinAddr: 0x100012B90, symSize: 0x24 }
  - { offsetInCU: 0x297A2, offset: 0x44AF5, size: 0x8, addend: 0x0, symName: __ZNSt3__125__bucket_list_deallocatorINS_9allocatorIPNS_16__hash_node_baseIPNS_11__hash_nodeINS_17__hash_value_typeINS_12basic_stringIcNS_11char_traitsIcEENS1_IcEEEEiEEPvEEEEEEEclB8ue170006EPSF_, symObjAddr: 0xDECC, symBinAddr: 0x100012BB4, symSize: 0x58 }
  - { offsetInCU: 0x297D5, offset: 0x44B28, size: 0x8, addend: 0x0, symName: __ZNSt3__122__compressed_pair_elemIPPNS_16__hash_node_baseIPNS_11__hash_nodeINS_17__hash_value_typeINS_12basic_stringIcNS_11char_traitsIcEENS_9allocatorIcEEEEiEEPvEEEELi0ELb0EE5__getB8ue170006Ev, symObjAddr: 0xDF24, symBinAddr: 0x100012C0C, symSize: 0x14 }
  - { offsetInCU: 0x297FA, offset: 0x44B4D, size: 0x8, addend: 0x0, symName: __ZNSt3__116allocator_traitsINS_9allocatorIPNS_16__hash_node_baseIPNS_11__hash_nodeINS_17__hash_value_typeINS_12basic_stringIcNS_11char_traitsIcEENS1_IcEEEEiEEPvEEEEEEE10deallocateB8ue170006ERSG_PSF_m, symObjAddr: 0xDF38, symBinAddr: 0x100012C20, symSize: 0x34 }
  - { offsetInCU: 0x2983B, offset: 0x44B8E, size: 0x8, addend: 0x0, symName: __ZNSt3__19allocatorIPNS_16__hash_node_baseIPNS_11__hash_nodeINS_17__hash_value_typeINS_12basic_stringIcNS_11char_traitsIcEENS0_IcEEEEiEEPvEEEEE10deallocateB8ue170006EPSE_m, symObjAddr: 0xDF6C, symBinAddr: 0x100012C54, symSize: 0x40 }
  - { offsetInCU: 0x2987B, offset: 0x44BCE, size: 0x8, addend: 0x0, symName: __ZNSt3__19allocatorIPNS_16__hash_node_baseIPNS_11__hash_nodeINS_17__hash_value_typeINS_12basic_stringIcNS_11char_traitsIcEENS0_IcEEEEiEEPvEEEEE8allocateB8ue170006Em, symObjAddr: 0xDFAC, symBinAddr: 0x100012C94, symSize: 0x58 }
  - { offsetInCU: 0x298B7, offset: 0x44C0A, size: 0x8, addend: 0x0, symName: __ZNSt3__116allocator_traitsINS_9allocatorIPNS_16__hash_node_baseIPNS_11__hash_nodeINS_17__hash_value_typeINS_12basic_stringIcNS_11char_traitsIcEENS1_IcEEEEiEEPvEEEEEEE8max_sizeB8ue170006ISG_vEEmRKSG_, symObjAddr: 0xE004, symBinAddr: 0x100012CEC, symSize: 0x24 }
  - { offsetInCU: 0x298E5, offset: 0x44C38, size: 0x8, addend: 0x0, symName: __ZNKSt3__19allocatorIPNS_16__hash_node_baseIPNS_11__hash_nodeINS_17__hash_value_typeINS_12basic_stringIcNS_11char_traitsIcEENS0_IcEEEEiEEPvEEEEE8max_sizeB8ue170006Ev, symObjAddr: 0xE028, symBinAddr: 0x100012D10, symSize: 0x14 }
  - { offsetInCU: 0x2990A, offset: 0x44C5D, size: 0x8, addend: 0x0, symName: __ZNSt3__117__compressed_pairImNS_9allocatorIPNS_16__hash_node_baseIPNS_11__hash_nodeINS_17__hash_value_typeINS_12basic_stringIcNS_11char_traitsIcEENS1_IcEEEEiEEPvEEEEEEE5firstB8ue170006Ev, symObjAddr: 0xE03C, symBinAddr: 0x100012D24, symSize: 0x24 }
  - { offsetInCU: 0x2992E, offset: 0x44C81, size: 0x8, addend: 0x0, symName: __ZNSt3__122__compressed_pair_elemINS_16__hash_node_baseIPNS_11__hash_nodeINS_17__hash_value_typeINS_12basic_stringIcNS_11char_traitsIcEENS_9allocatorIcEEEEiEEPvEEEELi0ELb0EE5__getB8ue170006Ev, symObjAddr: 0xE060, symBinAddr: 0x100012D48, symSize: 0x14 }
  - { offsetInCU: 0x29953, offset: 0x44CA6, size: 0x8, addend: 0x0, symName: __ZNKSt3__117__compressed_pairIPNS_11__hash_nodeINS_17__hash_value_typeINS_12basic_stringIcNS_11char_traitsIcEENS_9allocatorIcEEEEiEEPvEENS_22__hash_node_destructorINS6_ISB_EEEEE5firstB8ue170006Ev, symObjAddr: 0xE074, symBinAddr: 0x100012D5C, symSize: 0x24 }
  - { offsetInCU: 0x29977, offset: 0x44CCA, size: 0x8, addend: 0x0, symName: __ZNKSt3__122__compressed_pair_elemIPNS_11__hash_nodeINS_17__hash_value_typeINS_12basic_stringIcNS_11char_traitsIcEENS_9allocatorIcEEEEiEEPvEELi0ELb0EE5__getB8ue170006Ev, symObjAddr: 0xE098, symBinAddr: 0x100012D80, symSize: 0x14 }
  - { offsetInCU: 0x2999C, offset: 0x44CEF, size: 0x8, addend: 0x0, symName: __ZNSt3__117__compressed_pairIPNS_11__hash_nodeINS_17__hash_value_typeINS_12basic_stringIcNS_11char_traitsIcEENS_9allocatorIcEEEEiEEPvEENS_22__hash_node_destructorINS6_ISB_EEEEE5firstB8ue170006Ev, symObjAddr: 0xE0AC, symBinAddr: 0x100012D94, symSize: 0x24 }
  - { offsetInCU: 0x299C0, offset: 0x44D13, size: 0x8, addend: 0x0, symName: __ZNSt3__122__compressed_pair_elemIPNS_11__hash_nodeINS_17__hash_value_typeINS_12basic_stringIcNS_11char_traitsIcEENS_9allocatorIcEEEEiEEPvEELi0ELb0EE5__getB8ue170006Ev, symObjAddr: 0xE0D0, symBinAddr: 0x100012DB8, symSize: 0x14 }
  - { offsetInCU: 0x299E5, offset: 0x44D38, size: 0x8, addend: 0x0, symName: __ZNSt3__110unique_ptrINS_11__hash_nodeINS_17__hash_value_typeINS_12basic_stringIcNS_11char_traitsIcEENS_9allocatorIcEEEEiEEPvEENS_22__hash_node_destructorINS6_ISB_EEEEED2B8ue170006Ev, symObjAddr: 0xE0E4, symBinAddr: 0x100012DCC, symSize: 0x30 }
  - { offsetInCU: 0x29A0D, offset: 0x44D60, size: 0x8, addend: 0x0, symName: __ZNSt3__110unique_ptrINS_11__hash_nodeINS_17__hash_value_typeINS_12basic_stringIcNS_11char_traitsIcEENS_9allocatorIcEEEEiEEPvEENS_22__hash_node_destructorINS6_ISB_EEEEE5resetB8ue170006EPSB_, symObjAddr: 0xE114, symBinAddr: 0x100012DFC, symSize: 0x78 }
  - { offsetInCU: 0x29A4F, offset: 0x44DA2, size: 0x8, addend: 0x0, symName: __ZNSt3__122__hash_node_destructorINS_9allocatorINS_11__hash_nodeINS_17__hash_value_typeINS_12basic_stringIcNS_11char_traitsIcEENS1_IcEEEEiEEPvEEEEEclB8ue170006EPSB_, symObjAddr: 0xE18C, symBinAddr: 0x100012E74, symSize: 0x98 }
  - { offsetInCU: 0x29A82, offset: 0x44DD5, size: 0x8, addend: 0x0, symName: __ZNSt3__116allocator_traitsINS_9allocatorINS_11__hash_nodeINS_17__hash_value_typeINS_12basic_stringIcNS_11char_traitsIcEENS1_IcEEEEiEEPvEEEEE7destroyB8ue170006INS_4pairIKS8_iEEvvEEvRSC_PT_, symObjAddr: 0xE224, symBinAddr: 0x100012F0C, symSize: 0x28 }
  - { offsetInCU: 0x29ABE, offset: 0x44E11, size: 0x8, addend: 0x0, symName: __ZNSt3__116allocator_traitsINS_9allocatorINS_11__hash_nodeINS_17__hash_value_typeINS_12basic_stringIcNS_11char_traitsIcEENS1_IcEEEEiEEPvEEEEE10deallocateB8ue170006ERSC_PSB_m, symObjAddr: 0xE24C, symBinAddr: 0x100012F34, symSize: 0x34 }
  - { offsetInCU: 0x29AFF, offset: 0x44E52, size: 0x8, addend: 0x0, symName: __ZNSt3__14pairIKNS_12basic_stringIcNS_11char_traitsIcEENS_9allocatorIcEEEEiED1Ev, symObjAddr: 0xE280, symBinAddr: 0x100012F68, symSize: 0x2C }
  - { offsetInCU: 0x29B29, offset: 0x44E7C, size: 0x8, addend: 0x0, symName: __ZNSt3__14pairIKNS_12basic_stringIcNS_11char_traitsIcEENS_9allocatorIcEEEEiED2Ev, symObjAddr: 0xE2AC, symBinAddr: 0x100012F94, symSize: 0x2C }
  - { offsetInCU: 0x29B53, offset: 0x44EA6, size: 0x8, addend: 0x0, symName: __ZNSt3__19allocatorINS_11__hash_nodeINS_17__hash_value_typeINS_12basic_stringIcNS_11char_traitsIcEENS0_IcEEEEiEEPvEEE10deallocateB8ue170006EPSA_m, symObjAddr: 0xE2D8, symBinAddr: 0x100012FC0, symSize: 0x44 }
  - { offsetInCU: 0x29B93, offset: 0x44EE6, size: 0x8, addend: 0x0, symName: __ZNSt3__115__hash_iteratorIPNS_11__hash_nodeINS_17__hash_value_typeINS_12basic_stringIcNS_11char_traitsIcEENS_9allocatorIcEEEEiEEPvEEEC2B8ue170006EPNS_16__hash_node_baseISC_EE, symObjAddr: 0xE31C, symBinAddr: 0x100013004, symSize: 0x20 }
  - { offsetInCU: 0x29BCB, offset: 0x44F1E, size: 0x8, addend: 0x0, symName: __ZNSt3__14pairINS_15__hash_iteratorIPNS_11__hash_nodeINS_17__hash_value_typeINS_12basic_stringIcNS_11char_traitsIcEENS_9allocatorIcEEEEiEEPvEEEEbEC2B8ue170006ISE_RbLSB_0EEEOT_OT0_, symObjAddr: 0xE33C, symBinAddr: 0x100013024, symSize: 0x38 }
  - { offsetInCU: 0x29C29, offset: 0x44F7C, size: 0x8, addend: 0x0, symName: __ZNSt3__15tupleIJRKNS_12basic_stringIcNS_11char_traitsIcEENS_9allocatorIcEEEEEEC1B8ue170006INS_4_AndELi0EEES8_, symObjAddr: 0xE374, symBinAddr: 0x10001305C, symSize: 0x34 }
  - { offsetInCU: 0x29C71, offset: 0x44FC4, size: 0x8, addend: 0x0, symName: __ZNSt3__15tupleIJRKNS_12basic_stringIcNS_11char_traitsIcEENS_9allocatorIcEEEEEEC2B8ue170006INS_4_AndELi0EEES8_, symObjAddr: 0xE3A8, symBinAddr: 0x100013090, symSize: 0x34 }
  - { offsetInCU: 0x29CB9, offset: 0x4500C, size: 0x8, addend: 0x0, symName: __ZNSt3__112__tuple_implINS_15__tuple_indicesIJLm0EEEEJRKNS_12basic_stringIcNS_11char_traitsIcEENS_9allocatorIcEEEEEEC1B8ue170006IJLm0EEJSA_EJEJEJSA_EEENS1_IJXspT_EEEENS_13__tuple_typesIJDpT0_EEENS1_IJXspT1_EEEENSE_IJDpT2_EEEDpOT3_, symObjAddr: 0xE3DC, symBinAddr: 0x1000130C4, symSize: 0x34 }
  - { offsetInCU: 0x29D54, offset: 0x450A7, size: 0x8, addend: 0x0, symName: __ZNSt3__112__tuple_implINS_15__tuple_indicesIJLm0EEEEJRKNS_12basic_stringIcNS_11char_traitsIcEENS_9allocatorIcEEEEEEC2B8ue170006IJLm0EEJSA_EJEJEJSA_EEENS1_IJXspT_EEEENS_13__tuple_typesIJDpT0_EEENS1_IJXspT1_EEEENSE_IJDpT2_EEEDpOT3_, symObjAddr: 0xE410, symBinAddr: 0x1000130F8, symSize: 0x34 }
  - { offsetInCU: 0x29DEF, offset: 0x45142, size: 0x8, addend: 0x0, symName: __ZNSt3__112__tuple_leafILm0ERKNS_12basic_stringIcNS_11char_traitsIcEENS_9allocatorIcEEEELb0EEC2B8ue170006IS8_vEEOT_, symObjAddr: 0xE444, symBinAddr: 0x10001312C, symSize: 0x20 }
  - { offsetInCU: 0x29E32, offset: 0x45185, size: 0x8, addend: 0x0, symName: __ZNSt3__114pointer_traitsIPNS_17__hash_value_typeINS_12basic_stringIcNS_11char_traitsIcEENS_9allocatorIcEEEEiEEE10pointer_toB8ue170006ERS8_, symObjAddr: 0xE464, symBinAddr: 0x10001314C, symSize: 0x14 }
  - { offsetInCU: 0x29E55, offset: 0x451A8, size: 0x8, addend: 0x0, symName: __ZNSt3__113unordered_mapINS_12basic_stringIcNS_11char_traitsIcEENS_9allocatorIcEEEEiNS_4hashIS6_EENS_8equal_toIS6_EENS4_INS_4pairIKS6_iEEEEE4findB8ue170006ERSC_, symObjAddr: 0xE4B0, symBinAddr: 0x100013198, symSize: 0x40 }
  - { offsetInCU: 0x29E88, offset: 0x451DB, size: 0x8, addend: 0x0, symName: __ZNSt3__113unordered_mapINS_12basic_stringIcNS_11char_traitsIcEENS_9allocatorIcEEEEiNS_4hashIS6_EENS_8equal_toIS6_EENS4_INS_4pairIKS6_iEEEEE3endB8ue170006Ev, symObjAddr: 0xE520, symBinAddr: 0x100013208, symSize: 0x38 }
  - { offsetInCU: 0x29EAC, offset: 0x451FF, size: 0x8, addend: 0x0, symName: __ZNKSt3__119__hash_map_iteratorINS_15__hash_iteratorIPNS_11__hash_nodeINS_17__hash_value_typeINS_12basic_stringIcNS_11char_traitsIcEENS_9allocatorIcEEEEiEEPvEEEEEptB8ue170006Ev, symObjAddr: 0xE558, symBinAddr: 0x100013240, symSize: 0x2C }
  - { offsetInCU: 0x29ED0, offset: 0x45223, size: 0x8, addend: 0x0, symName: __ZNSt3__112__hash_tableINS_17__hash_value_typeINS_12basic_stringIcNS_11char_traitsIcEENS_9allocatorIcEEEEiEENS_22__unordered_map_hasherIS7_S8_NS_4hashIS7_EENS_8equal_toIS7_EELb1EEENS_21__unordered_map_equalIS7_S8_SD_SB_Lb1EEENS5_IS8_EEE4findIS7_EENS_15__hash_iteratorIPNS_11__hash_nodeIS8_PvEEEERKT_, symObjAddr: 0xE584, symBinAddr: 0x10001326C, symSize: 0x1B0 }
  - { offsetInCU: 0x29F5A, offset: 0x452AD, size: 0x8, addend: 0x0, symName: __ZNSt3__119__hash_map_iteratorINS_15__hash_iteratorIPNS_11__hash_nodeINS_17__hash_value_typeINS_12basic_stringIcNS_11char_traitsIcEENS_9allocatorIcEEEEiEEPvEEEEEC1B8ue170006ESE_, symObjAddr: 0xE734, symBinAddr: 0x10001341C, symSize: 0x34 }
  - { offsetInCU: 0x29F91, offset: 0x452E4, size: 0x8, addend: 0x0, symName: __ZNSt3__112__hash_tableINS_17__hash_value_typeINS_12basic_stringIcNS_11char_traitsIcEENS_9allocatorIcEEEEiEENS_22__unordered_map_hasherIS7_S8_NS_4hashIS7_EENS_8equal_toIS7_EELb1EEENS_21__unordered_map_equalIS7_S8_SD_SB_Lb1EEENS5_IS8_EEE3endEv, symObjAddr: 0xE768, symBinAddr: 0x100013450, symSize: 0x2C }
  - { offsetInCU: 0x29FB8, offset: 0x4530B, size: 0x8, addend: 0x0, symName: __ZNSt3__119__hash_map_iteratorINS_15__hash_iteratorIPNS_11__hash_nodeINS_17__hash_value_typeINS_12basic_stringIcNS_11char_traitsIcEENS_9allocatorIcEEEEiEEPvEEEEEC2B8ue170006ESE_, symObjAddr: 0xE794, symBinAddr: 0x10001347C, symSize: 0x20 }
  - { offsetInCU: 0x29FF0, offset: 0x45343, size: 0x8, addend: 0x0, symName: __ZNSt3__114pointer_traitsIPNS_4pairIKNS_12basic_stringIcNS_11char_traitsIcEENS_9allocatorIcEEEEiEEE10pointer_toB8ue170006ERS9_, symObjAddr: 0xE7E4, symBinAddr: 0x1000134CC, symSize: 0x14 }
  - { offsetInCU: 0x2A013, offset: 0x45366, size: 0x8, addend: 0x0, symName: __ZNKSt3__112__hash_tableINS_17__hash_value_typeINS_12basic_stringIcNS_11char_traitsIcEENS_9allocatorIcEEEEiEENS_22__unordered_map_hasherIS7_S8_NS_4hashIS7_EENS_8equal_toIS7_EELb1EEENS_21__unordered_map_equalIS7_S8_SD_SB_Lb1EEENS5_IS8_EEE14__count_uniqueIS7_EEmRKT_, symObjAddr: 0xE7F8, symBinAddr: 0x1000134E0, symSize: 0x64 }
  - { offsetInCU: 0x2A052, offset: 0x453A5, size: 0x8, addend: 0x0, symName: __ZNKSt3__112__hash_tableINS_17__hash_value_typeINS_12basic_stringIcNS_11char_traitsIcEENS_9allocatorIcEEEEiEENS_22__unordered_map_hasherIS7_S8_NS_4hashIS7_EENS_8equal_toIS7_EELb1EEENS_21__unordered_map_equalIS7_S8_SD_SB_Lb1EEENS5_IS8_EEE4findIS7_EENS_21__hash_const_iteratorIPNS_11__hash_nodeIS8_PvEEEERKT_, symObjAddr: 0xE890, symBinAddr: 0x100013578, symSize: 0x1B8 }
  - { offsetInCU: 0x2A0DC, offset: 0x4542F, size: 0x8, addend: 0x0, symName: __ZNKSt3__112__hash_tableINS_17__hash_value_typeINS_12basic_stringIcNS_11char_traitsIcEENS_9allocatorIcEEEEiEENS_22__unordered_map_hasherIS7_S8_NS_4hashIS7_EENS_8equal_toIS7_EELb1EEENS_21__unordered_map_equalIS7_S8_SD_SB_Lb1EEENS5_IS8_EEE3endEv, symObjAddr: 0xEA48, symBinAddr: 0x100013730, symSize: 0x2C }
  - { offsetInCU: 0x2A103, offset: 0x45456, size: 0x8, addend: 0x0, symName: __ZNKSt3__112__hash_tableINS_17__hash_value_typeINS_12basic_stringIcNS_11char_traitsIcEENS_9allocatorIcEEEEiEENS_22__unordered_map_hasherIS7_S8_NS_4hashIS7_EENS_8equal_toIS7_EELb1EEENS_21__unordered_map_equalIS7_S8_SD_SB_Lb1EEENS5_IS8_EEE13hash_functionB8ue170006Ev, symObjAddr: 0xEAA4, symBinAddr: 0x10001378C, symSize: 0x28 }
  - { offsetInCU: 0x2A127, offset: 0x4547A, size: 0x8, addend: 0x0, symName: __ZNKSt3__112__hash_tableINS_17__hash_value_typeINS_12basic_stringIcNS_11char_traitsIcEENS_9allocatorIcEEEEiEENS_22__unordered_map_hasherIS7_S8_NS_4hashIS7_EENS_8equal_toIS7_EELb1EEENS_21__unordered_map_equalIS7_S8_SD_SB_Lb1EEENS5_IS8_EEE6key_eqB8ue170006Ev, symObjAddr: 0xEACC, symBinAddr: 0x1000137B4, symSize: 0x28 }
  - { offsetInCU: 0x2A14B, offset: 0x4549E, size: 0x8, addend: 0x0, symName: __ZNSt3__121__hash_const_iteratorIPNS_11__hash_nodeINS_17__hash_value_typeINS_12basic_stringIcNS_11char_traitsIcEENS_9allocatorIcEEEEiEEPvEEEC1B8ue170006EPNS_16__hash_node_baseISC_EE, symObjAddr: 0xEAF4, symBinAddr: 0x1000137DC, symSize: 0x34 }
  - { offsetInCU: 0x2A182, offset: 0x454D5, size: 0x8, addend: 0x0, symName: __ZNKSt3__117__compressed_pairImNS_22__unordered_map_hasherINS_12basic_stringIcNS_11char_traitsIcEENS_9allocatorIcEEEENS_17__hash_value_typeIS7_iEENS_4hashIS7_EENS_8equal_toIS7_EELb1EEEE6secondB8ue170006Ev, symObjAddr: 0xEB28, symBinAddr: 0x100013810, symSize: 0x24 }
  - { offsetInCU: 0x2A1A6, offset: 0x454F9, size: 0x8, addend: 0x0, symName: __ZNKSt3__122__compressed_pair_elemINS_22__unordered_map_hasherINS_12basic_stringIcNS_11char_traitsIcEENS_9allocatorIcEEEENS_17__hash_value_typeIS7_iEENS_4hashIS7_EENS_8equal_toIS7_EELb1EEELi1ELb1EE5__getB8ue170006Ev, symObjAddr: 0xEB4C, symBinAddr: 0x100013834, symSize: 0x14 }
  - { offsetInCU: 0x2A1CB, offset: 0x4551E, size: 0x8, addend: 0x0, symName: __ZNKSt3__117__compressed_pairIfNS_21__unordered_map_equalINS_12basic_stringIcNS_11char_traitsIcEENS_9allocatorIcEEEENS_17__hash_value_typeIS7_iEENS_8equal_toIS7_EENS_4hashIS7_EELb1EEEE6secondB8ue170006Ev, symObjAddr: 0xEB60, symBinAddr: 0x100013848, symSize: 0x24 }
  - { offsetInCU: 0x2A1EF, offset: 0x45542, size: 0x8, addend: 0x0, symName: __ZNKSt3__122__compressed_pair_elemINS_21__unordered_map_equalINS_12basic_stringIcNS_11char_traitsIcEENS_9allocatorIcEEEENS_17__hash_value_typeIS7_iEENS_8equal_toIS7_EENS_4hashIS7_EELb1EEELi1ELb1EE5__getB8ue170006Ev, symObjAddr: 0xEB84, symBinAddr: 0x10001386C, symSize: 0x14 }
  - { offsetInCU: 0x2A214, offset: 0x45567, size: 0x8, addend: 0x0, symName: __ZNSt3__121__hash_const_iteratorIPNS_11__hash_nodeINS_17__hash_value_typeINS_12basic_stringIcNS_11char_traitsIcEENS_9allocatorIcEEEEiEEPvEEEC2B8ue170006EPNS_16__hash_node_baseISC_EE, symObjAddr: 0xEB98, symBinAddr: 0x100013880, symSize: 0x20 }
  - { offsetInCU: 0x2A24C, offset: 0x4559F, size: 0x8, addend: 0x0, symName: __ZNSt3__16vectorI3RowNS_9allocatorIS1_EEEC2B8ue170006Ev, symObjAddr: 0xEBB8, symBinAddr: 0x1000138A0, symSize: 0x4C }
  - { offsetInCU: 0x2A279, offset: 0x455CC, size: 0x8, addend: 0x0, symName: __ZNSt3__117__compressed_pairIP3RowNS_9allocatorIS1_EEEC1B8ue170006IDnNS_18__default_init_tagEEEOT_OT0_, symObjAddr: 0xEC04, symBinAddr: 0x1000138EC, symSize: 0x3C }
  - { offsetInCU: 0x2A2CF, offset: 0x45622, size: 0x8, addend: 0x0, symName: __ZNSt3__117__compressed_pairIP3RowNS_9allocatorIS1_EEEC2B8ue170006IDnNS_18__default_init_tagEEEOT_OT0_, symObjAddr: 0xEC40, symBinAddr: 0x100013928, symSize: 0x40 }
  - { offsetInCU: 0x2A325, offset: 0x45678, size: 0x8, addend: 0x0, symName: __ZNSt3__122__compressed_pair_elemIP3RowLi0ELb0EEC2B8ue170006IDnvEEOT_, symObjAddr: 0xEC80, symBinAddr: 0x100013968, symSize: 0x1C }
  - { offsetInCU: 0x2A367, offset: 0x456BA, size: 0x8, addend: 0x0, symName: __ZNSt3__122__compressed_pair_elemINS_9allocatorI3RowEELi1ELb1EEC2B8ue170006ENS_18__default_init_tagE, symObjAddr: 0xEC9C, symBinAddr: 0x100013984, symSize: 0x2C }
  - { offsetInCU: 0x2A39A, offset: 0x456ED, size: 0x8, addend: 0x0, symName: __ZNSt3__19allocatorI3RowEC2B8ue170006Ev, symObjAddr: 0xECC8, symBinAddr: 0x1000139B0, symSize: 0x2C }
  - { offsetInCU: 0x2A3C2, offset: 0x45715, size: 0x8, addend: 0x0, symName: __ZNSt3__116__non_trivial_ifILb1ENS_9allocatorI3RowEEEC2B8ue170006Ev, symObjAddr: 0xECF4, symBinAddr: 0x1000139DC, symSize: 0x14 }
  - { offsetInCU: 0x2A3EB, offset: 0x4573E, size: 0x8, addend: 0x0, symName: __ZNKSt3__16vectorI3RowNS_9allocatorIS1_EEE8capacityB8ue170006Ev, symObjAddr: 0xED08, symBinAddr: 0x1000139F0, symSize: 0x40 }
  - { offsetInCU: 0x2A40F, offset: 0x45762, size: 0x8, addend: 0x0, symName: __ZNKSt3__16vectorI3RowNS_9allocatorIS1_EEE8max_sizeEv, symObjAddr: 0xED48, symBinAddr: 0x100013A30, symSize: 0x60 }
  - { offsetInCU: 0x2A436, offset: 0x45789, size: 0x8, addend: 0x0, symName: __ZNKSt3__16vectorI3RowNS_9allocatorIS1_EEE20__throw_length_errorB8ue170006Ev, symObjAddr: 0xEDA8, symBinAddr: 0x100013A90, symSize: 0x1C }
  - { offsetInCU: 0x2A45A, offset: 0x457AD, size: 0x8, addend: 0x0, symName: __ZNSt3__16vectorI3RowNS_9allocatorIS1_EEE7__allocB8ue170006Ev, symObjAddr: 0xEDC4, symBinAddr: 0x100013AAC, symSize: 0x28 }
  - { offsetInCU: 0x2A47E, offset: 0x457D1, size: 0x8, addend: 0x0, symName: __ZNSt3__114__split_bufferI3RowRNS_9allocatorIS1_EEEC1EmmS4_, symObjAddr: 0xEDEC, symBinAddr: 0x100013AD4, symSize: 0x44 }
  - { offsetInCU: 0x2A4D2, offset: 0x45825, size: 0x8, addend: 0x0, symName: __ZNSt3__114__split_bufferI3RowRNS_9allocatorIS1_EEED1Ev, symObjAddr: 0xEF40, symBinAddr: 0x100013C28, symSize: 0x2C }
  - { offsetInCU: 0x2A4FC, offset: 0x4584F, size: 0x8, addend: 0x0, symName: __ZNKSt3__16vectorI3RowNS_9allocatorIS1_EEE9__end_capB8ue170006Ev, symObjAddr: 0xEF6C, symBinAddr: 0x100013C54, symSize: 0x28 }
  - { offsetInCU: 0x2A520, offset: 0x45873, size: 0x8, addend: 0x0, symName: __ZNKSt3__117__compressed_pairIP3RowNS_9allocatorIS1_EEE5firstB8ue170006Ev, symObjAddr: 0xEF94, symBinAddr: 0x100013C7C, symSize: 0x24 }
  - { offsetInCU: 0x2A544, offset: 0x45897, size: 0x8, addend: 0x0, symName: __ZNKSt3__122__compressed_pair_elemIP3RowLi0ELb0EE5__getB8ue170006Ev, symObjAddr: 0xEFB8, symBinAddr: 0x100013CA0, symSize: 0x14 }
  - { offsetInCU: 0x2A573, offset: 0x458C6, size: 0x8, addend: 0x0, symName: __ZNSt3__116allocator_traitsINS_9allocatorI3RowEEE8max_sizeB8ue170006IS3_vEEmRKS3_, symObjAddr: 0xEFF8, symBinAddr: 0x100013CB4, symSize: 0x24 }
  - { offsetInCU: 0x2A5A1, offset: 0x458F4, size: 0x8, addend: 0x0, symName: __ZNKSt3__16vectorI3RowNS_9allocatorIS1_EEE7__allocB8ue170006Ev, symObjAddr: 0xF01C, symBinAddr: 0x100013CD8, symSize: 0x28 }
  - { offsetInCU: 0x2A5C5, offset: 0x45918, size: 0x8, addend: 0x0, symName: __ZNKSt3__19allocatorI3RowE8max_sizeB8ue170006Ev, symObjAddr: 0xF0AC, symBinAddr: 0x100013D00, symSize: 0x18 }
  - { offsetInCU: 0x2A5EA, offset: 0x4593D, size: 0x8, addend: 0x0, symName: __ZNKSt3__117__compressed_pairIP3RowNS_9allocatorIS1_EEE6secondB8ue170006Ev, symObjAddr: 0xF0C4, symBinAddr: 0x100013D18, symSize: 0x24 }
  - { offsetInCU: 0x2A60E, offset: 0x45961, size: 0x8, addend: 0x0, symName: __ZNKSt3__122__compressed_pair_elemINS_9allocatorI3RowEELi1ELb1EE5__getB8ue170006Ev, symObjAddr: 0xF0E8, symBinAddr: 0x100013D3C, symSize: 0x14 }
  - { offsetInCU: 0x2A633, offset: 0x45986, size: 0x8, addend: 0x0, symName: __ZNSt3__117__compressed_pairIP3RowNS_9allocatorIS1_EEE6secondB8ue170006Ev, symObjAddr: 0xF1E8, symBinAddr: 0x100013D50, symSize: 0x24 }
  - { offsetInCU: 0x2A657, offset: 0x459AA, size: 0x8, addend: 0x0, symName: __ZNSt3__122__compressed_pair_elemINS_9allocatorI3RowEELi1ELb1EE5__getB8ue170006Ev, symObjAddr: 0xF20C, symBinAddr: 0x100013D74, symSize: 0x14 }
  - { offsetInCU: 0x2A67C, offset: 0x459CF, size: 0x8, addend: 0x0, symName: __ZNSt3__114__split_bufferI3RowRNS_9allocatorIS1_EEEC2EmmS4_, symObjAddr: 0xF220, symBinAddr: 0x100013D88, symSize: 0xE0 }
  - { offsetInCU: 0x2A6EE, offset: 0x45A41, size: 0x8, addend: 0x0, symName: __ZNSt3__117__compressed_pairIP3RowRNS_9allocatorIS1_EEEC1B8ue170006IDnS5_EEOT_OT0_, symObjAddr: 0xF300, symBinAddr: 0x100013E68, symSize: 0x3C }
  - { offsetInCU: 0x2A744, offset: 0x45A97, size: 0x8, addend: 0x0, symName: __ZNSt3__114__split_bufferI3RowRNS_9allocatorIS1_EEE7__allocB8ue170006Ev, symObjAddr: 0xF37C, symBinAddr: 0x100013EE4, symSize: 0x28 }
  - { offsetInCU: 0x2A768, offset: 0x45ABB, size: 0x8, addend: 0x0, symName: __ZNSt3__114__split_bufferI3RowRNS_9allocatorIS1_EEE9__end_capB8ue170006Ev, symObjAddr: 0xF3A4, symBinAddr: 0x100013F0C, symSize: 0x28 }
  - { offsetInCU: 0x2A78C, offset: 0x45ADF, size: 0x8, addend: 0x0, symName: __ZNSt3__117__compressed_pairIP3RowRNS_9allocatorIS1_EEEC2B8ue170006IDnS5_EEOT_OT0_, symObjAddr: 0xF3CC, symBinAddr: 0x100013F34, symSize: 0x48 }
  - { offsetInCU: 0x2A7E2, offset: 0x45B35, size: 0x8, addend: 0x0, symName: __ZNSt3__122__compressed_pair_elemIRNS_9allocatorI3RowEELi1ELb0EEC2B8ue170006IS4_vEEOT_, symObjAddr: 0xF414, symBinAddr: 0x100013F7C, symSize: 0x20 }
  - { offsetInCU: 0x2A824, offset: 0x45B77, size: 0x8, addend: 0x0, symName: __ZNSt3__19allocatorI3RowE8allocateB8ue170006Em, symObjAddr: 0xF434, symBinAddr: 0x100013F9C, symSize: 0x5C }
  - { offsetInCU: 0x2A856, offset: 0x45BA9, size: 0x8, addend: 0x0, symName: __ZNSt3__117__compressed_pairIP3RowRNS_9allocatorIS1_EEE6secondB8ue170006Ev, symObjAddr: 0xF490, symBinAddr: 0x100013FF8, symSize: 0x28 }
  - { offsetInCU: 0x2A87A, offset: 0x45BCD, size: 0x8, addend: 0x0, symName: __ZNSt3__122__compressed_pair_elemIRNS_9allocatorI3RowEELi1ELb0EE5__getB8ue170006Ev, symObjAddr: 0xF4B8, symBinAddr: 0x100014020, symSize: 0x18 }
  - { offsetInCU: 0x2A89F, offset: 0x45BF2, size: 0x8, addend: 0x0, symName: __ZNSt3__117__compressed_pairIP3RowRNS_9allocatorIS1_EEE5firstB8ue170006Ev, symObjAddr: 0xF4D0, symBinAddr: 0x100014038, symSize: 0x24 }
  - { offsetInCU: 0x2A8C3, offset: 0x45C16, size: 0x8, addend: 0x0, symName: __ZNSt3__122__compressed_pair_elemIP3RowLi0ELb0EE5__getB8ue170006Ev, symObjAddr: 0xF4F4, symBinAddr: 0x10001405C, symSize: 0x14 }
  - { offsetInCU: 0x2A8E8, offset: 0x45C3B, size: 0x8, addend: 0x0, symName: __ZNKSt3__16vectorI3RowNS_9allocatorIS1_EEE17__annotate_deleteB8ue170006Ev, symObjAddr: 0xF508, symBinAddr: 0x100014070, symSize: 0xD4 }
  - { offsetInCU: 0x2A90C, offset: 0x45C5F, size: 0x8, addend: 0x0, symName: __ZNSt3__116reverse_iteratorIP3RowEC1B8ue170006ES2_, symObjAddr: 0xF708, symBinAddr: 0x100014270, symSize: 0x34 }
  - { offsetInCU: 0x2A942, offset: 0x45C95, size: 0x8, addend: 0x0, symName: __ZNKSt3__116reverse_iteratorIP3RowE4baseB8ue170006Ev, symObjAddr: 0xF73C, symBinAddr: 0x1000142A4, symSize: 0x18 }
  - { offsetInCU: 0x2A967, offset: 0x45CBA, size: 0x8, addend: 0x0, symName: __ZNSt3__16vectorI3RowNS_9allocatorIS1_EEE9__end_capB8ue170006Ev, symObjAddr: 0xF790, symBinAddr: 0x1000142F8, symSize: 0x28 }
  - { offsetInCU: 0x2A98B, offset: 0x45CDE, size: 0x8, addend: 0x0, symName: __ZNKSt3__16vectorI3RowNS_9allocatorIS1_EEE14__annotate_newB8ue170006Em, symObjAddr: 0xF7B8, symBinAddr: 0x100014320, symSize: 0xC8 }
  - { offsetInCU: 0x2A9BE, offset: 0x45D11, size: 0x8, addend: 0x0, symName: __ZNKSt3__16vectorI3RowNS_9allocatorIS1_EEE31__annotate_contiguous_containerB8ue170006EPKvS6_S6_S6_, symObjAddr: 0xF880, symBinAddr: 0x1000143E8, symSize: 0x20 }
  - { offsetInCU: 0x2AA13, offset: 0x45D66, size: 0x8, addend: 0x0, symName: __ZNKSt3__16vectorI3RowNS_9allocatorIS1_EEE4dataB8ue170006Ev, symObjAddr: 0xF8A0, symBinAddr: 0x100014408, symSize: 0x28 }
  - { offsetInCU: 0x2AA37, offset: 0x45D8A, size: 0x8, addend: 0x0, symName: __ZNSt3__129_AllocatorDestroyRangeReverseINS_9allocatorI3RowEENS_16reverse_iteratorIPS2_EEEC1B8ue170006ERS3_RS6_S9_, symObjAddr: 0xF928, symBinAddr: 0x100014490, symSize: 0x44 }
  - { offsetInCU: 0x2AA91, offset: 0x45DE4, size: 0x8, addend: 0x0, symName: __ZNSt3__116allocator_traitsINS_9allocatorI3RowEEE9constructB8ue170006IS2_JS2_EvEEvRS3_PT_DpOT0_, symObjAddr: 0xF9B4, symBinAddr: 0x10001451C, symSize: 0x34 }
  - { offsetInCU: 0x2AAEA, offset: 0x45E3D, size: 0x8, addend: 0x0, symName: __ZNKSt3__116reverse_iteratorIP3RowEdeB8ue170006Ev, symObjAddr: 0xFA0C, symBinAddr: 0x100014574, symSize: 0x28 }
  - { offsetInCU: 0x2AB1D, offset: 0x45E70, size: 0x8, addend: 0x0, symName: __ZNSt3__116reverse_iteratorIP3RowEppB8ue170006Ev, symObjAddr: 0xFA34, symBinAddr: 0x10001459C, symSize: 0x20 }
  - { offsetInCU: 0x2AB42, offset: 0x45E95, size: 0x8, addend: 0x0, symName: __ZNSt3__128__exception_guard_exceptionsINS_29_AllocatorDestroyRangeReverseINS_9allocatorI3RowEENS_16reverse_iteratorIPS3_EEEEE10__completeB8ue170006Ev, symObjAddr: 0xFA54, symBinAddr: 0x1000145BC, symSize: 0x1C }
  - { offsetInCU: 0x2AB67, offset: 0x45EBA, size: 0x8, addend: 0x0, symName: __ZNSt3__128__exception_guard_exceptionsINS_29_AllocatorDestroyRangeReverseINS_9allocatorI3RowEENS_16reverse_iteratorIPS3_EEEEED1B8ue170006Ev, symObjAddr: 0xFA70, symBinAddr: 0x1000145D8, symSize: 0x2C }
  - { offsetInCU: 0x2AB8F, offset: 0x45EE2, size: 0x8, addend: 0x0, symName: __ZNSt3__128__exception_guard_exceptionsINS_29_AllocatorDestroyRangeReverseINS_9allocatorI3RowEENS_16reverse_iteratorIPS3_EEEEEC1B8ue170006ES8_, symObjAddr: 0xFA9C, symBinAddr: 0x100014604, symSize: 0x34 }
  - { offsetInCU: 0x2ABC6, offset: 0x45F19, size: 0x8, addend: 0x0, symName: __ZNSt3__128__exception_guard_exceptionsINS_29_AllocatorDestroyRangeReverseINS_9allocatorI3RowEENS_16reverse_iteratorIPS3_EEEEEC2B8ue170006ES8_, symObjAddr: 0xFAD0, symBinAddr: 0x100014638, symSize: 0x30 }
  - { offsetInCU: 0x2ABFE, offset: 0x45F51, size: 0x8, addend: 0x0, symName: __ZNSt3__129_AllocatorDestroyRangeReverseINS_9allocatorI3RowEENS_16reverse_iteratorIPS2_EEEC2B8ue170006ERS3_RS6_S9_, symObjAddr: 0xFB00, symBinAddr: 0x100014668, symSize: 0x38 }
  - { offsetInCU: 0x2AC54, offset: 0x45FA7, size: 0x8, addend: 0x0, symName: __ZNSt3__19allocatorI3RowE9constructB8ue170006IS1_JS1_EEEvPT_DpOT0_, symObjAddr: 0xFB38, symBinAddr: 0x1000146A0, symSize: 0x30 }
  - { offsetInCU: 0x2ACAA, offset: 0x45FFD, size: 0x8, addend: 0x0, symName: __ZN3RowC1EOS_, symObjAddr: 0xFB68, symBinAddr: 0x1000146D0, symSize: 0x34 }
  - { offsetInCU: 0x2ACDD, offset: 0x46030, size: 0x8, addend: 0x0, symName: __ZN3RowC2EOS_, symObjAddr: 0xFB9C, symBinAddr: 0x100014704, symSize: 0x74 }
  - { offsetInCU: 0x2AD10, offset: 0x46063, size: 0x8, addend: 0x0, symName: __ZNSt3__112basic_stringIcNS_11char_traitsIcEENS_9allocatorIcEEEC1B8ue170006EOS5_, symObjAddr: 0xFC10, symBinAddr: 0x100014778, symSize: 0x34 }
  - { offsetInCU: 0x2AD47, offset: 0x4609A, size: 0x8, addend: 0x0, symName: __ZNSt3__112basic_stringIcNS_11char_traitsIcEENS_9allocatorIcEEEC2B8ue170006EOS5_, symObjAddr: 0xFC44, symBinAddr: 0x1000147AC, symSize: 0x48 }
  - { offsetInCU: 0x2AD83, offset: 0x460D6, size: 0x8, addend: 0x0, symName: __ZNSt3__119__to_address_helperINS_16reverse_iteratorIP3RowEEvE6__callB8ue170006ERKS4_, symObjAddr: 0xFC8C, symBinAddr: 0x1000147F4, symSize: 0x38 }
  - { offsetInCU: 0x2ADA5, offset: 0x460F8, size: 0x8, addend: 0x0, symName: __ZNKSt3__116reverse_iteratorIP3RowEptB8ue170006Ev, symObjAddr: 0xFCC4, symBinAddr: 0x10001482C, symSize: 0x24 }
  - { offsetInCU: 0x2ADC9, offset: 0x4611C, size: 0x8, addend: 0x0, symName: __ZNSt3__128__exception_guard_exceptionsINS_29_AllocatorDestroyRangeReverseINS_9allocatorI3RowEENS_16reverse_iteratorIPS3_EEEEED2B8ue170006Ev, symObjAddr: 0xFCE8, symBinAddr: 0x100014850, symSize: 0x50 }
  - { offsetInCU: 0x2ADF1, offset: 0x46144, size: 0x8, addend: 0x0, symName: __ZNKSt3__129_AllocatorDestroyRangeReverseINS_9allocatorI3RowEENS_16reverse_iteratorIPS2_EEEclB8ue170006Ev, symObjAddr: 0xFD38, symBinAddr: 0x1000148A0, symSize: 0xB4 }
  - { offsetInCU: 0x2AE16, offset: 0x46169, size: 0x8, addend: 0x0, symName: __ZNSt3__116reverse_iteratorINS0_IP3RowEEEC1B8ue170006ES3_, symObjAddr: 0xFE5C, symBinAddr: 0x1000149C4, symSize: 0x3C }
  - { offsetInCU: 0x2AE4C, offset: 0x4619F, size: 0x8, addend: 0x0, symName: __ZNSt3__116allocator_traitsINS_9allocatorI3RowEEE7destroyB8ue170006IS2_vEEvRS3_PT_, symObjAddr: 0xFEF8, symBinAddr: 0x100014A60, symSize: 0x2C }
  - { offsetInCU: 0x2AE89, offset: 0x461DC, size: 0x8, addend: 0x0, symName: __ZNSt3__116reverse_iteratorINS0_IP3RowEEEppB8ue170006Ev, symObjAddr: 0xFF48, symBinAddr: 0x100014AB0, symSize: 0x30 }
  - { offsetInCU: 0x2AEAD, offset: 0x46200, size: 0x8, addend: 0x0, symName: __ZNKSt3__116reverse_iteratorINS0_IP3RowEEE4baseB8ue170006Ev, symObjAddr: 0xFF78, symBinAddr: 0x100014AE0, symSize: 0x24 }
  - { offsetInCU: 0x2AED2, offset: 0x46225, size: 0x8, addend: 0x0, symName: __ZNSt3__19allocatorI3RowE7destroyB8ue170006EPS1_, symObjAddr: 0xFF9C, symBinAddr: 0x100014B04, symSize: 0x28 }
  - { offsetInCU: 0x2AF09, offset: 0x4625C, size: 0x8, addend: 0x0, symName: __ZNSt3__119__to_address_helperINS_16reverse_iteratorINS1_IP3RowEEEEvE6__callB8ue170006ERKS5_, symObjAddr: 0xFFC4, symBinAddr: 0x100014B2C, symSize: 0x38 }
  - { offsetInCU: 0x2AF2B, offset: 0x4627E, size: 0x8, addend: 0x0, symName: __ZNKSt3__116reverse_iteratorINS0_IP3RowEEEptB8ue170006Ev, symObjAddr: 0xFFFC, symBinAddr: 0x100014B64, symSize: 0x24 }
  - { offsetInCU: 0x2AF4F, offset: 0x462A2, size: 0x8, addend: 0x0, symName: __ZNKSt3__116reverse_iteratorINS0_IP3RowEEEdeB8ue170006Ev, symObjAddr: 0x10020, symBinAddr: 0x100014B88, symSize: 0x34 }
  - { offsetInCU: 0x2AF81, offset: 0x462D4, size: 0x8, addend: 0x0, symName: __ZNSt3__116reverse_iteratorIP3RowEmmB8ue170006Ev, symObjAddr: 0x10054, symBinAddr: 0x100014BBC, symSize: 0x20 }
  - { offsetInCU: 0x2AFA6, offset: 0x462F9, size: 0x8, addend: 0x0, symName: __ZNSt3__116reverse_iteratorINS0_IP3RowEEEC2B8ue170006ES3_, symObjAddr: 0x10074, symBinAddr: 0x100014BDC, symSize: 0x2C }
  - { offsetInCU: 0x2AFDD, offset: 0x46330, size: 0x8, addend: 0x0, symName: __ZNSt3__116reverse_iteratorIP3RowEC2B8ue170006ES2_, symObjAddr: 0x100A0, symBinAddr: 0x100014C08, symSize: 0x28 }
  - { offsetInCU: 0x2B014, offset: 0x46367, size: 0x8, addend: 0x0, symName: __ZNSt3__117__compressed_pairIP3RowNS_9allocatorIS1_EEE5firstB8ue170006Ev, symObjAddr: 0x100C8, symBinAddr: 0x100014C30, symSize: 0x24 }
  - { offsetInCU: 0x2B038, offset: 0x4638B, size: 0x8, addend: 0x0, symName: __ZNSt3__114__split_bufferI3RowRNS_9allocatorIS1_EEED2Ev, symObjAddr: 0x100EC, symBinAddr: 0x100014C54, symSize: 0x8C }
  - { offsetInCU: 0x2B062, offset: 0x463B5, size: 0x8, addend: 0x0, symName: __ZNSt3__114__split_bufferI3RowRNS_9allocatorIS1_EEE5clearB8ue170006Ev, symObjAddr: 0x10178, symBinAddr: 0x100014CE0, symSize: 0x28 }
  - { offsetInCU: 0x2B086, offset: 0x463D9, size: 0x8, addend: 0x0, symName: __ZNSt3__116allocator_traitsINS_9allocatorI3RowEEE10deallocateB8ue170006ERS3_PS2_m, symObjAddr: 0x101A0, symBinAddr: 0x100014D08, symSize: 0x34 }
  - { offsetInCU: 0x2B0C7, offset: 0x4641A, size: 0x8, addend: 0x0, symName: __ZNKSt3__114__split_bufferI3RowRNS_9allocatorIS1_EEE8capacityB8ue170006Ev, symObjAddr: 0x101D4, symBinAddr: 0x100014D3C, symSize: 0x40 }
  - { offsetInCU: 0x2B0EB, offset: 0x4643E, size: 0x8, addend: 0x0, symName: __ZNSt3__114__split_bufferI3RowRNS_9allocatorIS1_EEE17__destruct_at_endB8ue170006EPS1_, symObjAddr: 0x10214, symBinAddr: 0x100014D7C, symSize: 0x2C }
  - { offsetInCU: 0x2B11D, offset: 0x46470, size: 0x8, addend: 0x0, symName: __ZNSt3__114__split_bufferI3RowRNS_9allocatorIS1_EEE17__destruct_at_endB8ue170006EPS1_NS_17integral_constantIbLb0EEE, symObjAddr: 0x10240, symBinAddr: 0x100014DA8, symSize: 0x80 }
  - { offsetInCU: 0x2B15D, offset: 0x464B0, size: 0x8, addend: 0x0, symName: __ZNSt3__19allocatorI3RowE10deallocateB8ue170006EPS1_m, symObjAddr: 0x102C0, symBinAddr: 0x100014E28, symSize: 0x44 }
  - { offsetInCU: 0x2B19D, offset: 0x464F0, size: 0x8, addend: 0x0, symName: __ZNKSt3__114__split_bufferI3RowRNS_9allocatorIS1_EEE9__end_capB8ue170006Ev, symObjAddr: 0x10304, symBinAddr: 0x100014E6C, symSize: 0x28 }
  - { offsetInCU: 0x2B1C1, offset: 0x46514, size: 0x8, addend: 0x0, symName: __ZNKSt3__117__compressed_pairIP3RowRNS_9allocatorIS1_EEE5firstB8ue170006Ev, symObjAddr: 0x1032C, symBinAddr: 0x100014E94, symSize: 0x24 }
  - { offsetInCU: 0x2B20D, offset: 0x46560, size: 0x8, addend: 0x0, symName: __ZNSt3__16vectorINS_12basic_stringIcNS_11char_traitsIcEENS_9allocatorIcEEEENS4_IS6_EEEC1B8ue170006Ev, symObjAddr: 0x1091C, symBinAddr: 0x100014EB8, symSize: 0x2C }
  - { offsetInCU: 0x2B258, offset: 0x465AB, size: 0x8, addend: 0x0, symName: __ZNSt3__119basic_istringstreamIcNS_11char_traitsIcEENS_9allocatorIcEEEC1B8ue170006ERKNS_12basic_stringIcS2_S4_EEj, symObjAddr: 0x10948, symBinAddr: 0x100014EE4, symSize: 0xFC }
  - { offsetInCU: 0x2B29E, offset: 0x465F1, size: 0x8, addend: 0x0, symName: __ZNSt3__16vectorINS_12basic_stringIcNS_11char_traitsIcEENS_9allocatorIcEEEENS4_IS6_EEE9push_backB8ue170006ERKS6_, symObjAddr: 0x10D4C, symBinAddr: 0x1000152E8, symSize: 0x6C }
  - { offsetInCU: 0x2B2D9, offset: 0x4662C, size: 0x8, addend: 0x0, symName: __ZNSt3__119basic_istringstreamIcNS_11char_traitsIcEENS_9allocatorIcEEED1Ev, symObjAddr: 0x10DB8, symBinAddr: 0x100015354, symSize: 0x40 }
  - { offsetInCU: 0x2B304, offset: 0x46657, size: 0x8, addend: 0x0, symName: __ZNSt3__16vectorINS_12basic_stringIcNS_11char_traitsIcEENS_9allocatorIcEEEENS4_IS6_EEEC2B8ue170006Ev, symObjAddr: 0x10DF8, symBinAddr: 0x100015394, symSize: 0x4C }
  - { offsetInCU: 0x2B32C, offset: 0x4667F, size: 0x8, addend: 0x0, symName: __ZNSt3__117__compressed_pairIPNS_12basic_stringIcNS_11char_traitsIcEENS_9allocatorIcEEEENS4_IS6_EEEC1B8ue170006IDnNS_18__default_init_tagEEEOT_OT0_, symObjAddr: 0x10E44, symBinAddr: 0x1000153E0, symSize: 0x3C }
  - { offsetInCU: 0x2B382, offset: 0x466D5, size: 0x8, addend: 0x0, symName: __ZNSt3__117__compressed_pairIPNS_12basic_stringIcNS_11char_traitsIcEENS_9allocatorIcEEEENS4_IS6_EEEC2B8ue170006IDnNS_18__default_init_tagEEEOT_OT0_, symObjAddr: 0x10E80, symBinAddr: 0x10001541C, symSize: 0x40 }
  - { offsetInCU: 0x2B3D8, offset: 0x4672B, size: 0x8, addend: 0x0, symName: __ZNSt3__122__compressed_pair_elemIPNS_12basic_stringIcNS_11char_traitsIcEENS_9allocatorIcEEEELi0ELb0EEC2B8ue170006IDnvEEOT_, symObjAddr: 0x10EC0, symBinAddr: 0x10001545C, symSize: 0x1C }
  - { offsetInCU: 0x2B41A, offset: 0x4676D, size: 0x8, addend: 0x0, symName: __ZNSt3__122__compressed_pair_elemINS_9allocatorINS_12basic_stringIcNS_11char_traitsIcEENS1_IcEEEEEELi1ELb1EEC2B8ue170006ENS_18__default_init_tagE, symObjAddr: 0x10EDC, symBinAddr: 0x100015478, symSize: 0x2C }
  - { offsetInCU: 0x2B44D, offset: 0x467A0, size: 0x8, addend: 0x0, symName: __ZNSt3__19allocatorINS_12basic_stringIcNS_11char_traitsIcEENS0_IcEEEEEC2B8ue170006Ev, symObjAddr: 0x10F08, symBinAddr: 0x1000154A4, symSize: 0x2C }
  - { offsetInCU: 0x2B475, offset: 0x467C8, size: 0x8, addend: 0x0, symName: __ZNSt3__116__non_trivial_ifILb1ENS_9allocatorINS_12basic_stringIcNS_11char_traitsIcEENS1_IcEEEEEEEC2B8ue170006Ev, symObjAddr: 0x10F34, symBinAddr: 0x1000154D0, symSize: 0x14 }
  - { offsetInCU: 0x2B49E, offset: 0x467F1, size: 0x8, addend: 0x0, symName: __ZNSt3__115basic_stringbufIcNS_11char_traitsIcEENS_9allocatorIcEEEC1B8ue170006ERKNS_12basic_stringIcS2_S4_EEj, symObjAddr: 0x10F48, symBinAddr: 0x1000154E4, symSize: 0x3C }
  - { offsetInCU: 0x2B4E4, offset: 0x46837, size: 0x8, addend: 0x0, symName: __ZNSt3__115basic_stringbufIcNS_11char_traitsIcEENS_9allocatorIcEEEC2B8ue170006ERKNS_12basic_stringIcS2_S4_EEj, symObjAddr: 0x10F84, symBinAddr: 0x100015520, symSize: 0xB4 }
  - { offsetInCU: 0x2B52A, offset: 0x4687D, size: 0x8, addend: 0x0, symName: __ZNKSt3__112basic_stringIcNS_11char_traitsIcEENS_9allocatorIcEEE13get_allocatorB8ue170006Ev, symObjAddr: 0x11038, symBinAddr: 0x1000155D4, symSize: 0x24 }
  - { offsetInCU: 0x2B54E, offset: 0x468A1, size: 0x8, addend: 0x0, symName: __ZNSt3__112basic_stringIcNS_11char_traitsIcEENS_9allocatorIcEEEC1B8ue170006ERKS4_, symObjAddr: 0x1105C, symBinAddr: 0x1000155F8, symSize: 0x34 }
  - { offsetInCU: 0x2B585, offset: 0x468D8, size: 0x8, addend: 0x0, symName: __ZNSt3__112basic_stringIcNS_11char_traitsIcEENS_9allocatorIcEEEC2B8ue170006ERKS4_, symObjAddr: 0x11090, symBinAddr: 0x10001562C, symSize: 0x48 }
  - { offsetInCU: 0x2B5BC, offset: 0x4690F, size: 0x8, addend: 0x0, symName: __ZNSt3__117__compressed_pairINS_12basic_stringIcNS_11char_traitsIcEENS_9allocatorIcEEE5__repES5_EC1B8ue170006INS_18__default_init_tagERKS5_EEOT_OT0_, symObjAddr: 0x110D8, symBinAddr: 0x100015674, symSize: 0x3C }
  - { offsetInCU: 0x2B612, offset: 0x46965, size: 0x8, addend: 0x0, symName: __ZNSt3__117__compressed_pairINS_12basic_stringIcNS_11char_traitsIcEENS_9allocatorIcEEE5__repES5_EC2B8ue170006INS_18__default_init_tagERKS5_EEOT_OT0_, symObjAddr: 0x11114, symBinAddr: 0x1000156B0, symSize: 0x40 }
  - { offsetInCU: 0x2B668, offset: 0x469BB, size: 0x8, addend: 0x0, symName: __ZNSt3__122__compressed_pair_elemINS_9allocatorIcEELi1ELb1EEC2B8ue170006IRKS2_vEEOT_, symObjAddr: 0x11154, symBinAddr: 0x1000156F0, symSize: 0x18 }
  - { offsetInCU: 0x2B6AA, offset: 0x469FD, size: 0x8, addend: 0x0, symName: __ZNSt3__115basic_streambufIcNS_11char_traitsIcEEE5sgetcB8ue170006Ev, symObjAddr: 0x1116C, symBinAddr: 0x100015708, symSize: 0x70 }
  - { offsetInCU: 0x2B6CE, offset: 0x46A21, size: 0x8, addend: 0x0, symName: __ZNKSt3__15ctypeIcE2isB8ue170006Ejc, symObjAddr: 0x111DC, symBinAddr: 0x100015778, symSize: 0x7C }
  - { offsetInCU: 0x2B70F, offset: 0x46A62, size: 0x8, addend: 0x0, symName: __Z7isasciii, symObjAddr: 0x11258, symBinAddr: 0x1000157F4, symSize: 0x24 }
  - { offsetInCU: 0x2B73C, offset: 0x46A8F, size: 0x8, addend: 0x0, symName: __ZNSt3__16vectorINS_12basic_stringIcNS_11char_traitsIcEENS_9allocatorIcEEEENS4_IS6_EEE9__end_capB8ue170006Ev, symObjAddr: 0x1127C, symBinAddr: 0x100015818, symSize: 0x28 }
  - { offsetInCU: 0x2B760, offset: 0x46AB3, size: 0x8, addend: 0x0, symName: __ZNSt3__16vectorINS_12basic_stringIcNS_11char_traitsIcEENS_9allocatorIcEEEENS4_IS6_EEE22__construct_one_at_endB8ue170006IJRKS6_EEEvDpOT_, symObjAddr: 0x112A4, symBinAddr: 0x100015840, symSize: 0x90 }
  - { offsetInCU: 0x2B7AF, offset: 0x46B02, size: 0x8, addend: 0x0, symName: __ZNSt3__16vectorINS_12basic_stringIcNS_11char_traitsIcEENS_9allocatorIcEEEENS4_IS6_EEE21__push_back_slow_pathIRKS6_EEvOT_, symObjAddr: 0x11334, symBinAddr: 0x1000158D0, symSize: 0xD8 }
  - { offsetInCU: 0x2B80C, offset: 0x46B5F, size: 0x8, addend: 0x0, symName: __ZNSt3__117__compressed_pairIPNS_12basic_stringIcNS_11char_traitsIcEENS_9allocatorIcEEEENS4_IS6_EEE5firstB8ue170006Ev, symObjAddr: 0x1140C, symBinAddr: 0x1000159A8, symSize: 0x24 }
  - { offsetInCU: 0x2B830, offset: 0x46B83, size: 0x8, addend: 0x0, symName: __ZNSt3__122__compressed_pair_elemIPNS_12basic_stringIcNS_11char_traitsIcEENS_9allocatorIcEEEELi0ELb0EE5__getB8ue170006Ev, symObjAddr: 0x11430, symBinAddr: 0x1000159CC, symSize: 0x14 }
  - { offsetInCU: 0x2B86E, offset: 0x46BC1, size: 0x8, addend: 0x0, symName: __ZNSt3__16vectorINS_12basic_stringIcNS_11char_traitsIcEENS_9allocatorIcEEEENS4_IS6_EEE21_ConstructTransactionC1B8ue170006ERS8_m, symObjAddr: 0x11444, symBinAddr: 0x1000159E0, symSize: 0x3C }
  - { offsetInCU: 0x2B8B4, offset: 0x46C07, size: 0x8, addend: 0x0, symName: __ZNSt3__116allocator_traitsINS_9allocatorINS_12basic_stringIcNS_11char_traitsIcEENS1_IcEEEEEEE9constructB8ue170006IS6_JRKS6_EvEEvRS7_PT_DpOT0_, symObjAddr: 0x11480, symBinAddr: 0x100015A1C, symSize: 0x34 }
  - { offsetInCU: 0x2B90D, offset: 0x46C60, size: 0x8, addend: 0x0, symName: __ZNSt3__16vectorINS_12basic_stringIcNS_11char_traitsIcEENS_9allocatorIcEEEENS4_IS6_EEE7__allocB8ue170006Ev, symObjAddr: 0x114B4, symBinAddr: 0x100015A50, symSize: 0x28 }
  - { offsetInCU: 0x2B931, offset: 0x46C84, size: 0x8, addend: 0x0, symName: __ZNSt3__16vectorINS_12basic_stringIcNS_11char_traitsIcEENS_9allocatorIcEEEENS4_IS6_EEE21_ConstructTransactionD1B8ue170006Ev, symObjAddr: 0x114F0, symBinAddr: 0x100015A8C, symSize: 0x2C }
  - { offsetInCU: 0x2B959, offset: 0x46CAC, size: 0x8, addend: 0x0, symName: __ZNSt3__16vectorINS_12basic_stringIcNS_11char_traitsIcEENS_9allocatorIcEEEENS4_IS6_EEE21_ConstructTransactionC2B8ue170006ERS8_m, symObjAddr: 0x1151C, symBinAddr: 0x100015AB8, symSize: 0x4C }
  - { offsetInCU: 0x2B9A0, offset: 0x46CF3, size: 0x8, addend: 0x0, symName: __ZNSt3__19allocatorINS_12basic_stringIcNS_11char_traitsIcEENS0_IcEEEEE9constructB8ue170006IS5_JRKS5_EEEvPT_DpOT0_, symObjAddr: 0x11568, symBinAddr: 0x100015B04, symSize: 0x30 }
  - { offsetInCU: 0x2B9F6, offset: 0x46D49, size: 0x8, addend: 0x0, symName: __ZNSt3__117__compressed_pairIPNS_12basic_stringIcNS_11char_traitsIcEENS_9allocatorIcEEEENS4_IS6_EEE6secondB8ue170006Ev, symObjAddr: 0x11598, symBinAddr: 0x100015B34, symSize: 0x24 }
  - { offsetInCU: 0x2BA1A, offset: 0x46D6D, size: 0x8, addend: 0x0, symName: __ZNSt3__122__compressed_pair_elemINS_9allocatorINS_12basic_stringIcNS_11char_traitsIcEENS1_IcEEEEEELi1ELb1EE5__getB8ue170006Ev, symObjAddr: 0x115BC, symBinAddr: 0x100015B58, symSize: 0x14 }
  - { offsetInCU: 0x2BA3F, offset: 0x46D92, size: 0x8, addend: 0x0, symName: __ZNSt3__16vectorINS_12basic_stringIcNS_11char_traitsIcEENS_9allocatorIcEEEENS4_IS6_EEE21_ConstructTransactionD2B8ue170006Ev, symObjAddr: 0x115D0, symBinAddr: 0x100015B6C, symSize: 0x20 }
  - { offsetInCU: 0x2BA68, offset: 0x46DBB, size: 0x8, addend: 0x0, symName: __ZNKSt3__16vectorINS_12basic_stringIcNS_11char_traitsIcEENS_9allocatorIcEEEENS4_IS6_EEE11__recommendB8ue170006Em, symObjAddr: 0x115F0, symBinAddr: 0x100015B8C, symSize: 0xB4 }
  - { offsetInCU: 0x2BABC, offset: 0x46E0F, size: 0x8, addend: 0x0, symName: __ZNSt3__114__split_bufferINS_12basic_stringIcNS_11char_traitsIcEENS_9allocatorIcEEEERNS4_IS6_EEEC1EmmS8_, symObjAddr: 0x116A4, symBinAddr: 0x100015C40, symSize: 0x44 }
  - { offsetInCU: 0x2BB10, offset: 0x46E63, size: 0x8, addend: 0x0, symName: __ZNSt3__114__split_bufferINS_12basic_stringIcNS_11char_traitsIcEENS_9allocatorIcEEEERNS4_IS6_EEED1Ev, symObjAddr: 0x117F8, symBinAddr: 0x100015D94, symSize: 0x2C }
  - { offsetInCU: 0x2BB3A, offset: 0x46E8D, size: 0x8, addend: 0x0, symName: __ZNKSt3__16vectorINS_12basic_stringIcNS_11char_traitsIcEENS_9allocatorIcEEEENS4_IS6_EEE8max_sizeEv, symObjAddr: 0x11824, symBinAddr: 0x100015DC0, symSize: 0x60 }
  - { offsetInCU: 0x2BB61, offset: 0x46EB4, size: 0x8, addend: 0x0, symName: __ZNKSt3__16vectorINS_12basic_stringIcNS_11char_traitsIcEENS_9allocatorIcEEEENS4_IS6_EEE20__throw_length_errorB8ue170006Ev, symObjAddr: 0x11884, symBinAddr: 0x100015E20, symSize: 0x1C }
  - { offsetInCU: 0x2BB85, offset: 0x46ED8, size: 0x8, addend: 0x0, symName: __ZNKSt3__16vectorINS_12basic_stringIcNS_11char_traitsIcEENS_9allocatorIcEEEENS4_IS6_EEE8capacityB8ue170006Ev, symObjAddr: 0x118A0, symBinAddr: 0x100015E3C, symSize: 0x40 }
  - { offsetInCU: 0x2BBB3, offset: 0x46F06, size: 0x8, addend: 0x0, symName: __ZNSt3__116allocator_traitsINS_9allocatorINS_12basic_stringIcNS_11char_traitsIcEENS1_IcEEEEEEE8max_sizeB8ue170006IS7_vEEmRKS7_, symObjAddr: 0x118E0, symBinAddr: 0x100015E7C, symSize: 0x24 }
  - { offsetInCU: 0x2BBE1, offset: 0x46F34, size: 0x8, addend: 0x0, symName: __ZNKSt3__16vectorINS_12basic_stringIcNS_11char_traitsIcEENS_9allocatorIcEEEENS4_IS6_EEE7__allocB8ue170006Ev, symObjAddr: 0x11904, symBinAddr: 0x100015EA0, symSize: 0x28 }
  - { offsetInCU: 0x2BC05, offset: 0x46F58, size: 0x8, addend: 0x0, symName: __ZNKSt3__19allocatorINS_12basic_stringIcNS_11char_traitsIcEENS0_IcEEEEE8max_sizeB8ue170006Ev, symObjAddr: 0x1192C, symBinAddr: 0x100015EC8, symSize: 0x18 }
  - { offsetInCU: 0x2BC2A, offset: 0x46F7D, size: 0x8, addend: 0x0, symName: __ZNKSt3__117__compressed_pairIPNS_12basic_stringIcNS_11char_traitsIcEENS_9allocatorIcEEEENS4_IS6_EEE6secondB8ue170006Ev, symObjAddr: 0x11944, symBinAddr: 0x100015EE0, symSize: 0x24 }
  - { offsetInCU: 0x2BC4E, offset: 0x46FA1, size: 0x8, addend: 0x0, symName: __ZNKSt3__122__compressed_pair_elemINS_9allocatorINS_12basic_stringIcNS_11char_traitsIcEENS1_IcEEEEEELi1ELb1EE5__getB8ue170006Ev, symObjAddr: 0x11968, symBinAddr: 0x100015F04, symSize: 0x14 }
  - { offsetInCU: 0x2BC73, offset: 0x46FC6, size: 0x8, addend: 0x0, symName: __ZNKSt3__16vectorINS_12basic_stringIcNS_11char_traitsIcEENS_9allocatorIcEEEENS4_IS6_EEE9__end_capB8ue170006Ev, symObjAddr: 0x1197C, symBinAddr: 0x100015F18, symSize: 0x28 }
  - { offsetInCU: 0x2BC97, offset: 0x46FEA, size: 0x8, addend: 0x0, symName: __ZNKSt3__117__compressed_pairIPNS_12basic_stringIcNS_11char_traitsIcEENS_9allocatorIcEEEENS4_IS6_EEE5firstB8ue170006Ev, symObjAddr: 0x119A4, symBinAddr: 0x100015F40, symSize: 0x24 }
  - { offsetInCU: 0x2BCBB, offset: 0x4700E, size: 0x8, addend: 0x0, symName: __ZNKSt3__122__compressed_pair_elemIPNS_12basic_stringIcNS_11char_traitsIcEENS_9allocatorIcEEEELi0ELb0EE5__getB8ue170006Ev, symObjAddr: 0x119C8, symBinAddr: 0x100015F64, symSize: 0x14 }
  - { offsetInCU: 0x2BCE0, offset: 0x47033, size: 0x8, addend: 0x0, symName: __ZNSt3__114__split_bufferINS_12basic_stringIcNS_11char_traitsIcEENS_9allocatorIcEEEERNS4_IS6_EEEC2EmmS8_, symObjAddr: 0x119DC, symBinAddr: 0x100015F78, symSize: 0xE0 }
  - { offsetInCU: 0x2BD52, offset: 0x470A5, size: 0x8, addend: 0x0, symName: __ZNSt3__117__compressed_pairIPNS_12basic_stringIcNS_11char_traitsIcEENS_9allocatorIcEEEERNS4_IS6_EEEC1B8ue170006IDnS9_EEOT_OT0_, symObjAddr: 0x11ABC, symBinAddr: 0x100016058, symSize: 0x3C }
  - { offsetInCU: 0x2BDA8, offset: 0x470FB, size: 0x8, addend: 0x0, symName: __ZNSt3__114__split_bufferINS_12basic_stringIcNS_11char_traitsIcEENS_9allocatorIcEEEERNS4_IS6_EEE7__allocB8ue170006Ev, symObjAddr: 0x11B38, symBinAddr: 0x1000160D4, symSize: 0x28 }
  - { offsetInCU: 0x2BDCC, offset: 0x4711F, size: 0x8, addend: 0x0, symName: __ZNSt3__114__split_bufferINS_12basic_stringIcNS_11char_traitsIcEENS_9allocatorIcEEEERNS4_IS6_EEE9__end_capB8ue170006Ev, symObjAddr: 0x11B60, symBinAddr: 0x1000160FC, symSize: 0x28 }
  - { offsetInCU: 0x2BDF0, offset: 0x47143, size: 0x8, addend: 0x0, symName: __ZNSt3__117__compressed_pairIPNS_12basic_stringIcNS_11char_traitsIcEENS_9allocatorIcEEEERNS4_IS6_EEEC2B8ue170006IDnS9_EEOT_OT0_, symObjAddr: 0x11B88, symBinAddr: 0x100016124, symSize: 0x48 }
  - { offsetInCU: 0x2BE46, offset: 0x47199, size: 0x8, addend: 0x0, symName: __ZNSt3__122__compressed_pair_elemIRNS_9allocatorINS_12basic_stringIcNS_11char_traitsIcEENS1_IcEEEEEELi1ELb0EEC2B8ue170006IS8_vEEOT_, symObjAddr: 0x11BD0, symBinAddr: 0x10001616C, symSize: 0x20 }
  - { offsetInCU: 0x2BE88, offset: 0x471DB, size: 0x8, addend: 0x0, symName: __ZNSt3__19allocatorINS_12basic_stringIcNS_11char_traitsIcEENS0_IcEEEEE8allocateB8ue170006Em, symObjAddr: 0x11BF0, symBinAddr: 0x10001618C, symSize: 0x5C }
  - { offsetInCU: 0x2BEBA, offset: 0x4720D, size: 0x8, addend: 0x0, symName: __ZNSt3__117__compressed_pairIPNS_12basic_stringIcNS_11char_traitsIcEENS_9allocatorIcEEEERNS4_IS6_EEE6secondB8ue170006Ev, symObjAddr: 0x11C4C, symBinAddr: 0x1000161E8, symSize: 0x28 }
  - { offsetInCU: 0x2BEDE, offset: 0x47231, size: 0x8, addend: 0x0, symName: __ZNSt3__122__compressed_pair_elemIRNS_9allocatorINS_12basic_stringIcNS_11char_traitsIcEENS1_IcEEEEEELi1ELb0EE5__getB8ue170006Ev, symObjAddr: 0x11C74, symBinAddr: 0x100016210, symSize: 0x18 }
  - { offsetInCU: 0x2BF03, offset: 0x47256, size: 0x8, addend: 0x0, symName: __ZNSt3__117__compressed_pairIPNS_12basic_stringIcNS_11char_traitsIcEENS_9allocatorIcEEEERNS4_IS6_EEE5firstB8ue170006Ev, symObjAddr: 0x11C8C, symBinAddr: 0x100016228, symSize: 0x24 }
  - { offsetInCU: 0x2BF27, offset: 0x4727A, size: 0x8, addend: 0x0, symName: __ZNKSt3__16vectorINS_12basic_stringIcNS_11char_traitsIcEENS_9allocatorIcEEEENS4_IS6_EEE17__annotate_deleteB8ue170006Ev, symObjAddr: 0x11CB0, symBinAddr: 0x10001624C, symSize: 0xD4 }
  - { offsetInCU: 0x2BF4B, offset: 0x4729E, size: 0x8, addend: 0x0, symName: __ZNSt3__116reverse_iteratorIPNS_12basic_stringIcNS_11char_traitsIcEENS_9allocatorIcEEEEEC1B8ue170006ES7_, symObjAddr: 0x11EB0, symBinAddr: 0x10001644C, symSize: 0x34 }
  - { offsetInCU: 0x2BF81, offset: 0x472D4, size: 0x8, addend: 0x0, symName: __ZNKSt3__116reverse_iteratorIPNS_12basic_stringIcNS_11char_traitsIcEENS_9allocatorIcEEEEE4baseB8ue170006Ev, symObjAddr: 0x11EE4, symBinAddr: 0x100016480, symSize: 0x18 }
  - { offsetInCU: 0x2BFA6, offset: 0x472F9, size: 0x8, addend: 0x0, symName: __ZNKSt3__16vectorINS_12basic_stringIcNS_11char_traitsIcEENS_9allocatorIcEEEENS4_IS6_EEE14__annotate_newB8ue170006Em, symObjAddr: 0x11F38, symBinAddr: 0x1000164D4, symSize: 0xC8 }
  - { offsetInCU: 0x2BFD9, offset: 0x4732C, size: 0x8, addend: 0x0, symName: __ZNKSt3__16vectorINS_12basic_stringIcNS_11char_traitsIcEENS_9allocatorIcEEEENS4_IS6_EEE31__annotate_contiguous_containerB8ue170006EPKvSA_SA_SA_, symObjAddr: 0x12000, symBinAddr: 0x10001659C, symSize: 0x20 }
  - { offsetInCU: 0x2C02E, offset: 0x47381, size: 0x8, addend: 0x0, symName: __ZNKSt3__16vectorINS_12basic_stringIcNS_11char_traitsIcEENS_9allocatorIcEEEENS4_IS6_EEE4dataB8ue170006Ev, symObjAddr: 0x12020, symBinAddr: 0x1000165BC, symSize: 0x28 }
  - { offsetInCU: 0x2C052, offset: 0x473A5, size: 0x8, addend: 0x0, symName: __ZNSt3__129_AllocatorDestroyRangeReverseINS_9allocatorINS_12basic_stringIcNS_11char_traitsIcEENS1_IcEEEEEENS_16reverse_iteratorIPS6_EEEC1B8ue170006ERS7_RSA_SD_, symObjAddr: 0x12094, symBinAddr: 0x100016630, symSize: 0x44 }
  - { offsetInCU: 0x2C0AC, offset: 0x473FF, size: 0x8, addend: 0x0, symName: __ZNSt3__116allocator_traitsINS_9allocatorINS_12basic_stringIcNS_11char_traitsIcEENS1_IcEEEEEEE9constructB8ue170006IS6_JS6_EvEEvRS7_PT_DpOT0_, symObjAddr: 0x12120, symBinAddr: 0x1000166BC, symSize: 0x34 }
  - { offsetInCU: 0x2C105, offset: 0x47458, size: 0x8, addend: 0x0, symName: __ZNKSt3__116reverse_iteratorIPNS_12basic_stringIcNS_11char_traitsIcEENS_9allocatorIcEEEEEdeB8ue170006Ev, symObjAddr: 0x12178, symBinAddr: 0x100016714, symSize: 0x28 }
  - { offsetInCU: 0x2C138, offset: 0x4748B, size: 0x8, addend: 0x0, symName: __ZNSt3__116reverse_iteratorIPNS_12basic_stringIcNS_11char_traitsIcEENS_9allocatorIcEEEEEppB8ue170006Ev, symObjAddr: 0x121A0, symBinAddr: 0x10001673C, symSize: 0x20 }
  - { offsetInCU: 0x2C15D, offset: 0x474B0, size: 0x8, addend: 0x0, symName: __ZNSt3__128__exception_guard_exceptionsINS_29_AllocatorDestroyRangeReverseINS_9allocatorINS_12basic_stringIcNS_11char_traitsIcEENS2_IcEEEEEENS_16reverse_iteratorIPS7_EEEEE10__completeB8ue170006Ev, symObjAddr: 0x121C0, symBinAddr: 0x10001675C, symSize: 0x1C }
  - { offsetInCU: 0x2C182, offset: 0x474D5, size: 0x8, addend: 0x0, symName: __ZNSt3__128__exception_guard_exceptionsINS_29_AllocatorDestroyRangeReverseINS_9allocatorINS_12basic_stringIcNS_11char_traitsIcEENS2_IcEEEEEENS_16reverse_iteratorIPS7_EEEEED1B8ue170006Ev, symObjAddr: 0x121DC, symBinAddr: 0x100016778, symSize: 0x2C }
  - { offsetInCU: 0x2C1AA, offset: 0x474FD, size: 0x8, addend: 0x0, symName: __ZNSt3__128__exception_guard_exceptionsINS_29_AllocatorDestroyRangeReverseINS_9allocatorINS_12basic_stringIcNS_11char_traitsIcEENS2_IcEEEEEENS_16reverse_iteratorIPS7_EEEEEC1B8ue170006ESC_, symObjAddr: 0x12208, symBinAddr: 0x1000167A4, symSize: 0x34 }
  - { offsetInCU: 0x2C1E1, offset: 0x47534, size: 0x8, addend: 0x0, symName: __ZNSt3__128__exception_guard_exceptionsINS_29_AllocatorDestroyRangeReverseINS_9allocatorINS_12basic_stringIcNS_11char_traitsIcEENS2_IcEEEEEENS_16reverse_iteratorIPS7_EEEEEC2B8ue170006ESC_, symObjAddr: 0x1223C, symBinAddr: 0x1000167D8, symSize: 0x30 }
  - { offsetInCU: 0x2C219, offset: 0x4756C, size: 0x8, addend: 0x0, symName: __ZNSt3__129_AllocatorDestroyRangeReverseINS_9allocatorINS_12basic_stringIcNS_11char_traitsIcEENS1_IcEEEEEENS_16reverse_iteratorIPS6_EEEC2B8ue170006ERS7_RSA_SD_, symObjAddr: 0x1226C, symBinAddr: 0x100016808, symSize: 0x38 }
  - { offsetInCU: 0x2C26F, offset: 0x475C2, size: 0x8, addend: 0x0, symName: __ZNSt3__19allocatorINS_12basic_stringIcNS_11char_traitsIcEENS0_IcEEEEE9constructB8ue170006IS5_JS5_EEEvPT_DpOT0_, symObjAddr: 0x122A4, symBinAddr: 0x100016840, symSize: 0x30 }
  - { offsetInCU: 0x2C2CA, offset: 0x4761D, size: 0x8, addend: 0x0, symName: __ZNSt3__119__to_address_helperINS_16reverse_iteratorIPNS_12basic_stringIcNS_11char_traitsIcEENS_9allocatorIcEEEEEEvE6__callB8ue170006ERKS9_, symObjAddr: 0x122D4, symBinAddr: 0x100016870, symSize: 0x38 }
  - { offsetInCU: 0x2C2EC, offset: 0x4763F, size: 0x8, addend: 0x0, symName: __ZNKSt3__116reverse_iteratorIPNS_12basic_stringIcNS_11char_traitsIcEENS_9allocatorIcEEEEEptB8ue170006Ev, symObjAddr: 0x1230C, symBinAddr: 0x1000168A8, symSize: 0x24 }
  - { offsetInCU: 0x2C310, offset: 0x47663, size: 0x8, addend: 0x0, symName: __ZNSt3__128__exception_guard_exceptionsINS_29_AllocatorDestroyRangeReverseINS_9allocatorINS_12basic_stringIcNS_11char_traitsIcEENS2_IcEEEEEENS_16reverse_iteratorIPS7_EEEEED2B8ue170006Ev, symObjAddr: 0x12330, symBinAddr: 0x1000168CC, symSize: 0x50 }
  - { offsetInCU: 0x2C338, offset: 0x4768B, size: 0x8, addend: 0x0, symName: __ZNKSt3__129_AllocatorDestroyRangeReverseINS_9allocatorINS_12basic_stringIcNS_11char_traitsIcEENS1_IcEEEEEENS_16reverse_iteratorIPS6_EEEclB8ue170006Ev, symObjAddr: 0x12380, symBinAddr: 0x10001691C, symSize: 0xB4 }
  - { offsetInCU: 0x2C35D, offset: 0x476B0, size: 0x8, addend: 0x0, symName: __ZNSt3__116reverse_iteratorINS0_IPNS_12basic_stringIcNS_11char_traitsIcEENS_9allocatorIcEEEEEEEC1B8ue170006ES8_, symObjAddr: 0x124A4, symBinAddr: 0x100016A40, symSize: 0x3C }
  - { offsetInCU: 0x2C393, offset: 0x476E6, size: 0x8, addend: 0x0, symName: __ZNSt3__116allocator_traitsINS_9allocatorINS_12basic_stringIcNS_11char_traitsIcEENS1_IcEEEEEEE7destroyB8ue170006IS6_vEEvRS7_PT_, symObjAddr: 0x12540, symBinAddr: 0x100016ADC, symSize: 0x2C }
  - { offsetInCU: 0x2C3D0, offset: 0x47723, size: 0x8, addend: 0x0, symName: __ZNSt3__116reverse_iteratorINS0_IPNS_12basic_stringIcNS_11char_traitsIcEENS_9allocatorIcEEEEEEEppB8ue170006Ev, symObjAddr: 0x12590, symBinAddr: 0x100016B2C, symSize: 0x30 }
  - { offsetInCU: 0x2C3F4, offset: 0x47747, size: 0x8, addend: 0x0, symName: __ZNKSt3__116reverse_iteratorINS0_IPNS_12basic_stringIcNS_11char_traitsIcEENS_9allocatorIcEEEEEEE4baseB8ue170006Ev, symObjAddr: 0x125C0, symBinAddr: 0x100016B5C, symSize: 0x24 }
  - { offsetInCU: 0x2C419, offset: 0x4776C, size: 0x8, addend: 0x0, symName: __ZNSt3__19allocatorINS_12basic_stringIcNS_11char_traitsIcEENS0_IcEEEEE7destroyB8ue170006EPS5_, symObjAddr: 0x125E4, symBinAddr: 0x100016B80, symSize: 0x28 }
  - { offsetInCU: 0x2C450, offset: 0x477A3, size: 0x8, addend: 0x0, symName: __ZNSt3__119__to_address_helperINS_16reverse_iteratorINS1_IPNS_12basic_stringIcNS_11char_traitsIcEENS_9allocatorIcEEEEEEEEvE6__callB8ue170006ERKSA_, symObjAddr: 0x1260C, symBinAddr: 0x100016BA8, symSize: 0x38 }
  - { offsetInCU: 0x2C472, offset: 0x477C5, size: 0x8, addend: 0x0, symName: __ZNKSt3__116reverse_iteratorINS0_IPNS_12basic_stringIcNS_11char_traitsIcEENS_9allocatorIcEEEEEEEptB8ue170006Ev, symObjAddr: 0x12644, symBinAddr: 0x100016BE0, symSize: 0x24 }
  - { offsetInCU: 0x2C496, offset: 0x477E9, size: 0x8, addend: 0x0, symName: __ZNKSt3__116reverse_iteratorINS0_IPNS_12basic_stringIcNS_11char_traitsIcEENS_9allocatorIcEEEEEEEdeB8ue170006Ev, symObjAddr: 0x12668, symBinAddr: 0x100016C04, symSize: 0x34 }
  - { offsetInCU: 0x2C4C8, offset: 0x4781B, size: 0x8, addend: 0x0, symName: __ZNSt3__116reverse_iteratorIPNS_12basic_stringIcNS_11char_traitsIcEENS_9allocatorIcEEEEEmmB8ue170006Ev, symObjAddr: 0x1269C, symBinAddr: 0x100016C38, symSize: 0x20 }
  - { offsetInCU: 0x2C4ED, offset: 0x47840, size: 0x8, addend: 0x0, symName: __ZNSt3__116reverse_iteratorINS0_IPNS_12basic_stringIcNS_11char_traitsIcEENS_9allocatorIcEEEEEEEC2B8ue170006ES8_, symObjAddr: 0x126BC, symBinAddr: 0x100016C58, symSize: 0x2C }
  - { offsetInCU: 0x2C524, offset: 0x47877, size: 0x8, addend: 0x0, symName: __ZNSt3__116reverse_iteratorIPNS_12basic_stringIcNS_11char_traitsIcEENS_9allocatorIcEEEEEC2B8ue170006ES7_, symObjAddr: 0x126E8, symBinAddr: 0x100016C84, symSize: 0x28 }
  - { offsetInCU: 0x2C55B, offset: 0x478AE, size: 0x8, addend: 0x0, symName: __ZNSt3__114__split_bufferINS_12basic_stringIcNS_11char_traitsIcEENS_9allocatorIcEEEERNS4_IS6_EEED2Ev, symObjAddr: 0x12710, symBinAddr: 0x100016CAC, symSize: 0x8C }
  - { offsetInCU: 0x2C585, offset: 0x478D8, size: 0x8, addend: 0x0, symName: __ZNSt3__114__split_bufferINS_12basic_stringIcNS_11char_traitsIcEENS_9allocatorIcEEEERNS4_IS6_EEE5clearB8ue170006Ev, symObjAddr: 0x1279C, symBinAddr: 0x100016D38, symSize: 0x28 }
  - { offsetInCU: 0x2C5A9, offset: 0x478FC, size: 0x8, addend: 0x0, symName: __ZNSt3__116allocator_traitsINS_9allocatorINS_12basic_stringIcNS_11char_traitsIcEENS1_IcEEEEEEE10deallocateB8ue170006ERS7_PS6_m, symObjAddr: 0x127C4, symBinAddr: 0x100016D60, symSize: 0x34 }
  - { offsetInCU: 0x2C5EA, offset: 0x4793D, size: 0x8, addend: 0x0, symName: __ZNKSt3__114__split_bufferINS_12basic_stringIcNS_11char_traitsIcEENS_9allocatorIcEEEERNS4_IS6_EEE8capacityB8ue170006Ev, symObjAddr: 0x127F8, symBinAddr: 0x100016D94, symSize: 0x40 }
  - { offsetInCU: 0x2C60E, offset: 0x47961, size: 0x8, addend: 0x0, symName: __ZNSt3__114__split_bufferINS_12basic_stringIcNS_11char_traitsIcEENS_9allocatorIcEEEERNS4_IS6_EEE17__destruct_at_endB8ue170006EPS6_, symObjAddr: 0x12838, symBinAddr: 0x100016DD4, symSize: 0x2C }
  - { offsetInCU: 0x2C640, offset: 0x47993, size: 0x8, addend: 0x0, symName: __ZNSt3__114__split_bufferINS_12basic_stringIcNS_11char_traitsIcEENS_9allocatorIcEEEERNS4_IS6_EEE17__destruct_at_endB8ue170006EPS6_NS_17integral_constantIbLb0EEE, symObjAddr: 0x12864, symBinAddr: 0x100016E00, symSize: 0x80 }
  - { offsetInCU: 0x2C680, offset: 0x479D3, size: 0x8, addend: 0x0, symName: __ZNSt3__19allocatorINS_12basic_stringIcNS_11char_traitsIcEENS0_IcEEEEE10deallocateB8ue170006EPS5_m, symObjAddr: 0x128E4, symBinAddr: 0x100016E80, symSize: 0x44 }
  - { offsetInCU: 0x2C6C0, offset: 0x47A13, size: 0x8, addend: 0x0, symName: __ZNKSt3__114__split_bufferINS_12basic_stringIcNS_11char_traitsIcEENS_9allocatorIcEEEERNS4_IS6_EEE9__end_capB8ue170006Ev, symObjAddr: 0x12928, symBinAddr: 0x100016EC4, symSize: 0x28 }
  - { offsetInCU: 0x2C6E4, offset: 0x47A37, size: 0x8, addend: 0x0, symName: __ZNKSt3__117__compressed_pairIPNS_12basic_stringIcNS_11char_traitsIcEENS_9allocatorIcEEEERNS4_IS6_EEE5firstB8ue170006Ev, symObjAddr: 0x12950, symBinAddr: 0x100016EEC, symSize: 0x24 }
  - { offsetInCU: 0x2C708, offset: 0x47A5B, size: 0x8, addend: 0x0, symName: __ZNSt3__119basic_istringstreamIcNS_11char_traitsIcEENS_9allocatorIcEEED2Ev, symObjAddr: 0x12974, symBinAddr: 0x100016F10, symSize: 0x64 }
  - { offsetInCU: 0x2C73F, offset: 0x47A92, size: 0x8, addend: 0x0, symName: __ZTv0_n24_NSt3__119basic_istringstreamIcNS_11char_traitsIcEENS_9allocatorIcEEED1Ev, symObjAddr: 0x129D8, symBinAddr: 0x100016F74, symSize: 0x28 }
  - { offsetInCU: 0x2C769, offset: 0x47ABC, size: 0x8, addend: 0x0, symName: __ZNKSt16initializer_listIiE5beginB8ue170006Ev, symObjAddr: 0x12A30, symBinAddr: 0x100016FCC, symSize: 0x18 }
  - { offsetInCU: 0x2C78E, offset: 0x47AE1, size: 0x8, addend: 0x0, symName: __ZNKSt16initializer_listIiE3endB8ue170006Ev, symObjAddr: 0x12A48, symBinAddr: 0x100016FE4, symSize: 0x20 }
  - { offsetInCU: 0x2C7B3, offset: 0x47B06, size: 0x8, addend: 0x0, symName: __ZN3RowC2Ev, symObjAddr: 0x12B04, symBinAddr: 0x1000170A0, symSize: 0xA0 }
  - { offsetInCU: 0x2C7DD, offset: 0x47B30, size: 0x8, addend: 0x0, symName: __ZNKSt3__112__hash_tableINS_17__hash_value_typeINS_12basic_stringIcNS_11char_traitsIcEENS_9allocatorIcEEEENS_4pairIccEEEENS_22__unordered_map_hasherIS7_SA_NS_4hashIS7_EENS_8equal_toIS7_EELb1EEENS_21__unordered_map_equalIS7_SA_SF_SD_Lb1EEENS5_ISA_EEE14__count_uniqueIS7_EEmRKT_, symObjAddr: 0x12BA4, symBinAddr: 0x100017140, symSize: 0x64 }
  - { offsetInCU: 0x2C81C, offset: 0x47B6F, size: 0x8, addend: 0x0, symName: __ZNKSt3__112__hash_tableINS_17__hash_value_typeINS_12basic_stringIcNS_11char_traitsIcEENS_9allocatorIcEEEENS_4pairIccEEEENS_22__unordered_map_hasherIS7_SA_NS_4hashIS7_EENS_8equal_toIS7_EELb1EEENS_21__unordered_map_equalIS7_SA_SF_SD_Lb1EEENS5_ISA_EEE4findIS7_EENS_21__hash_const_iteratorIPNS_11__hash_nodeISA_PvEEEERKT_, symObjAddr: 0x12C3C, symBinAddr: 0x1000171D8, symSize: 0x1B8 }
  - { offsetInCU: 0x2C8A6, offset: 0x47BF9, size: 0x8, addend: 0x0, symName: __ZNKSt3__112__hash_tableINS_17__hash_value_typeINS_12basic_stringIcNS_11char_traitsIcEENS_9allocatorIcEEEENS_4pairIccEEEENS_22__unordered_map_hasherIS7_SA_NS_4hashIS7_EENS_8equal_toIS7_EELb1EEENS_21__unordered_map_equalIS7_SA_SF_SD_Lb1EEENS5_ISA_EEE3endEv, symObjAddr: 0x12DF4, symBinAddr: 0x100017390, symSize: 0x2C }
  - { offsetInCU: 0x2C8CD, offset: 0x47C20, size: 0x8, addend: 0x0, symName: __ZNKSt3__112__hash_tableINS_17__hash_value_typeINS_12basic_stringIcNS_11char_traitsIcEENS_9allocatorIcEEEENS_4pairIccEEEENS_22__unordered_map_hasherIS7_SA_NS_4hashIS7_EENS_8equal_toIS7_EELb1EEENS_21__unordered_map_equalIS7_SA_SF_SD_Lb1EEENS5_ISA_EEE13hash_functionB8ue170006Ev, symObjAddr: 0x12E50, symBinAddr: 0x1000173EC, symSize: 0x28 }
  - { offsetInCU: 0x2C8F1, offset: 0x47C44, size: 0x8, addend: 0x0, symName: __ZNKSt3__112__hash_tableINS_17__hash_value_typeINS_12basic_stringIcNS_11char_traitsIcEENS_9allocatorIcEEEENS_4pairIccEEEENS_22__unordered_map_hasherIS7_SA_NS_4hashIS7_EENS_8equal_toIS7_EELb1EEENS_21__unordered_map_equalIS7_SA_SF_SD_Lb1EEENS5_ISA_EEE6key_eqB8ue170006Ev, symObjAddr: 0x12E78, symBinAddr: 0x100017414, symSize: 0x28 }
  - { offsetInCU: 0x2C915, offset: 0x47C68, size: 0x8, addend: 0x0, symName: __ZNSt3__121__hash_const_iteratorIPNS_11__hash_nodeINS_17__hash_value_typeINS_12basic_stringIcNS_11char_traitsIcEENS_9allocatorIcEEEENS_4pairIccEEEEPvEEEC1B8ue170006EPNS_16__hash_node_baseISE_EE, symObjAddr: 0x12EA0, symBinAddr: 0x10001743C, symSize: 0x34 }
  - { offsetInCU: 0x2C94C, offset: 0x47C9F, size: 0x8, addend: 0x0, symName: __ZNKSt3__117__compressed_pairImNS_22__unordered_map_hasherINS_12basic_stringIcNS_11char_traitsIcEENS_9allocatorIcEEEENS_17__hash_value_typeIS7_NS_4pairIccEEEENS_4hashIS7_EENS_8equal_toIS7_EELb1EEEE6secondB8ue170006Ev, symObjAddr: 0x12ED4, symBinAddr: 0x100017470, symSize: 0x24 }
  - { offsetInCU: 0x2C970, offset: 0x47CC3, size: 0x8, addend: 0x0, symName: __ZNKSt3__122__compressed_pair_elemINS_22__unordered_map_hasherINS_12basic_stringIcNS_11char_traitsIcEENS_9allocatorIcEEEENS_17__hash_value_typeIS7_NS_4pairIccEEEENS_4hashIS7_EENS_8equal_toIS7_EELb1EEELi1ELb1EE5__getB8ue170006Ev, symObjAddr: 0x12EF8, symBinAddr: 0x100017494, symSize: 0x14 }
  - { offsetInCU: 0x2C995, offset: 0x47CE8, size: 0x8, addend: 0x0, symName: __ZNKSt3__117__compressed_pairIfNS_21__unordered_map_equalINS_12basic_stringIcNS_11char_traitsIcEENS_9allocatorIcEEEENS_17__hash_value_typeIS7_NS_4pairIccEEEENS_8equal_toIS7_EENS_4hashIS7_EELb1EEEE6secondB8ue170006Ev, symObjAddr: 0x12F0C, symBinAddr: 0x1000174A8, symSize: 0x24 }
  - { offsetInCU: 0x2C9B9, offset: 0x47D0C, size: 0x8, addend: 0x0, symName: __ZNKSt3__122__compressed_pair_elemINS_21__unordered_map_equalINS_12basic_stringIcNS_11char_traitsIcEENS_9allocatorIcEEEENS_17__hash_value_typeIS7_NS_4pairIccEEEENS_8equal_toIS7_EENS_4hashIS7_EELb1EEELi1ELb1EE5__getB8ue170006Ev, symObjAddr: 0x12F30, symBinAddr: 0x1000174CC, symSize: 0x14 }
  - { offsetInCU: 0x2C9DE, offset: 0x47D31, size: 0x8, addend: 0x0, symName: __ZNSt3__121__hash_const_iteratorIPNS_11__hash_nodeINS_17__hash_value_typeINS_12basic_stringIcNS_11char_traitsIcEENS_9allocatorIcEEEENS_4pairIccEEEEPvEEEC2B8ue170006EPNS_16__hash_node_baseISE_EE, symObjAddr: 0x12F44, symBinAddr: 0x1000174E0, symSize: 0x20 }
  - { offsetInCU: 0x2CA16, offset: 0x47D69, size: 0x8, addend: 0x0, symName: __ZNKSt3__112basic_stringIcNS_11char_traitsIcEENS_9allocatorIcEEEixB8ue170006Em, symObjAddr: 0x12F64, symBinAddr: 0x100017500, symSize: 0x30 }
  - { offsetInCU: 0x2CA49, offset: 0x47D9C, size: 0x8, addend: 0x0, symName: __ZL19is_strand_ambiguouscc, symObjAddr: 0x12F94, symBinAddr: 0x100017530, symSize: 0x14C }
  - { offsetInCU: 0x2CA84, offset: 0x47DD7, size: 0x8, addend: 0x0, symName: __ZNSt3__112__hash_tableINS_17__hash_value_typeINS_12basic_stringIcNS_11char_traitsIcEENS_9allocatorIcEEEENS_4pairIccEEEENS_22__unordered_map_hasherIS7_SA_NS_4hashIS7_EENS_8equal_toIS7_EELb1EEENS_21__unordered_map_equalIS7_SA_SF_SD_Lb1EEENS5_ISA_EEE4findIS7_EENS_15__hash_iteratorIPNS_11__hash_nodeISA_PvEEEERKT_, symObjAddr: 0x130E0, symBinAddr: 0x10001767C, symSize: 0x1B0 }
  - { offsetInCU: 0x2CB0E, offset: 0x47E61, size: 0x8, addend: 0x0, symName: __ZNSt3__112__hash_tableINS_17__hash_value_typeINS_12basic_stringIcNS_11char_traitsIcEENS_9allocatorIcEEEENS_4pairIccEEEENS_22__unordered_map_hasherIS7_SA_NS_4hashIS7_EENS_8equal_toIS7_EELb1EEENS_21__unordered_map_equalIS7_SA_SF_SD_Lb1EEENS5_ISA_EEE3endEv, symObjAddr: 0x13290, symBinAddr: 0x10001782C, symSize: 0x2C }
  - { offsetInCU: 0x2CB35, offset: 0x47E88, size: 0x8, addend: 0x0, symName: __ZNSt3__114pointer_traitsIPNS_4pairIKNS_12basic_stringIcNS_11char_traitsIcEENS_9allocatorIcEEEENS1_IccEEEEE10pointer_toB8ue170006ERSA_, symObjAddr: 0x13320, symBinAddr: 0x1000178BC, symSize: 0x14 }
  - { offsetInCU: 0x2CB58, offset: 0x47EAB, size: 0x8, addend: 0x0, symName: __ZNKSt3__115__hash_iteratorIPNS_11__hash_nodeINS_17__hash_value_typeINS_12basic_stringIcNS_11char_traitsIcEENS_9allocatorIcEEEENS_4pairIccEEEEPvEEEptB8ue170006Ev, symObjAddr: 0x13334, symBinAddr: 0x1000178D0, symSize: 0x30 }
  - { offsetInCU: 0x2CB7C, offset: 0x47ECF, size: 0x8, addend: 0x0, symName: __ZNSt3__114pointer_traitsIPNS_17__hash_value_typeINS_12basic_stringIcNS_11char_traitsIcEENS_9allocatorIcEEEENS_4pairIccEEEEE10pointer_toB8ue170006ERSA_, symObjAddr: 0x13364, symBinAddr: 0x100017900, symSize: 0x14 }
  - { offsetInCU: 0x2CB9F, offset: 0x47EF2, size: 0x8, addend: 0x0, symName: __ZL9comp_basec, symObjAddr: 0x13378, symBinAddr: 0x100017914, symSize: 0x94 }
  - { offsetInCU: 0x2CBCC, offset: 0x47F1F, size: 0x8, addend: 0x0, symName: __ZNKSt3__16__lessIvvEclB8ue170006IddEEbRKT_RKT0_, symObjAddr: 0x134DC, symBinAddr: 0x100017A78, symSize: 0x34 }
  - { offsetInCU: 0x2CC1F, offset: 0x47F72, size: 0x8, addend: 0x0, symName: __ZNSt3__16vectorI3RowNS_9allocatorIS1_EEE22__construct_one_at_endB8ue170006IJS1_EEEvDpOT_, symObjAddr: 0x13510, symBinAddr: 0x100017AAC, symSize: 0x90 }
  - { offsetInCU: 0x2CC6E, offset: 0x47FC1, size: 0x8, addend: 0x0, symName: __ZNSt3__16vectorI3RowNS_9allocatorIS1_EEE21__push_back_slow_pathIS1_EEvOT_, symObjAddr: 0x135A0, symBinAddr: 0x100017B3C, symSize: 0xD8 }
  - { offsetInCU: 0x2CCE4, offset: 0x48037, size: 0x8, addend: 0x0, symName: __ZNSt3__16vectorI3RowNS_9allocatorIS1_EEE21_ConstructTransactionC1B8ue170006ERS4_m, symObjAddr: 0x13678, symBinAddr: 0x100017C14, symSize: 0x3C }
  - { offsetInCU: 0x2CD2A, offset: 0x4807D, size: 0x8, addend: 0x0, symName: __ZNSt3__16vectorI3RowNS_9allocatorIS1_EEE21_ConstructTransactionD1B8ue170006Ev, symObjAddr: 0x136B4, symBinAddr: 0x100017C50, symSize: 0x2C }
  - { offsetInCU: 0x2CD52, offset: 0x480A5, size: 0x8, addend: 0x0, symName: __ZNSt3__16vectorI3RowNS_9allocatorIS1_EEE21_ConstructTransactionC2B8ue170006ERS4_m, symObjAddr: 0x136E0, symBinAddr: 0x100017C7C, symSize: 0x4C }
  - { offsetInCU: 0x2CD99, offset: 0x480EC, size: 0x8, addend: 0x0, symName: __ZNSt3__16vectorI3RowNS_9allocatorIS1_EEE21_ConstructTransactionD2B8ue170006Ev, symObjAddr: 0x1372C, symBinAddr: 0x100017CC8, symSize: 0x20 }
  - { offsetInCU: 0x2CDC2, offset: 0x48115, size: 0x8, addend: 0x0, symName: __ZNKSt3__16vectorI3RowNS_9allocatorIS1_EEE11__recommendB8ue170006Em, symObjAddr: 0x1374C, symBinAddr: 0x100017CE8, symSize: 0xB4 }
  - { offsetInCU: 0x2CE16, offset: 0x48169, size: 0x8, addend: 0x0, symName: __ZN3RowD2Ev, symObjAddr: 0x13800, symBinAddr: 0x100017D9C, symSize: 0x44 }
  - { offsetInCU: 0x2CE40, offset: 0x48193, size: 0x8, addend: 0x0, symName: __ZNSt3__16vectorINS_12basic_stringIcNS_11char_traitsIcEENS_9allocatorIcEEEENS4_IS6_EEED2B8ue170006Ev, symObjAddr: 0x13844, symBinAddr: 0x100017DE0, symSize: 0x44 }
  - { offsetInCU: 0x2CE68, offset: 0x481BB, size: 0x8, addend: 0x0, symName: __ZNSt3__16vectorINS_12basic_stringIcNS_11char_traitsIcEENS_9allocatorIcEEEENS4_IS6_EEE16__destroy_vectorC1B8ue170006ERS8_, symObjAddr: 0x13888, symBinAddr: 0x100017E24, symSize: 0x34 }
  - { offsetInCU: 0x2CE9F, offset: 0x481F2, size: 0x8, addend: 0x0, symName: __ZNSt3__16vectorINS_12basic_stringIcNS_11char_traitsIcEENS_9allocatorIcEEEENS4_IS6_EEE16__destroy_vectorclB8ue170006Ev, symObjAddr: 0x138BC, symBinAddr: 0x100017E58, symSize: 0x90 }
  - { offsetInCU: 0x2CEC3, offset: 0x48216, size: 0x8, addend: 0x0, symName: __ZNSt3__16vectorINS_12basic_stringIcNS_11char_traitsIcEENS_9allocatorIcEEEENS4_IS6_EEE16__destroy_vectorC2B8ue170006ERS8_, symObjAddr: 0x1394C, symBinAddr: 0x100017EE8, symSize: 0x20 }
  - { offsetInCU: 0x2CEFB, offset: 0x4824E, size: 0x8, addend: 0x0, symName: __ZNSt3__16vectorINS_12basic_stringIcNS_11char_traitsIcEENS_9allocatorIcEEEENS4_IS6_EEE7__clearB8ue170006Ev, symObjAddr: 0x1396C, symBinAddr: 0x100017F08, symSize: 0x28 }
  - { offsetInCU: 0x2CF1F, offset: 0x48272, size: 0x8, addend: 0x0, symName: __ZNSt3__16vectorINS_12basic_stringIcNS_11char_traitsIcEENS_9allocatorIcEEEENS4_IS6_EEE22__base_destruct_at_endB8ue170006EPS6_, symObjAddr: 0x13994, symBinAddr: 0x100017F30, symSize: 0x8C }
  - { offsetInCU: 0x2CF61, offset: 0x482B4, size: 0x8, addend: 0x0, symName: __ZNSt3__113unordered_setINS_12basic_stringIcNS_11char_traitsIcEENS_9allocatorIcEEEENS_4hashIS6_EENS_8equal_toIS6_EENS4_IS6_EEEC2B8ue170006Ev, symObjAddr: 0x13A20, symBinAddr: 0x100017FBC, symSize: 0x2C }
  - { offsetInCU: 0x2CF89, offset: 0x482DC, size: 0x8, addend: 0x0, symName: __ZNSt3__112__hash_tableINS_12basic_stringIcNS_11char_traitsIcEENS_9allocatorIcEEEENS_4hashIS6_EENS_8equal_toIS6_EENS4_IS6_EEEC1Ev, symObjAddr: 0x13A4C, symBinAddr: 0x100017FE8, symSize: 0x2C }
  - { offsetInCU: 0x2CFB3, offset: 0x48306, size: 0x8, addend: 0x0, symName: __ZNSt3__112__hash_tableINS_12basic_stringIcNS_11char_traitsIcEENS_9allocatorIcEEEENS_4hashIS6_EENS_8equal_toIS6_EENS4_IS6_EEEC2Ev, symObjAddr: 0x13A78, symBinAddr: 0x100018014, symSize: 0x7C }
  - { offsetInCU: 0x2CFDD, offset: 0x48330, size: 0x8, addend: 0x0, symName: __ZNSt3__110unique_ptrIA_PNS_16__hash_node_baseIPNS_11__hash_nodeINS_12basic_stringIcNS_11char_traitsIcEENS_9allocatorIcEEEEPvEEEENS_25__bucket_list_deallocatorINS6_ISD_EEEEEC1B8ue170006ILb1EvEEv, symObjAddr: 0x13AF4, symBinAddr: 0x100018090, symSize: 0x2C }
  - { offsetInCU: 0x2D011, offset: 0x48364, size: 0x8, addend: 0x0, symName: __ZNSt3__117__compressed_pairINS_16__hash_node_baseIPNS_11__hash_nodeINS_12basic_stringIcNS_11char_traitsIcEENS_9allocatorIcEEEEPvEEEENS6_ISA_EEEC1B8ue170006ILb1EvEEv, symObjAddr: 0x13B20, symBinAddr: 0x1000180BC, symSize: 0x2C }
  - { offsetInCU: 0x2D045, offset: 0x48398, size: 0x8, addend: 0x0, symName: __ZNSt3__117__compressed_pairImNS_4hashINS_12basic_stringIcNS_11char_traitsIcEENS_9allocatorIcEEEEEEEC1B8ue170006IiNS_18__default_init_tagEEEOT_OT0_, symObjAddr: 0x13B4C, symBinAddr: 0x1000180E8, symSize: 0x3C }
  - { offsetInCU: 0x2D09B, offset: 0x483EE, size: 0x8, addend: 0x0, symName: __ZNSt3__117__compressed_pairIfNS_8equal_toINS_12basic_stringIcNS_11char_traitsIcEENS_9allocatorIcEEEEEEEC1B8ue170006IfNS_18__default_init_tagEEEOT_OT0_, symObjAddr: 0x13B88, symBinAddr: 0x100018124, symSize: 0x3C }
  - { offsetInCU: 0x2D0F1, offset: 0x48444, size: 0x8, addend: 0x0, symName: __ZNSt3__110unique_ptrIA_PNS_16__hash_node_baseIPNS_11__hash_nodeINS_12basic_stringIcNS_11char_traitsIcEENS_9allocatorIcEEEEPvEEEENS_25__bucket_list_deallocatorINS6_ISD_EEEEEC2B8ue170006ILb1EvEEv, symObjAddr: 0x13BC4, symBinAddr: 0x100018160, symSize: 0x3C }
  - { offsetInCU: 0x2D125, offset: 0x48478, size: 0x8, addend: 0x0, symName: __ZNSt3__117__compressed_pairIPPNS_16__hash_node_baseIPNS_11__hash_nodeINS_12basic_stringIcNS_11char_traitsIcEENS_9allocatorIcEEEEPvEEEENS_25__bucket_list_deallocatorINS6_ISD_EEEEEC1B8ue170006INS_16__value_init_tagESK_EEOT_OT0_, symObjAddr: 0x13C00, symBinAddr: 0x10001819C, symSize: 0x3C }
  - { offsetInCU: 0x2D17B, offset: 0x484CE, size: 0x8, addend: 0x0, symName: __ZNSt3__117__compressed_pairIPPNS_16__hash_node_baseIPNS_11__hash_nodeINS_12basic_stringIcNS_11char_traitsIcEENS_9allocatorIcEEEEPvEEEENS_25__bucket_list_deallocatorINS6_ISD_EEEEEC2B8ue170006INS_16__value_init_tagESK_EEOT_OT0_, symObjAddr: 0x13C3C, symBinAddr: 0x1000181D8, symSize: 0x40 }
  - { offsetInCU: 0x2D1D1, offset: 0x48524, size: 0x8, addend: 0x0, symName: __ZNSt3__122__compressed_pair_elemIPPNS_16__hash_node_baseIPNS_11__hash_nodeINS_12basic_stringIcNS_11char_traitsIcEENS_9allocatorIcEEEEPvEEEELi0ELb0EEC2B8ue170006ENS_16__value_init_tagE, symObjAddr: 0x13C7C, symBinAddr: 0x100018218, symSize: 0x18 }
  - { offsetInCU: 0x2D205, offset: 0x48558, size: 0x8, addend: 0x0, symName: __ZNSt3__122__compressed_pair_elemINS_25__bucket_list_deallocatorINS_9allocatorIPNS_16__hash_node_baseIPNS_11__hash_nodeINS_12basic_stringIcNS_11char_traitsIcEENS2_IcEEEEPvEEEEEEEELi1ELb0EEC2B8ue170006ENS_16__value_init_tagE, symObjAddr: 0x13C94, symBinAddr: 0x100018230, symSize: 0x2C }
  - { offsetInCU: 0x2D238, offset: 0x4858B, size: 0x8, addend: 0x0, symName: __ZNSt3__125__bucket_list_deallocatorINS_9allocatorIPNS_16__hash_node_baseIPNS_11__hash_nodeINS_12basic_stringIcNS_11char_traitsIcEENS1_IcEEEEPvEEEEEEEC1B8ue170006Ev, symObjAddr: 0x13CC0, symBinAddr: 0x10001825C, symSize: 0x2C }
  - { offsetInCU: 0x2D260, offset: 0x485B3, size: 0x8, addend: 0x0, symName: __ZNSt3__125__bucket_list_deallocatorINS_9allocatorIPNS_16__hash_node_baseIPNS_11__hash_nodeINS_12basic_stringIcNS_11char_traitsIcEENS1_IcEEEEPvEEEEEEEC2B8ue170006Ev, symObjAddr: 0x13CEC, symBinAddr: 0x100018288, symSize: 0x40 }
  - { offsetInCU: 0x2D288, offset: 0x485DB, size: 0x8, addend: 0x0, symName: __ZNSt3__117__compressed_pairImNS_9allocatorIPNS_16__hash_node_baseIPNS_11__hash_nodeINS_12basic_stringIcNS_11char_traitsIcEENS1_IcEEEEPvEEEEEEEC1B8ue170006IiNS_18__default_init_tagEEEOT_OT0_, symObjAddr: 0x13D2C, symBinAddr: 0x1000182C8, symSize: 0x3C }
  - { offsetInCU: 0x2D2DE, offset: 0x48631, size: 0x8, addend: 0x0, symName: __ZNSt3__117__compressed_pairImNS_9allocatorIPNS_16__hash_node_baseIPNS_11__hash_nodeINS_12basic_stringIcNS_11char_traitsIcEENS1_IcEEEEPvEEEEEEEC2B8ue170006IiNS_18__default_init_tagEEEOT_OT0_, symObjAddr: 0x13D68, symBinAddr: 0x100018304, symSize: 0x40 }
  - { offsetInCU: 0x2D334, offset: 0x48687, size: 0x8, addend: 0x0, symName: __ZNSt3__122__compressed_pair_elemINS_9allocatorIPNS_16__hash_node_baseIPNS_11__hash_nodeINS_12basic_stringIcNS_11char_traitsIcEENS1_IcEEEEPvEEEEEELi1ELb1EEC2B8ue170006ENS_18__default_init_tagE, symObjAddr: 0x13DA8, symBinAddr: 0x100018344, symSize: 0x2C }
  - { offsetInCU: 0x2D367, offset: 0x486BA, size: 0x8, addend: 0x0, symName: __ZNSt3__19allocatorIPNS_16__hash_node_baseIPNS_11__hash_nodeINS_12basic_stringIcNS_11char_traitsIcEENS0_IcEEEEPvEEEEEC2B8ue170006Ev, symObjAddr: 0x13DD4, symBinAddr: 0x100018370, symSize: 0x2C }
  - { offsetInCU: 0x2D38F, offset: 0x486E2, size: 0x8, addend: 0x0, symName: __ZNSt3__116__non_trivial_ifILb1ENS_9allocatorIPNS_16__hash_node_baseIPNS_11__hash_nodeINS_12basic_stringIcNS_11char_traitsIcEENS1_IcEEEEPvEEEEEEEC2B8ue170006Ev, symObjAddr: 0x13E00, symBinAddr: 0x10001839C, symSize: 0x14 }
  - { offsetInCU: 0x2D3B8, offset: 0x4870B, size: 0x8, addend: 0x0, symName: __ZNSt3__117__compressed_pairINS_16__hash_node_baseIPNS_11__hash_nodeINS_12basic_stringIcNS_11char_traitsIcEENS_9allocatorIcEEEEPvEEEENS6_ISA_EEEC2B8ue170006ILb1EvEEv, symObjAddr: 0x13E14, symBinAddr: 0x1000183B0, symSize: 0x34 }
  - { offsetInCU: 0x2D3EC, offset: 0x4873F, size: 0x8, addend: 0x0, symName: __ZNSt3__122__compressed_pair_elemINS_16__hash_node_baseIPNS_11__hash_nodeINS_12basic_stringIcNS_11char_traitsIcEENS_9allocatorIcEEEEPvEEEELi0ELb0EEC2B8ue170006ENS_16__value_init_tagE, symObjAddr: 0x13E48, symBinAddr: 0x1000183E4, symSize: 0x2C }
  - { offsetInCU: 0x2D41F, offset: 0x48772, size: 0x8, addend: 0x0, symName: __ZNSt3__122__compressed_pair_elemINS_9allocatorINS_11__hash_nodeINS_12basic_stringIcNS_11char_traitsIcEENS1_IcEEEEPvEEEELi1ELb1EEC2B8ue170006ENS_16__value_init_tagE, symObjAddr: 0x13E74, symBinAddr: 0x100018410, symSize: 0x2C }
  - { offsetInCU: 0x2D452, offset: 0x487A5, size: 0x8, addend: 0x0, symName: __ZNSt3__116__hash_node_baseIPNS_11__hash_nodeINS_12basic_stringIcNS_11char_traitsIcEENS_9allocatorIcEEEEPvEEEC1B8ue170006Ev, symObjAddr: 0x13EA0, symBinAddr: 0x10001843C, symSize: 0x2C }
  - { offsetInCU: 0x2D47A, offset: 0x487CD, size: 0x8, addend: 0x0, symName: __ZNSt3__116__hash_node_baseIPNS_11__hash_nodeINS_12basic_stringIcNS_11char_traitsIcEENS_9allocatorIcEEEEPvEEEC2B8ue170006Ev, symObjAddr: 0x13ECC, symBinAddr: 0x100018468, symSize: 0x18 }
  - { offsetInCU: 0x2D4A3, offset: 0x487F6, size: 0x8, addend: 0x0, symName: __ZNSt3__19allocatorINS_11__hash_nodeINS_12basic_stringIcNS_11char_traitsIcEENS0_IcEEEEPvEEEC2B8ue170006Ev, symObjAddr: 0x13EE4, symBinAddr: 0x100018480, symSize: 0x2C }
  - { offsetInCU: 0x2D4CB, offset: 0x4881E, size: 0x8, addend: 0x0, symName: __ZNSt3__116__non_trivial_ifILb1ENS_9allocatorINS_11__hash_nodeINS_12basic_stringIcNS_11char_traitsIcEENS1_IcEEEEPvEEEEEC2B8ue170006Ev, symObjAddr: 0x13F10, symBinAddr: 0x1000184AC, symSize: 0x14 }
  - { offsetInCU: 0x2D4F4, offset: 0x48847, size: 0x8, addend: 0x0, symName: __ZNSt3__117__compressed_pairImNS_4hashINS_12basic_stringIcNS_11char_traitsIcEENS_9allocatorIcEEEEEEEC2B8ue170006IiNS_18__default_init_tagEEEOT_OT0_, symObjAddr: 0x13F24, symBinAddr: 0x1000184C0, symSize: 0x40 }
  - { offsetInCU: 0x2D54A, offset: 0x4889D, size: 0x8, addend: 0x0, symName: __ZNSt3__122__compressed_pair_elemINS_4hashINS_12basic_stringIcNS_11char_traitsIcEENS_9allocatorIcEEEEEELi1ELb1EEC2B8ue170006ENS_18__default_init_tagE, symObjAddr: 0x13F64, symBinAddr: 0x100018500, symSize: 0x14 }
  - { offsetInCU: 0x2D57E, offset: 0x488D1, size: 0x8, addend: 0x0, symName: __ZNSt3__117__compressed_pairIfNS_8equal_toINS_12basic_stringIcNS_11char_traitsIcEENS_9allocatorIcEEEEEEEC2B8ue170006IfNS_18__default_init_tagEEEOT_OT0_, symObjAddr: 0x13F78, symBinAddr: 0x100018514, symSize: 0x40 }
  - { offsetInCU: 0x2D5D4, offset: 0x48927, size: 0x8, addend: 0x0, symName: __ZNSt3__122__compressed_pair_elemINS_8equal_toINS_12basic_stringIcNS_11char_traitsIcEENS_9allocatorIcEEEEEELi1ELb1EEC2B8ue170006ENS_18__default_init_tagE, symObjAddr: 0x13FB8, symBinAddr: 0x100018554, symSize: 0x14 }
  - { offsetInCU: 0x2D608, offset: 0x4895B, size: 0x8, addend: 0x0, symName: __ZNSt3__112__hash_tableINS_12basic_stringIcNS_11char_traitsIcEENS_9allocatorIcEEEENS_4hashIS6_EENS_8equal_toIS6_EENS4_IS6_EEE16__reserve_uniqueB8ue170006Em, symObjAddr: 0x13FCC, symBinAddr: 0x100018568, symSize: 0x58 }
  - { offsetInCU: 0x2D63B, offset: 0x4898E, size: 0x8, addend: 0x0, symName: __ZNSt3__112__hash_tableINS_12basic_stringIcNS_11char_traitsIcEENS_9allocatorIcEEEENS_4hashIS6_EENS_8equal_toIS6_EENS4_IS6_EEE15__rehash_uniqueB8ue170006Em, symObjAddr: 0x14024, symBinAddr: 0x1000185C0, symSize: 0x2C }
  - { offsetInCU: 0x2D66E, offset: 0x489C1, size: 0x8, addend: 0x0, symName: __ZNSt3__112__hash_tableINS_12basic_stringIcNS_11char_traitsIcEENS_9allocatorIcEEEENS_4hashIS6_EENS_8equal_toIS6_EENS4_IS6_EEE15max_load_factorB8ue170006Ev, symObjAddr: 0x14050, symBinAddr: 0x1000185EC, symSize: 0x28 }
  - { offsetInCU: 0x2D692, offset: 0x489E5, size: 0x8, addend: 0x0, symName: __ZNSt3__112__hash_tableINS_12basic_stringIcNS_11char_traitsIcEENS_9allocatorIcEEEENS_4hashIS6_EENS_8equal_toIS6_EENS4_IS6_EEE8__rehashILb1EEEvm, symObjAddr: 0x14078, symBinAddr: 0x100018614, symSize: 0x1A8 }
  - { offsetInCU: 0x2D6E1, offset: 0x48A34, size: 0x8, addend: 0x0, symName: __ZNKSt3__112__hash_tableINS_12basic_stringIcNS_11char_traitsIcEENS_9allocatorIcEEEENS_4hashIS6_EENS_8equal_toIS6_EENS4_IS6_EEE12bucket_countB8ue170006Ev, symObjAddr: 0x14220, symBinAddr: 0x1000187BC, symSize: 0x28 }
  - { offsetInCU: 0x2D705, offset: 0x48A58, size: 0x8, addend: 0x0, symName: __ZNSt3__112__hash_tableINS_12basic_stringIcNS_11char_traitsIcEENS_9allocatorIcEEEENS_4hashIS6_EENS_8equal_toIS6_EENS4_IS6_EEE11__do_rehashILb1EEEvm, symObjAddr: 0x14248, symBinAddr: 0x1000187E4, symSize: 0x288 }
  - { offsetInCU: 0x2D7EB, offset: 0x48B3E, size: 0x8, addend: 0x0, symName: __ZNSt3__112__hash_tableINS_12basic_stringIcNS_11char_traitsIcEENS_9allocatorIcEEEENS_4hashIS6_EENS_8equal_toIS6_EENS4_IS6_EEE4sizeB8ue170006Ev, symObjAddr: 0x144D0, symBinAddr: 0x100018A6C, symSize: 0x28 }
  - { offsetInCU: 0x2D80F, offset: 0x48B62, size: 0x8, addend: 0x0, symName: __ZNKSt3__110unique_ptrIA_PNS_16__hash_node_baseIPNS_11__hash_nodeINS_12basic_stringIcNS_11char_traitsIcEENS_9allocatorIcEEEEPvEEEENS_25__bucket_list_deallocatorINS6_ISD_EEEEE11get_deleterB8ue170006Ev, symObjAddr: 0x144F8, symBinAddr: 0x100018A94, symSize: 0x24 }
  - { offsetInCU: 0x2D833, offset: 0x48B86, size: 0x8, addend: 0x0, symName: __ZNKSt3__125__bucket_list_deallocatorINS_9allocatorIPNS_16__hash_node_baseIPNS_11__hash_nodeINS_12basic_stringIcNS_11char_traitsIcEENS1_IcEEEEPvEEEEEEE4sizeB8ue170006Ev, symObjAddr: 0x1451C, symBinAddr: 0x100018AB8, symSize: 0x28 }
  - { offsetInCU: 0x2D857, offset: 0x48BAA, size: 0x8, addend: 0x0, symName: __ZNKSt3__117__compressed_pairIPPNS_16__hash_node_baseIPNS_11__hash_nodeINS_12basic_stringIcNS_11char_traitsIcEENS_9allocatorIcEEEEPvEEEENS_25__bucket_list_deallocatorINS6_ISD_EEEEE6secondB8ue170006Ev, symObjAddr: 0x14544, symBinAddr: 0x100018AE0, symSize: 0x28 }
  - { offsetInCU: 0x2D87B, offset: 0x48BCE, size: 0x8, addend: 0x0, symName: __ZNKSt3__122__compressed_pair_elemINS_25__bucket_list_deallocatorINS_9allocatorIPNS_16__hash_node_baseIPNS_11__hash_nodeINS_12basic_stringIcNS_11char_traitsIcEENS2_IcEEEEPvEEEEEEEELi1ELb0EE5__getB8ue170006Ev, symObjAddr: 0x1456C, symBinAddr: 0x100018B08, symSize: 0x14 }
  - { offsetInCU: 0x2D8A0, offset: 0x48BF3, size: 0x8, addend: 0x0, symName: __ZNKSt3__117__compressed_pairImNS_9allocatorIPNS_16__hash_node_baseIPNS_11__hash_nodeINS_12basic_stringIcNS_11char_traitsIcEENS1_IcEEEEPvEEEEEEE5firstB8ue170006Ev, symObjAddr: 0x14580, symBinAddr: 0x100018B1C, symSize: 0x24 }
  - { offsetInCU: 0x2D8C4, offset: 0x48C17, size: 0x8, addend: 0x0, symName: __ZNSt3__110unique_ptrIA_PNS_16__hash_node_baseIPNS_11__hash_nodeINS_12basic_stringIcNS_11char_traitsIcEENS_9allocatorIcEEEEPvEEEENS_25__bucket_list_deallocatorINS6_ISD_EEEEE11get_deleterB8ue170006Ev, symObjAddr: 0x145A4, symBinAddr: 0x100018B40, symSize: 0x24 }
  - { offsetInCU: 0x2D8E8, offset: 0x48C3B, size: 0x8, addend: 0x0, symName: __ZNSt3__125__bucket_list_deallocatorINS_9allocatorIPNS_16__hash_node_baseIPNS_11__hash_nodeINS_12basic_stringIcNS_11char_traitsIcEENS1_IcEEEEPvEEEEEEE7__allocB8ue170006Ev, symObjAddr: 0x145C8, symBinAddr: 0x100018B64, symSize: 0x24 }
  - { offsetInCU: 0x2D90C, offset: 0x48C5F, size: 0x8, addend: 0x0, symName: __ZNSt3__110unique_ptrIA_PNS_16__hash_node_baseIPNS_11__hash_nodeINS_12basic_stringIcNS_11char_traitsIcEENS_9allocatorIcEEEEPvEEEENS_25__bucket_list_deallocatorINS6_ISD_EEEEE5resetB8ue170006IPSD_EENS_9enable_ifIXsr28_CheckArrayPointerConversionIT_EE5valueEvE4typeESM_, symObjAddr: 0x145EC, symBinAddr: 0x100018B88, symSize: 0x78 }
  - { offsetInCU: 0x2D957, offset: 0x48CAA, size: 0x8, addend: 0x0, symName: __ZNSt3__116allocator_traitsINS_9allocatorIPNS_16__hash_node_baseIPNS_11__hash_nodeINS_12basic_stringIcNS_11char_traitsIcEENS1_IcEEEEPvEEEEEEE8allocateB8ue170006ERSE_m, symObjAddr: 0x14664, symBinAddr: 0x100018C00, symSize: 0x2C }
  - { offsetInCU: 0x2D989, offset: 0x48CDC, size: 0x8, addend: 0x0, symName: __ZNSt3__125__bucket_list_deallocatorINS_9allocatorIPNS_16__hash_node_baseIPNS_11__hash_nodeINS_12basic_stringIcNS_11char_traitsIcEENS1_IcEEEEPvEEEEEEE4sizeB8ue170006Ev, symObjAddr: 0x14690, symBinAddr: 0x100018C2C, symSize: 0x24 }
  - { offsetInCU: 0x2D9AD, offset: 0x48D00, size: 0x8, addend: 0x0, symName: __ZNKSt3__110unique_ptrIA_PNS_16__hash_node_baseIPNS_11__hash_nodeINS_12basic_stringIcNS_11char_traitsIcEENS_9allocatorIcEEEEPvEEEENS_25__bucket_list_deallocatorINS6_ISD_EEEEEixB8ue170006Em, symObjAddr: 0x146B4, symBinAddr: 0x100018C50, symSize: 0x34 }
  - { offsetInCU: 0x2D9E0, offset: 0x48D33, size: 0x8, addend: 0x0, symName: __ZNSt3__117__compressed_pairINS_16__hash_node_baseIPNS_11__hash_nodeINS_12basic_stringIcNS_11char_traitsIcEENS_9allocatorIcEEEEPvEEEENS6_ISA_EEE5firstB8ue170006Ev, symObjAddr: 0x146E8, symBinAddr: 0x100018C84, symSize: 0x24 }
  - { offsetInCU: 0x2DA04, offset: 0x48D57, size: 0x8, addend: 0x0, symName: __ZNSt3__116__hash_node_baseIPNS_11__hash_nodeINS_12basic_stringIcNS_11char_traitsIcEENS_9allocatorIcEEEEPvEEE5__ptrB8ue170006Ev, symObjAddr: 0x1470C, symBinAddr: 0x100018CA8, symSize: 0x24 }
  - { offsetInCU: 0x2DA28, offset: 0x48D7B, size: 0x8, addend: 0x0, symName: __ZNKSt3__116__hash_node_baseIPNS_11__hash_nodeINS_12basic_stringIcNS_11char_traitsIcEENS_9allocatorIcEEEEPvEEE6__hashB8ue170006Ev, symObjAddr: 0x14730, symBinAddr: 0x100018CCC, symSize: 0x18 }
  - { offsetInCU: 0x2DA4D, offset: 0x48DA0, size: 0x8, addend: 0x0, symName: __ZNSt3__117__compressed_pairIPPNS_16__hash_node_baseIPNS_11__hash_nodeINS_12basic_stringIcNS_11char_traitsIcEENS_9allocatorIcEEEEPvEEEENS_25__bucket_list_deallocatorINS6_ISD_EEEEE6secondB8ue170006Ev, symObjAddr: 0x14748, symBinAddr: 0x100018CE4, symSize: 0x28 }
  - { offsetInCU: 0x2DA71, offset: 0x48DC4, size: 0x8, addend: 0x0, symName: __ZNSt3__122__compressed_pair_elemINS_25__bucket_list_deallocatorINS_9allocatorIPNS_16__hash_node_baseIPNS_11__hash_nodeINS_12basic_stringIcNS_11char_traitsIcEENS2_IcEEEEPvEEEEEEEELi1ELb0EE5__getB8ue170006Ev, symObjAddr: 0x14770, symBinAddr: 0x100018D0C, symSize: 0x14 }
  - { offsetInCU: 0x2DA96, offset: 0x48DE9, size: 0x8, addend: 0x0, symName: __ZNSt3__117__compressed_pairImNS_9allocatorIPNS_16__hash_node_baseIPNS_11__hash_nodeINS_12basic_stringIcNS_11char_traitsIcEENS1_IcEEEEPvEEEEEEE6secondB8ue170006Ev, symObjAddr: 0x14784, symBinAddr: 0x100018D20, symSize: 0x24 }
  - { offsetInCU: 0x2DABA, offset: 0x48E0D, size: 0x8, addend: 0x0, symName: __ZNSt3__122__compressed_pair_elemINS_9allocatorIPNS_16__hash_node_baseIPNS_11__hash_nodeINS_12basic_stringIcNS_11char_traitsIcEENS1_IcEEEEPvEEEEEELi1ELb1EE5__getB8ue170006Ev, symObjAddr: 0x147A8, symBinAddr: 0x100018D44, symSize: 0x14 }
  - { offsetInCU: 0x2DADF, offset: 0x48E32, size: 0x8, addend: 0x0, symName: __ZNSt3__117__compressed_pairIPPNS_16__hash_node_baseIPNS_11__hash_nodeINS_12basic_stringIcNS_11char_traitsIcEENS_9allocatorIcEEEEPvEEEENS_25__bucket_list_deallocatorINS6_ISD_EEEEE5firstB8ue170006Ev, symObjAddr: 0x147BC, symBinAddr: 0x100018D58, symSize: 0x24 }
  - { offsetInCU: 0x2DB03, offset: 0x48E56, size: 0x8, addend: 0x0, symName: __ZNSt3__125__bucket_list_deallocatorINS_9allocatorIPNS_16__hash_node_baseIPNS_11__hash_nodeINS_12basic_stringIcNS_11char_traitsIcEENS1_IcEEEEPvEEEEEEEclB8ue170006EPSD_, symObjAddr: 0x147E0, symBinAddr: 0x100018D7C, symSize: 0x58 }
  - { offsetInCU: 0x2DB36, offset: 0x48E89, size: 0x8, addend: 0x0, symName: __ZNSt3__122__compressed_pair_elemIPPNS_16__hash_node_baseIPNS_11__hash_nodeINS_12basic_stringIcNS_11char_traitsIcEENS_9allocatorIcEEEEPvEEEELi0ELb0EE5__getB8ue170006Ev, symObjAddr: 0x14838, symBinAddr: 0x100018DD4, symSize: 0x14 }
  - { offsetInCU: 0x2DB5B, offset: 0x48EAE, size: 0x8, addend: 0x0, symName: __ZNSt3__116allocator_traitsINS_9allocatorIPNS_16__hash_node_baseIPNS_11__hash_nodeINS_12basic_stringIcNS_11char_traitsIcEENS1_IcEEEEPvEEEEEEE10deallocateB8ue170006ERSE_PSD_m, symObjAddr: 0x1484C, symBinAddr: 0x100018DE8, symSize: 0x34 }
  - { offsetInCU: 0x2DB9C, offset: 0x48EEF, size: 0x8, addend: 0x0, symName: __ZNSt3__19allocatorIPNS_16__hash_node_baseIPNS_11__hash_nodeINS_12basic_stringIcNS_11char_traitsIcEENS0_IcEEEEPvEEEEE10deallocateB8ue170006EPSC_m, symObjAddr: 0x14880, symBinAddr: 0x100018E1C, symSize: 0x40 }
  - { offsetInCU: 0x2DBDC, offset: 0x48F2F, size: 0x8, addend: 0x0, symName: __ZNSt3__19allocatorIPNS_16__hash_node_baseIPNS_11__hash_nodeINS_12basic_stringIcNS_11char_traitsIcEENS0_IcEEEEPvEEEEE8allocateB8ue170006Em, symObjAddr: 0x148C0, symBinAddr: 0x100018E5C, symSize: 0x58 }
  - { offsetInCU: 0x2DC18, offset: 0x48F6B, size: 0x8, addend: 0x0, symName: __ZNSt3__116allocator_traitsINS_9allocatorIPNS_16__hash_node_baseIPNS_11__hash_nodeINS_12basic_stringIcNS_11char_traitsIcEENS1_IcEEEEPvEEEEEEE8max_sizeB8ue170006ISE_vEEmRKSE_, symObjAddr: 0x14918, symBinAddr: 0x100018EB4, symSize: 0x24 }
  - { offsetInCU: 0x2DC46, offset: 0x48F99, size: 0x8, addend: 0x0, symName: __ZNKSt3__19allocatorIPNS_16__hash_node_baseIPNS_11__hash_nodeINS_12basic_stringIcNS_11char_traitsIcEENS0_IcEEEEPvEEEEE8max_sizeB8ue170006Ev, symObjAddr: 0x1493C, symBinAddr: 0x100018ED8, symSize: 0x14 }
  - { offsetInCU: 0x2DC6B, offset: 0x48FBE, size: 0x8, addend: 0x0, symName: __ZNSt3__117__compressed_pairImNS_9allocatorIPNS_16__hash_node_baseIPNS_11__hash_nodeINS_12basic_stringIcNS_11char_traitsIcEENS1_IcEEEEPvEEEEEEE5firstB8ue170006Ev, symObjAddr: 0x14950, symBinAddr: 0x100018EEC, symSize: 0x24 }
  - { offsetInCU: 0x2DC8F, offset: 0x48FE2, size: 0x8, addend: 0x0, symName: __ZNKSt3__117__compressed_pairIPPNS_16__hash_node_baseIPNS_11__hash_nodeINS_12basic_stringIcNS_11char_traitsIcEENS_9allocatorIcEEEEPvEEEENS_25__bucket_list_deallocatorINS6_ISD_EEEEE5firstB8ue170006Ev, symObjAddr: 0x14974, symBinAddr: 0x100018F10, symSize: 0x24 }
  - { offsetInCU: 0x2DCB3, offset: 0x49006, size: 0x8, addend: 0x0, symName: __ZNKSt3__122__compressed_pair_elemIPPNS_16__hash_node_baseIPNS_11__hash_nodeINS_12basic_stringIcNS_11char_traitsIcEENS_9allocatorIcEEEEPvEEEELi0ELb0EE5__getB8ue170006Ev, symObjAddr: 0x14998, symBinAddr: 0x100018F34, symSize: 0x14 }
  - { offsetInCU: 0x2DCD8, offset: 0x4902B, size: 0x8, addend: 0x0, symName: __ZNSt3__122__compressed_pair_elemINS_16__hash_node_baseIPNS_11__hash_nodeINS_12basic_stringIcNS_11char_traitsIcEENS_9allocatorIcEEEEPvEEEELi0ELb0EE5__getB8ue170006Ev, symObjAddr: 0x149AC, symBinAddr: 0x100018F48, symSize: 0x14 }
  - { offsetInCU: 0x2DCFD, offset: 0x49050, size: 0x8, addend: 0x0, symName: __ZNSt3__114pointer_traitsIPNS_16__hash_node_baseIPNS_11__hash_nodeINS_12basic_stringIcNS_11char_traitsIcEENS_9allocatorIcEEEEPvEEEEE10pointer_toB8ue170006ERSC_, symObjAddr: 0x149C0, symBinAddr: 0x100018F5C, symSize: 0x14 }
  - { offsetInCU: 0x2DD20, offset: 0x49073, size: 0x8, addend: 0x0, symName: __ZNSt3__117__compressed_pairImNS_4hashINS_12basic_stringIcNS_11char_traitsIcEENS_9allocatorIcEEEEEEE5firstB8ue170006Ev, symObjAddr: 0x149D4, symBinAddr: 0x100018F70, symSize: 0x24 }
  - { offsetInCU: 0x2DD44, offset: 0x49097, size: 0x8, addend: 0x0, symName: __ZNSt3__117__compressed_pairIfNS_8equal_toINS_12basic_stringIcNS_11char_traitsIcEENS_9allocatorIcEEEEEEE5firstB8ue170006Ev, symObjAddr: 0x149F8, symBinAddr: 0x100018F94, symSize: 0x24 }
  - { offsetInCU: 0x2DD68, offset: 0x490BB, size: 0x8, addend: 0x0, symName: __ZNSt3__16vectorI3RowNS_9allocatorIS1_EEE11__make_iterB8ue170006EPS1_, symObjAddr: 0x14A1C, symBinAddr: 0x100018FB8, symSize: 0x30 }
  - { offsetInCU: 0x2DD9B, offset: 0x490EE, size: 0x8, addend: 0x0, symName: __ZNSt3__111__wrap_iterIP3RowEC1B8ue170006ES2_, symObjAddr: 0x14A4C, symBinAddr: 0x100018FE8, symSize: 0x34 }
  - { offsetInCU: 0x2DDD1, offset: 0x49124, size: 0x8, addend: 0x0, symName: __ZNSt3__111__wrap_iterIP3RowEC2B8ue170006ES2_, symObjAddr: 0x14A80, symBinAddr: 0x10001901C, symSize: 0x20 }
  - { offsetInCU: 0x2DE08, offset: 0x4915B, size: 0x8, addend: 0x0, symName: __ZNKSt3__111__wrap_iterIP3RowE4baseB8ue170006Ev, symObjAddr: 0x14AE8, symBinAddr: 0x100019084, symSize: 0x18 }
  - { offsetInCU: 0x2DE2D, offset: 0x49180, size: 0x8, addend: 0x0, symName: __ZNSt3__112__hash_tableINS_12basic_stringIcNS_11char_traitsIcEENS_9allocatorIcEEEENS_4hashIS6_EENS_8equal_toIS6_EENS4_IS6_EEE15__insert_uniqueB8ue170006ERKS6_, symObjAddr: 0x14B00, symBinAddr: 0x10001909C, symSize: 0x50 }
  - { offsetInCU: 0x2DE60, offset: 0x491B3, size: 0x8, addend: 0x0, symName: __ZNSt3__14pairINS_21__hash_const_iteratorIPNS_11__hash_nodeINS_12basic_stringIcNS_11char_traitsIcEENS_9allocatorIcEEEEPvEEEEbEC1B8ue170006INS_15__hash_iteratorISB_EEbLS9_0EEEONS0_IT_T0_EE, symObjAddr: 0x14B50, symBinAddr: 0x1000190EC, symSize: 0x34 }
  - { offsetInCU: 0x2DEB0, offset: 0x49203, size: 0x8, addend: 0x0, symName: __ZNSt3__112__hash_tableINS_12basic_stringIcNS_11char_traitsIcEENS_9allocatorIcEEEENS_4hashIS6_EENS_8equal_toIS6_EENS4_IS6_EEE25__emplace_unique_key_argsIS6_JRKS6_EEENS_4pairINS_15__hash_iteratorIPNS_11__hash_nodeIS6_PvEEEEbEERKT_DpOT0_, symObjAddr: 0x14B84, symBinAddr: 0x100019120, symSize: 0x4A0 }
  - { offsetInCU: 0x2DF91, offset: 0x492E4, size: 0x8, addend: 0x0, symName: __ZNSt3__122__hash_key_value_typesINS_12basic_stringIcNS_11char_traitsIcEENS_9allocatorIcEEEEE9__get_keyB8ue170006ERKS6_, symObjAddr: 0x15024, symBinAddr: 0x1000195C0, symSize: 0x14 }
  - { offsetInCU: 0x2DFB4, offset: 0x49307, size: 0x8, addend: 0x0, symName: __ZNSt3__112__hash_tableINS_12basic_stringIcNS_11char_traitsIcEENS_9allocatorIcEEEENS_4hashIS6_EENS_8equal_toIS6_EENS4_IS6_EEE13hash_functionB8ue170006Ev, symObjAddr: 0x15038, symBinAddr: 0x1000195D4, symSize: 0x28 }
  - { offsetInCU: 0x2DFD8, offset: 0x4932B, size: 0x8, addend: 0x0, symName: __ZNSt3__112__hash_tableINS_12basic_stringIcNS_11char_traitsIcEENS_9allocatorIcEEEENS_4hashIS6_EENS_8equal_toIS6_EENS4_IS6_EEE6key_eqB8ue170006Ev, symObjAddr: 0x15060, symBinAddr: 0x1000195FC, symSize: 0x28 }
  - { offsetInCU: 0x2DFFC, offset: 0x4934F, size: 0x8, addend: 0x0, symName: __ZNSt3__116__hash_node_baseIPNS_11__hash_nodeINS_12basic_stringIcNS_11char_traitsIcEENS_9allocatorIcEEEEPvEEE8__upcastB8ue170006Ev, symObjAddr: 0x15088, symBinAddr: 0x100019624, symSize: 0x24 }
  - { offsetInCU: 0x2E020, offset: 0x49373, size: 0x8, addend: 0x0, symName: __ZNSt3__112__hash_tableINS_12basic_stringIcNS_11char_traitsIcEENS_9allocatorIcEEEENS_4hashIS6_EENS_8equal_toIS6_EENS4_IS6_EEE21__construct_node_hashIRKS6_JEEENS_10unique_ptrINS_11__hash_nodeIS6_PvEENS_22__hash_node_destructorINS4_ISJ_EEEEEEmOT_DpOT0_, symObjAddr: 0x150AC, symBinAddr: 0x100019648, symSize: 0x140 }
  - { offsetInCU: 0x2E093, offset: 0x493E6, size: 0x8, addend: 0x0, symName: __ZNKSt3__110unique_ptrINS_11__hash_nodeINS_12basic_stringIcNS_11char_traitsIcEENS_9allocatorIcEEEEPvEENS_22__hash_node_destructorINS5_IS9_EEEEEptB8ue170006Ev, symObjAddr: 0x151EC, symBinAddr: 0x100019788, symSize: 0x28 }
  - { offsetInCU: 0x2E0B7, offset: 0x4940A, size: 0x8, addend: 0x0, symName: __ZNKSt3__110unique_ptrINS_11__hash_nodeINS_12basic_stringIcNS_11char_traitsIcEENS_9allocatorIcEEEEPvEENS_22__hash_node_destructorINS5_IS9_EEEEE3getB8ue170006Ev, symObjAddr: 0x15214, symBinAddr: 0x1000197B0, symSize: 0x28 }
  - { offsetInCU: 0x2E0DB, offset: 0x4942E, size: 0x8, addend: 0x0, symName: __ZNSt3__110unique_ptrINS_11__hash_nodeINS_12basic_stringIcNS_11char_traitsIcEENS_9allocatorIcEEEEPvEENS_22__hash_node_destructorINS5_IS9_EEEEE7releaseB8ue170006Ev, symObjAddr: 0x1523C, symBinAddr: 0x1000197D8, symSize: 0x44 }
  - { offsetInCU: 0x2E10E, offset: 0x49461, size: 0x8, addend: 0x0, symName: __ZNSt3__110unique_ptrINS_11__hash_nodeINS_12basic_stringIcNS_11char_traitsIcEENS_9allocatorIcEEEEPvEENS_22__hash_node_destructorINS5_IS9_EEEEED1B8ue170006Ev, symObjAddr: 0x15280, symBinAddr: 0x10001981C, symSize: 0x2C }
  - { offsetInCU: 0x2E136, offset: 0x49489, size: 0x8, addend: 0x0, symName: __ZNSt3__115__hash_iteratorIPNS_11__hash_nodeINS_12basic_stringIcNS_11char_traitsIcEENS_9allocatorIcEEEEPvEEEC1B8ue170006EPNS_16__hash_node_baseISA_EE, symObjAddr: 0x152AC, symBinAddr: 0x100019848, symSize: 0x34 }
  - { offsetInCU: 0x2E172, offset: 0x494C5, size: 0x8, addend: 0x0, symName: __ZNSt3__14pairINS_15__hash_iteratorIPNS_11__hash_nodeINS_12basic_stringIcNS_11char_traitsIcEENS_9allocatorIcEEEEPvEEEEbEC1B8ue170006ISC_RbLS9_0EEEOT_OT0_, symObjAddr: 0x152E0, symBinAddr: 0x10001987C, symSize: 0x3C }
  - { offsetInCU: 0x2E1CF, offset: 0x49522, size: 0x8, addend: 0x0, symName: __ZNSt3__117__compressed_pairImNS_4hashINS_12basic_stringIcNS_11char_traitsIcEENS_9allocatorIcEEEEEEE6secondB8ue170006Ev, symObjAddr: 0x1531C, symBinAddr: 0x1000198B8, symSize: 0x24 }
  - { offsetInCU: 0x2E1F3, offset: 0x49546, size: 0x8, addend: 0x0, symName: __ZNSt3__122__compressed_pair_elemINS_4hashINS_12basic_stringIcNS_11char_traitsIcEENS_9allocatorIcEEEEEELi1ELb1EE5__getB8ue170006Ev, symObjAddr: 0x15340, symBinAddr: 0x1000198DC, symSize: 0x14 }
  - { offsetInCU: 0x2E218, offset: 0x4956B, size: 0x8, addend: 0x0, symName: __ZNSt3__117__compressed_pairIfNS_8equal_toINS_12basic_stringIcNS_11char_traitsIcEENS_9allocatorIcEEEEEEE6secondB8ue170006Ev, symObjAddr: 0x15354, symBinAddr: 0x1000198F0, symSize: 0x24 }
  - { offsetInCU: 0x2E23C, offset: 0x4958F, size: 0x8, addend: 0x0, symName: __ZNSt3__122__compressed_pair_elemINS_8equal_toINS_12basic_stringIcNS_11char_traitsIcEENS_9allocatorIcEEEEEELi1ELb1EE5__getB8ue170006Ev, symObjAddr: 0x15378, symBinAddr: 0x100019914, symSize: 0x14 }
  - { offsetInCU: 0x2E261, offset: 0x495B4, size: 0x8, addend: 0x0, symName: __ZNSt3__112__hash_tableINS_12basic_stringIcNS_11char_traitsIcEENS_9allocatorIcEEEENS_4hashIS6_EENS_8equal_toIS6_EENS4_IS6_EEE12__node_allocB8ue170006Ev, symObjAddr: 0x1538C, symBinAddr: 0x100019928, symSize: 0x28 }
  - { offsetInCU: 0x2E285, offset: 0x495D8, size: 0x8, addend: 0x0, symName: __ZNSt3__116allocator_traitsINS_9allocatorINS_11__hash_nodeINS_12basic_stringIcNS_11char_traitsIcEENS1_IcEEEEPvEEEEE8allocateB8ue170006ERSA_m, symObjAddr: 0x153B4, symBinAddr: 0x100019950, symSize: 0x2C }
  - { offsetInCU: 0x2E2B7, offset: 0x4960A, size: 0x8, addend: 0x0, symName: __ZNSt3__122__hash_node_destructorINS_9allocatorINS_11__hash_nodeINS_12basic_stringIcNS_11char_traitsIcEENS1_IcEEEEPvEEEEEC1B8ue170006ERSA_b, symObjAddr: 0x153E0, symBinAddr: 0x10001997C, symSize: 0x48 }
  - { offsetInCU: 0x2E302, offset: 0x49655, size: 0x8, addend: 0x0, symName: __ZNSt3__110unique_ptrINS_11__hash_nodeINS_12basic_stringIcNS_11char_traitsIcEENS_9allocatorIcEEEEPvEENS_22__hash_node_destructorINS5_IS9_EEEEEC1B8ue170006ILb1EvEEPS9_NS_16__dependent_typeINS_27__unique_ptr_deleter_sfinaeISC_EEXT_EE20__good_rval_ref_typeE, symObjAddr: 0x15428, symBinAddr: 0x1000199C4, symSize: 0x3C }
  - { offsetInCU: 0x2E352, offset: 0x496A5, size: 0x8, addend: 0x0, symName: __ZNSt3__116allocator_traitsINS_9allocatorINS_11__hash_nodeINS_12basic_stringIcNS_11char_traitsIcEENS1_IcEEEEPvEEEEE9constructB8ue170006IS7_JRKS7_EvEEvRSA_PT_DpOT0_, symObjAddr: 0x15464, symBinAddr: 0x100019A00, symSize: 0x34 }
  - { offsetInCU: 0x2E3AB, offset: 0x496FE, size: 0x8, addend: 0x0, symName: __ZNSt3__122__hash_key_value_typesINS_12basic_stringIcNS_11char_traitsIcEENS_9allocatorIcEEEEE9__get_ptrB8ue170006ERS6_, symObjAddr: 0x15498, symBinAddr: 0x100019A34, symSize: 0x14 }
  - { offsetInCU: 0x2E3CE, offset: 0x49721, size: 0x8, addend: 0x0, symName: __ZNSt3__110unique_ptrINS_11__hash_nodeINS_12basic_stringIcNS_11char_traitsIcEENS_9allocatorIcEEEEPvEENS_22__hash_node_destructorINS5_IS9_EEEEE11get_deleterB8ue170006Ev, symObjAddr: 0x154AC, symBinAddr: 0x100019A48, symSize: 0x24 }
  - { offsetInCU: 0x2E3F2, offset: 0x49745, size: 0x8, addend: 0x0, symName: __ZNSt3__117__compressed_pairINS_16__hash_node_baseIPNS_11__hash_nodeINS_12basic_stringIcNS_11char_traitsIcEENS_9allocatorIcEEEEPvEEEENS6_ISA_EEE6secondB8ue170006Ev, symObjAddr: 0x154D0, symBinAddr: 0x100019A6C, symSize: 0x24 }
  - { offsetInCU: 0x2E416, offset: 0x49769, size: 0x8, addend: 0x0, symName: __ZNSt3__122__compressed_pair_elemINS_9allocatorINS_11__hash_nodeINS_12basic_stringIcNS_11char_traitsIcEENS1_IcEEEEPvEEEELi1ELb1EE5__getB8ue170006Ev, symObjAddr: 0x154F4, symBinAddr: 0x100019A90, symSize: 0x14 }
  - { offsetInCU: 0x2E43B, offset: 0x4978E, size: 0x8, addend: 0x0, symName: __ZNSt3__19allocatorINS_11__hash_nodeINS_12basic_stringIcNS_11char_traitsIcEENS0_IcEEEEPvEEE8allocateB8ue170006Em, symObjAddr: 0x15508, symBinAddr: 0x100019AA4, symSize: 0x5C }
  - { offsetInCU: 0x2E477, offset: 0x497CA, size: 0x8, addend: 0x0, symName: __ZNSt3__116allocator_traitsINS_9allocatorINS_11__hash_nodeINS_12basic_stringIcNS_11char_traitsIcEENS1_IcEEEEPvEEEEE8max_sizeB8ue170006ISA_vEEmRKSA_, symObjAddr: 0x15564, symBinAddr: 0x100019B00, symSize: 0x24 }
  - { offsetInCU: 0x2E4A5, offset: 0x497F8, size: 0x8, addend: 0x0, symName: __ZNKSt3__19allocatorINS_11__hash_nodeINS_12basic_stringIcNS_11char_traitsIcEENS0_IcEEEEPvEEE8max_sizeB8ue170006Ev, symObjAddr: 0x15588, symBinAddr: 0x100019B24, symSize: 0x18 }
  - { offsetInCU: 0x2E4CA, offset: 0x4981D, size: 0x8, addend: 0x0, symName: __ZNSt3__122__hash_node_destructorINS_9allocatorINS_11__hash_nodeINS_12basic_stringIcNS_11char_traitsIcEENS1_IcEEEEPvEEEEEC2B8ue170006ERSA_b, symObjAddr: 0x155A0, symBinAddr: 0x100019B3C, symSize: 0x38 }
  - { offsetInCU: 0x2E511, offset: 0x49864, size: 0x8, addend: 0x0, symName: __ZNSt3__110unique_ptrINS_11__hash_nodeINS_12basic_stringIcNS_11char_traitsIcEENS_9allocatorIcEEEEPvEENS_22__hash_node_destructorINS5_IS9_EEEEEC2B8ue170006ILb1EvEEPS9_NS_16__dependent_typeINS_27__unique_ptr_deleter_sfinaeISC_EEXT_EE20__good_rval_ref_typeE, symObjAddr: 0x155D8, symBinAddr: 0x100019B74, symSize: 0x48 }
  - { offsetInCU: 0x2E561, offset: 0x498B4, size: 0x8, addend: 0x0, symName: __ZNSt3__117__compressed_pairIPNS_11__hash_nodeINS_12basic_stringIcNS_11char_traitsIcEENS_9allocatorIcEEEEPvEENS_22__hash_node_destructorINS5_IS9_EEEEEC1B8ue170006IRSA_SD_EEOT_OT0_, symObjAddr: 0x15620, symBinAddr: 0x100019BBC, symSize: 0x3C }
  - { offsetInCU: 0x2E5B7, offset: 0x4990A, size: 0x8, addend: 0x0, symName: __ZNSt3__117__compressed_pairIPNS_11__hash_nodeINS_12basic_stringIcNS_11char_traitsIcEENS_9allocatorIcEEEEPvEENS_22__hash_node_destructorINS5_IS9_EEEEEC2B8ue170006IRSA_SD_EEOT_OT0_, symObjAddr: 0x1565C, symBinAddr: 0x100019BF8, symSize: 0x48 }
  - { offsetInCU: 0x2E60D, offset: 0x49960, size: 0x8, addend: 0x0, symName: __ZNSt3__122__compressed_pair_elemIPNS_11__hash_nodeINS_12basic_stringIcNS_11char_traitsIcEENS_9allocatorIcEEEEPvEELi0ELb0EEC2B8ue170006IRSA_vEEOT_, symObjAddr: 0x156A4, symBinAddr: 0x100019C40, symSize: 0x24 }
  - { offsetInCU: 0x2E64F, offset: 0x499A2, size: 0x8, addend: 0x0, symName: __ZNSt3__122__compressed_pair_elemINS_22__hash_node_destructorINS_9allocatorINS_11__hash_nodeINS_12basic_stringIcNS_11char_traitsIcEENS2_IcEEEEPvEEEEEELi1ELb0EEC2B8ue170006ISC_vEEOT_, symObjAddr: 0x156C8, symBinAddr: 0x100019C64, symSize: 0x24 }
  - { offsetInCU: 0x2E691, offset: 0x499E4, size: 0x8, addend: 0x0, symName: __ZNSt3__19allocatorINS_11__hash_nodeINS_12basic_stringIcNS_11char_traitsIcEENS0_IcEEEEPvEEE9constructB8ue170006IS6_JRKS6_EEEvPT_DpOT0_, symObjAddr: 0x156EC, symBinAddr: 0x100019C88, symSize: 0x30 }
  - { offsetInCU: 0x2E6E7, offset: 0x49A3A, size: 0x8, addend: 0x0, symName: __ZNSt3__117__compressed_pairIPNS_11__hash_nodeINS_12basic_stringIcNS_11char_traitsIcEENS_9allocatorIcEEEEPvEENS_22__hash_node_destructorINS5_IS9_EEEEE6secondB8ue170006Ev, symObjAddr: 0x1571C, symBinAddr: 0x100019CB8, symSize: 0x28 }
  - { offsetInCU: 0x2E70B, offset: 0x49A5E, size: 0x8, addend: 0x0, symName: __ZNSt3__122__compressed_pair_elemINS_22__hash_node_destructorINS_9allocatorINS_11__hash_nodeINS_12basic_stringIcNS_11char_traitsIcEENS2_IcEEEEPvEEEEEELi1ELb0EE5__getB8ue170006Ev, symObjAddr: 0x15744, symBinAddr: 0x100019CE0, symSize: 0x14 }
  - { offsetInCU: 0x2E730, offset: 0x49A83, size: 0x8, addend: 0x0, symName: __ZNKSt3__117__compressed_pairIPNS_11__hash_nodeINS_12basic_stringIcNS_11char_traitsIcEENS_9allocatorIcEEEEPvEENS_22__hash_node_destructorINS5_IS9_EEEEE5firstB8ue170006Ev, symObjAddr: 0x15758, symBinAddr: 0x100019CF4, symSize: 0x24 }
  - { offsetInCU: 0x2E754, offset: 0x49AA7, size: 0x8, addend: 0x0, symName: __ZNKSt3__122__compressed_pair_elemIPNS_11__hash_nodeINS_12basic_stringIcNS_11char_traitsIcEENS_9allocatorIcEEEEPvEELi0ELb0EE5__getB8ue170006Ev, symObjAddr: 0x1577C, symBinAddr: 0x100019D18, symSize: 0x14 }
  - { offsetInCU: 0x2E779, offset: 0x49ACC, size: 0x8, addend: 0x0, symName: __ZNSt3__117__compressed_pairIPNS_11__hash_nodeINS_12basic_stringIcNS_11char_traitsIcEENS_9allocatorIcEEEEPvEENS_22__hash_node_destructorINS5_IS9_EEEEE5firstB8ue170006Ev, symObjAddr: 0x15790, symBinAddr: 0x100019D2C, symSize: 0x24 }
  - { offsetInCU: 0x2E79D, offset: 0x49AF0, size: 0x8, addend: 0x0, symName: __ZNSt3__122__compressed_pair_elemIPNS_11__hash_nodeINS_12basic_stringIcNS_11char_traitsIcEENS_9allocatorIcEEEEPvEELi0ELb0EE5__getB8ue170006Ev, symObjAddr: 0x157B4, symBinAddr: 0x100019D50, symSize: 0x14 }
  - { offsetInCU: 0x2E7C2, offset: 0x49B15, size: 0x8, addend: 0x0, symName: __ZNSt3__110unique_ptrINS_11__hash_nodeINS_12basic_stringIcNS_11char_traitsIcEENS_9allocatorIcEEEEPvEENS_22__hash_node_destructorINS5_IS9_EEEEED2B8ue170006Ev, symObjAddr: 0x157C8, symBinAddr: 0x100019D64, symSize: 0x30 }
  - { offsetInCU: 0x2E7EA, offset: 0x49B3D, size: 0x8, addend: 0x0, symName: __ZNSt3__110unique_ptrINS_11__hash_nodeINS_12basic_stringIcNS_11char_traitsIcEENS_9allocatorIcEEEEPvEENS_22__hash_node_destructorINS5_IS9_EEEEE5resetB8ue170006EPS9_, symObjAddr: 0x157F8, symBinAddr: 0x100019D94, symSize: 0x78 }
  - { offsetInCU: 0x2E82C, offset: 0x49B7F, size: 0x8, addend: 0x0, symName: __ZNSt3__122__hash_node_destructorINS_9allocatorINS_11__hash_nodeINS_12basic_stringIcNS_11char_traitsIcEENS1_IcEEEEPvEEEEEclB8ue170006EPS9_, symObjAddr: 0x15870, symBinAddr: 0x100019E0C, symSize: 0x90 }
  - { offsetInCU: 0x2E85F, offset: 0x49BB2, size: 0x8, addend: 0x0, symName: __ZNSt3__116allocator_traitsINS_9allocatorINS_11__hash_nodeINS_12basic_stringIcNS_11char_traitsIcEENS1_IcEEEEPvEEEEE7destroyB8ue170006IS7_vvEEvRSA_PT_, symObjAddr: 0x15900, symBinAddr: 0x100019E9C, symSize: 0x28 }
  - { offsetInCU: 0x2E89B, offset: 0x49BEE, size: 0x8, addend: 0x0, symName: __ZNSt3__116allocator_traitsINS_9allocatorINS_11__hash_nodeINS_12basic_stringIcNS_11char_traitsIcEENS1_IcEEEEPvEEEEE10deallocateB8ue170006ERSA_PS9_m, symObjAddr: 0x15928, symBinAddr: 0x100019EC4, symSize: 0x34 }
  - { offsetInCU: 0x2E8DC, offset: 0x49C2F, size: 0x8, addend: 0x0, symName: __ZNSt3__19allocatorINS_11__hash_nodeINS_12basic_stringIcNS_11char_traitsIcEENS0_IcEEEEPvEEE10deallocateB8ue170006EPS8_m, symObjAddr: 0x1595C, symBinAddr: 0x100019EF8, symSize: 0x44 }
  - { offsetInCU: 0x2E91C, offset: 0x49C6F, size: 0x8, addend: 0x0, symName: __ZNSt3__115__hash_iteratorIPNS_11__hash_nodeINS_12basic_stringIcNS_11char_traitsIcEENS_9allocatorIcEEEEPvEEEC2B8ue170006EPNS_16__hash_node_baseISA_EE, symObjAddr: 0x159A0, symBinAddr: 0x100019F3C, symSize: 0x20 }
  - { offsetInCU: 0x2E954, offset: 0x49CA7, size: 0x8, addend: 0x0, symName: __ZNSt3__14pairINS_15__hash_iteratorIPNS_11__hash_nodeINS_12basic_stringIcNS_11char_traitsIcEENS_9allocatorIcEEEEPvEEEEbEC2B8ue170006ISC_RbLS9_0EEEOT_OT0_, symObjAddr: 0x159C0, symBinAddr: 0x100019F5C, symSize: 0x38 }
  - { offsetInCU: 0x2E9B2, offset: 0x49D05, size: 0x8, addend: 0x0, symName: __ZNSt3__14pairINS_21__hash_const_iteratorIPNS_11__hash_nodeINS_12basic_stringIcNS_11char_traitsIcEENS_9allocatorIcEEEEPvEEEEbEC2B8ue170006INS_15__hash_iteratorISB_EEbLS9_0EEEONS0_IT_T0_EE, symObjAddr: 0x159F8, symBinAddr: 0x100019F94, symSize: 0x44 }
  - { offsetInCU: 0x2EA02, offset: 0x49D55, size: 0x8, addend: 0x0, symName: __ZNSt3__121__hash_const_iteratorIPNS_11__hash_nodeINS_12basic_stringIcNS_11char_traitsIcEENS_9allocatorIcEEEEPvEEEC1B8ue170006ERKNS_15__hash_iteratorISA_EE, symObjAddr: 0x15A3C, symBinAddr: 0x100019FD8, symSize: 0x34 }
  - { offsetInCU: 0x2EA39, offset: 0x49D8C, size: 0x8, addend: 0x0, symName: __ZNSt3__121__hash_const_iteratorIPNS_11__hash_nodeINS_12basic_stringIcNS_11char_traitsIcEENS_9allocatorIcEEEEPvEEEC2B8ue170006ERKNS_15__hash_iteratorISA_EE, symObjAddr: 0x15A70, symBinAddr: 0x10001A00C, symSize: 0x24 }
  - { offsetInCU: 0x2EA71, offset: 0x49DC4, size: 0x8, addend: 0x0, symName: __ZNSt3__113unordered_setINS_12basic_stringIcNS_11char_traitsIcEENS_9allocatorIcEEEENS_4hashIS6_EENS_8equal_toIS6_EENS4_IS6_EEED2B8ue170006Ev, symObjAddr: 0x15AA8, symBinAddr: 0x10001A044, symSize: 0x2C }
  - { offsetInCU: 0x2EA99, offset: 0x49DEC, size: 0x8, addend: 0x0, symName: __ZNSt3__112__hash_tableINS_12basic_stringIcNS_11char_traitsIcEENS_9allocatorIcEEEENS_4hashIS6_EENS_8equal_toIS6_EENS4_IS6_EEED1Ev, symObjAddr: 0x15AD4, symBinAddr: 0x10001A070, symSize: 0x2C }
  - { offsetInCU: 0x2EAC3, offset: 0x49E16, size: 0x8, addend: 0x0, symName: __ZNSt3__112__hash_tableINS_12basic_stringIcNS_11char_traitsIcEENS_9allocatorIcEEEENS_4hashIS6_EENS_8equal_toIS6_EENS4_IS6_EEED2Ev, symObjAddr: 0x15B00, symBinAddr: 0x10001A09C, symSize: 0x48 }
  - { offsetInCU: 0x2EAED, offset: 0x49E40, size: 0x8, addend: 0x0, symName: __ZNSt3__112__hash_tableINS_12basic_stringIcNS_11char_traitsIcEENS_9allocatorIcEEEENS_4hashIS6_EENS_8equal_toIS6_EENS4_IS6_EEE17__deallocate_nodeEPNS_16__hash_node_baseIPNS_11__hash_nodeIS6_PvEEEE, symObjAddr: 0x15B48, symBinAddr: 0x10001A0E4, symSize: 0x98 }
  - { offsetInCU: 0x2EB5F, offset: 0x49EB2, size: 0x8, addend: 0x0, symName: __ZNSt3__110unique_ptrIA_PNS_16__hash_node_baseIPNS_11__hash_nodeINS_12basic_stringIcNS_11char_traitsIcEENS_9allocatorIcEEEEPvEEEENS_25__bucket_list_deallocatorINS6_ISD_EEEEED1B8ue170006Ev, symObjAddr: 0x15BE0, symBinAddr: 0x10001A17C, symSize: 0x2C }
  - { offsetInCU: 0x2EB87, offset: 0x49EDA, size: 0x8, addend: 0x0, symName: __ZNSt3__110unique_ptrIA_PNS_16__hash_node_baseIPNS_11__hash_nodeINS_12basic_stringIcNS_11char_traitsIcEENS_9allocatorIcEEEEPvEEEENS_25__bucket_list_deallocatorINS6_ISD_EEEEED2B8ue170006Ev, symObjAddr: 0x15C0C, symBinAddr: 0x10001A1A8, symSize: 0x30 }
  - { offsetInCU: 0x2EBAF, offset: 0x49F02, size: 0x8, addend: 0x0, symName: __ZNSt3__110unique_ptrIA_PNS_16__hash_node_baseIPNS_11__hash_nodeINS_12basic_stringIcNS_11char_traitsIcEENS_9allocatorIcEEEEPvEEEENS_25__bucket_list_deallocatorINS6_ISD_EEEEE5resetB8ue170006EDn, symObjAddr: 0x15C3C, symBinAddr: 0x10001A1D8, symSize: 0x6C }
  - { offsetInCU: 0x2EBEE, offset: 0x49F41, size: 0x8, addend: 0x0, symName: __ZNSt3__113unordered_mapINS_12basic_stringIcNS_11char_traitsIcEENS_9allocatorIcEEEEiNS_4hashIS6_EENS_8equal_toIS6_EENS4_INS_4pairIKS6_iEEEEED2B8ue170006Ev, symObjAddr: 0x15CA8, symBinAddr: 0x10001A244, symSize: 0x2C }
  - { offsetInCU: 0x2EC16, offset: 0x49F69, size: 0x8, addend: 0x0, symName: __ZNSt3__112__hash_tableINS_17__hash_value_typeINS_12basic_stringIcNS_11char_traitsIcEENS_9allocatorIcEEEEiEENS_22__unordered_map_hasherIS7_S8_NS_4hashIS7_EENS_8equal_toIS7_EELb1EEENS_21__unordered_map_equalIS7_S8_SD_SB_Lb1EEENS5_IS8_EEED1Ev, symObjAddr: 0x15CD4, symBinAddr: 0x10001A270, symSize: 0x2C }
  - { offsetInCU: 0x2EC40, offset: 0x49F93, size: 0x8, addend: 0x0, symName: __ZNSt3__112__hash_tableINS_17__hash_value_typeINS_12basic_stringIcNS_11char_traitsIcEENS_9allocatorIcEEEEiEENS_22__unordered_map_hasherIS7_S8_NS_4hashIS7_EENS_8equal_toIS7_EELb1EEENS_21__unordered_map_equalIS7_S8_SD_SB_Lb1EEENS5_IS8_EEED2Ev, symObjAddr: 0x15D00, symBinAddr: 0x10001A29C, symSize: 0x48 }
  - { offsetInCU: 0x2EC6A, offset: 0x49FBD, size: 0x8, addend: 0x0, symName: __ZNSt3__112__hash_tableINS_17__hash_value_typeINS_12basic_stringIcNS_11char_traitsIcEENS_9allocatorIcEEEEiEENS_22__unordered_map_hasherIS7_S8_NS_4hashIS7_EENS_8equal_toIS7_EELb1EEENS_21__unordered_map_equalIS7_S8_SD_SB_Lb1EEENS5_IS8_EEE17__deallocate_nodeEPNS_16__hash_node_baseIPNS_11__hash_nodeIS8_PvEEEE, symObjAddr: 0x15D48, symBinAddr: 0x10001A2E4, symSize: 0xA4 }
  - { offsetInCU: 0x2ECD3, offset: 0x4A026, size: 0x8, addend: 0x0, symName: __ZNSt3__110unique_ptrIA_PNS_16__hash_node_baseIPNS_11__hash_nodeINS_17__hash_value_typeINS_12basic_stringIcNS_11char_traitsIcEENS_9allocatorIcEEEEiEEPvEEEENS_25__bucket_list_deallocatorINS7_ISF_EEEEED1B8ue170006Ev, symObjAddr: 0x15DEC, symBinAddr: 0x10001A388, symSize: 0x2C }
  - { offsetInCU: 0x2ECFB, offset: 0x4A04E, size: 0x8, addend: 0x0, symName: __ZNSt3__110unique_ptrIA_PNS_16__hash_node_baseIPNS_11__hash_nodeINS_17__hash_value_typeINS_12basic_stringIcNS_11char_traitsIcEENS_9allocatorIcEEEEiEEPvEEEENS_25__bucket_list_deallocatorINS7_ISF_EEEEED2B8ue170006Ev, symObjAddr: 0x15E18, symBinAddr: 0x10001A3B4, symSize: 0x30 }
  - { offsetInCU: 0x2ED23, offset: 0x4A076, size: 0x8, addend: 0x0, symName: __ZNSt3__110unique_ptrIA_PNS_16__hash_node_baseIPNS_11__hash_nodeINS_17__hash_value_typeINS_12basic_stringIcNS_11char_traitsIcEENS_9allocatorIcEEEEiEEPvEEEENS_25__bucket_list_deallocatorINS7_ISF_EEEEE5resetB8ue170006EDn, symObjAddr: 0x15E48, symBinAddr: 0x10001A3E4, symSize: 0x6C }
  - { offsetInCU: 0x2ED62, offset: 0x4A0B5, size: 0x8, addend: 0x0, symName: __ZNSt3__114basic_ifstreamIcNS_11char_traitsIcEEED2Ev, symObjAddr: 0x15EB4, symBinAddr: 0x10001A450, symSize: 0x64 }
  - { offsetInCU: 0x2ED99, offset: 0x4A0EC, size: 0x8, addend: 0x0, symName: __ZTv0_n24_NSt3__114basic_ifstreamIcNS_11char_traitsIcEEED1Ev, symObjAddr: 0x15F18, symBinAddr: 0x10001A4B4, symSize: 0x28 }
  - { offsetInCU: 0x2EDC5, offset: 0x4A118, size: 0x8, addend: 0x0, symName: __ZN11MungeLogger3logIJA20_cdEEEvDpRKT_, symObjAddr: 0x15F40, symBinAddr: 0x10001A4DC, symSize: 0x190 }
  - { offsetInCU: 0x2EE4C, offset: 0x4A19F, size: 0x8, addend: 0x0, symName: __ZN11MungeLogger3logIJA15_cdA11_cdEEEvDpRKT_, symObjAddr: 0x160D0, symBinAddr: 0x10001A66C, symSize: 0x1C4 }
  - { offsetInCU: 0x2EEFB, offset: 0x4A24E, size: 0x8, addend: 0x0, symName: __ZN11MungeLogger3logIJA44_cEEEvDpRKT_, symObjAddr: 0x16294, symBinAddr: 0x10001A830, symSize: 0x174 }
  - { offsetInCU: 0x2EF58, offset: 0x4A2AB, size: 0x8, addend: 0x0, symName: __ZNSt3__16vectorIdNS_9allocatorIdEEEC1B8ue170006Ev, symObjAddr: 0x16408, symBinAddr: 0x10001A9A4, symSize: 0x2C }
  - { offsetInCU: 0x2EF80, offset: 0x4A2D3, size: 0x8, addend: 0x0, symName: __ZNSt3__16vectorIdNS_9allocatorIdEEE7reserveEm, symObjAddr: 0x16434, symBinAddr: 0x10001A9D0, symSize: 0xE8 }
  - { offsetInCU: 0x2EFDB, offset: 0x4A32E, size: 0x8, addend: 0x0, symName: __ZNSt3__16vectorIdNS_9allocatorIdEEE9push_backB8ue170006ERKd, symObjAddr: 0x1651C, symBinAddr: 0x10001AAB8, symSize: 0x6C }
  - { offsetInCU: 0x2F011, offset: 0x4A364, size: 0x8, addend: 0x0, symName: __ZNKSt3__16vectorIdNS_9allocatorIdEEE5emptyB8ue170006Ev, symObjAddr: 0x16588, symBinAddr: 0x10001AB24, symSize: 0x28 }
  - { offsetInCU: 0x2F036, offset: 0x4A389, size: 0x8, addend: 0x0, symName: __ZNSt3__16vectorIdNS_9allocatorIdEEE5beginB8ue170006Ev, symObjAddr: 0x165FC, symBinAddr: 0x10001AB98, symSize: 0x30 }
  - { offsetInCU: 0x2F05D, offset: 0x4A3B0, size: 0x8, addend: 0x0, symName: __ZNKSt3__111__wrap_iterIPdEplB8ue170006El, symObjAddr: 0x1662C, symBinAddr: 0x10001ABC8, symSize: 0x3C }
  - { offsetInCU: 0x2F09D, offset: 0x4A3F0, size: 0x8, addend: 0x0, symName: __ZNKSt3__16vectorIdNS_9allocatorIdEEE4sizeB8ue170006Ev, symObjAddr: 0x16668, symBinAddr: 0x10001AC04, symSize: 0x28 }
  - { offsetInCU: 0x2F0C2, offset: 0x4A415, size: 0x8, addend: 0x0, symName: __ZNSt3__16vectorIdNS_9allocatorIdEEE3endB8ue170006Ev, symObjAddr: 0x16690, symBinAddr: 0x10001AC2C, symSize: 0x30 }
  - { offsetInCU: 0x2F0E9, offset: 0x4A43C, size: 0x8, addend: 0x0, symName: __ZNSt3__16vectorIdNS_9allocatorIdEEEixB8ue170006Em, symObjAddr: 0x166C0, symBinAddr: 0x10001AC5C, symSize: 0x24 }
  - { offsetInCU: 0x2F11F, offset: 0x4A472, size: 0x8, addend: 0x0, symName: __ZNSt3__16vectorI3RowNS_9allocatorIS1_EEE5eraseENS_11__wrap_iterIPKS1_EES8_, symObjAddr: 0x166E4, symBinAddr: 0x10001AC80, symSize: 0xE0 }
  - { offsetInCU: 0x2F17D, offset: 0x4A4D0, size: 0x8, addend: 0x0, symName: __ZNSt3__111__wrap_iterIPK3RowEC1B8ue170006IPS1_EERKNS0_IT_EEPNS_9enable_ifIXsr14is_convertibleIS7_S3_EE5valueEvE4typeE, symObjAddr: 0x168C0, symBinAddr: 0x10001AE5C, symSize: 0x3C }
  - { offsetInCU: 0x2F1F3, offset: 0x4A546, size: 0x8, addend: 0x0, symName: __ZN11MungeLogger3logIJA9_cmA16_cdA3_cmA15_cEEEvDpRKT_, symObjAddr: 0x168FC, symBinAddr: 0x10001AE98, symSize: 0x210 }
  - { offsetInCU: 0x2F2CA, offset: 0x4A61D, size: 0x8, addend: 0x0, symName: __ZL6p_to_zd, symObjAddr: 0x16B0C, symBinAddr: 0x10001B0A8, symSize: 0x30 }
  - { offsetInCU: 0x2F2F7, offset: 0x4A64A, size: 0x8, addend: 0x0, symName: __ZNSt3__18ios_base4setfB8ue170006Ej, symObjAddr: 0x16B3C, symBinAddr: 0x10001B0D8, symSize: 0x34 }
  - { offsetInCU: 0x2F33C, offset: 0x4A68F, size: 0x8, addend: 0x0, symName: __ZNSt3__114basic_ofstreamIcNS_11char_traitsIcEEE5closeEv, symObjAddr: 0x16BDC, symBinAddr: 0x10001B178, symSize: 0x58 }
  - { offsetInCU: 0x2F3A5, offset: 0x4A6F8, size: 0x8, addend: 0x0, symName: __ZN11MungeLogger3logIJA32_cmA10_cNSt3__112basic_stringIcNS3_11char_traitsIcEENS3_9allocatorIcEEEEA2_cEEEvDpRKT_, symObjAddr: 0x16C34, symBinAddr: 0x10001B1D0, symSize: 0x1D8 }
  - { offsetInCU: 0x2F451, offset: 0x4A7A4, size: 0x8, addend: 0x0, symName: __Z8isfiniteB8ue170006IdLi0EEbT_, symObjAddr: 0x16E0C, symBinAddr: 0x10001B3A8, symSize: 0x34 }
  - { offsetInCU: 0x2F491, offset: 0x4A7E4, size: 0x8, addend: 0x0, symName: __ZNKSt3__111__wrap_iterIPdEdeB8ue170006Ev, symObjAddr: 0x16E74, symBinAddr: 0x10001B410, symSize: 0x18 }
  - { offsetInCU: 0x2F4B6, offset: 0x4A809, size: 0x8, addend: 0x0, symName: __ZNSt3__111__wrap_iterIPdEppB8ue170006Ev, symObjAddr: 0x16E8C, symBinAddr: 0x10001B428, symSize: 0x20 }
  - { offsetInCU: 0x2F4F1, offset: 0x4A844, size: 0x8, addend: 0x0, symName: __ZN11MungeLogger3logIJA14_cdEEEvDpRKT_, symObjAddr: 0x16EAC, symBinAddr: 0x10001B448, symSize: 0x190 }
  - { offsetInCU: 0x2F562, offset: 0x4A8B5, size: 0x8, addend: 0x0, symName: __ZNSt3__16vectorIdNS_9allocatorIdEEEC1ERKS3_, symObjAddr: 0x1703C, symBinAddr: 0x10001B5D8, symSize: 0x34 }
  - { offsetInCU: 0x2F59B, offset: 0x4A8EE, size: 0x8, addend: 0x0, symName: __ZNSt3__113basic_ostreamIcNS_11char_traitsIcEEElsB8ue170006EPFRNS_8ios_baseES5_E, symObjAddr: 0x17070, symBinAddr: 0x10001B60C, symSize: 0x40 }
  - { offsetInCU: 0x2F5E3, offset: 0x4A936, size: 0x8, addend: 0x0, symName: __ZN11MungeLogger3logIJA13_cNSt3__112basic_stringIcNS2_11char_traitsIcEENS2_9allocatorIcEEEEEEEvDpRKT_, symObjAddr: 0x170E0, symBinAddr: 0x10001B67C, symSize: 0x18C }
  - { offsetInCU: 0x2F66A, offset: 0x4A9BD, size: 0x8, addend: 0x0, symName: __ZN11MungeLogger3logIJNSt3__112basic_stringIcNS1_11char_traitsIcEENS1_9allocatorIcEEEEA73_cEEEvDpRKT_, symObjAddr: 0x17330, symBinAddr: 0x10001B8CC, symSize: 0x18C }
  - { offsetInCU: 0x2F6DB, offset: 0x4AA2E, size: 0x8, addend: 0x0, symName: __ZNSt3__16vectorIdNS_9allocatorIdEEED1B8ue170006Ev, symObjAddr: 0x174BC, symBinAddr: 0x10001BA58, symSize: 0x2C }
  - { offsetInCU: 0x2F719, offset: 0x4AA6C, size: 0x8, addend: 0x0, symName: __ZN11MungeLogger3logIJA37_cEEEvDpRKT_, symObjAddr: 0x174E8, symBinAddr: 0x10001BA84, symSize: 0x174 }
  - { offsetInCU: 0x2F776, offset: 0x4AAC9, size: 0x8, addend: 0x0, symName: __ZNSt3__16vectorIdNS_9allocatorIdEEEC2B8ue170006Ev, symObjAddr: 0x1765C, symBinAddr: 0x10001BBF8, symSize: 0x4C }
  - { offsetInCU: 0x2F79E, offset: 0x4AAF1, size: 0x8, addend: 0x0, symName: __ZNSt3__117__compressed_pairIPdNS_9allocatorIdEEEC1B8ue170006IDnNS_18__default_init_tagEEEOT_OT0_, symObjAddr: 0x176A8, symBinAddr: 0x10001BC44, symSize: 0x3C }
  - { offsetInCU: 0x2F7F4, offset: 0x4AB47, size: 0x8, addend: 0x0, symName: __ZNSt3__117__compressed_pairIPdNS_9allocatorIdEEEC2B8ue170006IDnNS_18__default_init_tagEEEOT_OT0_, symObjAddr: 0x176E4, symBinAddr: 0x10001BC80, symSize: 0x40 }
  - { offsetInCU: 0x2F84A, offset: 0x4AB9D, size: 0x8, addend: 0x0, symName: __ZNSt3__122__compressed_pair_elemIPdLi0ELb0EEC2B8ue170006IDnvEEOT_, symObjAddr: 0x17724, symBinAddr: 0x10001BCC0, symSize: 0x1C }
  - { offsetInCU: 0x2F88C, offset: 0x4ABDF, size: 0x8, addend: 0x0, symName: __ZNSt3__122__compressed_pair_elemINS_9allocatorIdEELi1ELb1EEC2B8ue170006ENS_18__default_init_tagE, symObjAddr: 0x17740, symBinAddr: 0x10001BCDC, symSize: 0x2C }
  - { offsetInCU: 0x2F8BF, offset: 0x4AC12, size: 0x8, addend: 0x0, symName: __ZNSt3__19allocatorIdEC2B8ue170006Ev, symObjAddr: 0x1776C, symBinAddr: 0x10001BD08, symSize: 0x2C }
  - { offsetInCU: 0x2F8E7, offset: 0x4AC3A, size: 0x8, addend: 0x0, symName: __ZNSt3__116__non_trivial_ifILb1ENS_9allocatorIdEEEC2B8ue170006Ev, symObjAddr: 0x17798, symBinAddr: 0x10001BD34, symSize: 0x14 }
  - { offsetInCU: 0x2F910, offset: 0x4AC63, size: 0x8, addend: 0x0, symName: __ZNKSt3__16vectorIdNS_9allocatorIdEEE8capacityB8ue170006Ev, symObjAddr: 0x177AC, symBinAddr: 0x10001BD48, symSize: 0x40 }
  - { offsetInCU: 0x2F934, offset: 0x4AC87, size: 0x8, addend: 0x0, symName: __ZNKSt3__16vectorIdNS_9allocatorIdEEE8max_sizeEv, symObjAddr: 0x177EC, symBinAddr: 0x10001BD88, symSize: 0x60 }
  - { offsetInCU: 0x2F95B, offset: 0x4ACAE, size: 0x8, addend: 0x0, symName: __ZNKSt3__16vectorIdNS_9allocatorIdEEE20__throw_length_errorB8ue170006Ev, symObjAddr: 0x1784C, symBinAddr: 0x10001BDE8, symSize: 0x1C }
  - { offsetInCU: 0x2F97F, offset: 0x4ACD2, size: 0x8, addend: 0x0, symName: __ZNSt3__16vectorIdNS_9allocatorIdEEE7__allocB8ue170006Ev, symObjAddr: 0x17868, symBinAddr: 0x10001BE04, symSize: 0x28 }
  - { offsetInCU: 0x2F9A3, offset: 0x4ACF6, size: 0x8, addend: 0x0, symName: __ZNSt3__114__split_bufferIdRNS_9allocatorIdEEEC1EmmS3_, symObjAddr: 0x17890, symBinAddr: 0x10001BE2C, symSize: 0x44 }
  - { offsetInCU: 0x2F9F7, offset: 0x4AD4A, size: 0x8, addend: 0x0, symName: __ZNSt3__114__split_bufferIdRNS_9allocatorIdEEED1Ev, symObjAddr: 0x179E4, symBinAddr: 0x10001BF80, symSize: 0x2C }
  - { offsetInCU: 0x2FA21, offset: 0x4AD74, size: 0x8, addend: 0x0, symName: __ZNKSt3__16vectorIdNS_9allocatorIdEEE9__end_capB8ue170006Ev, symObjAddr: 0x17A10, symBinAddr: 0x10001BFAC, symSize: 0x28 }
  - { offsetInCU: 0x2FA45, offset: 0x4AD98, size: 0x8, addend: 0x0, symName: __ZNKSt3__117__compressed_pairIPdNS_9allocatorIdEEE5firstB8ue170006Ev, symObjAddr: 0x17A38, symBinAddr: 0x10001BFD4, symSize: 0x24 }
  - { offsetInCU: 0x2FA69, offset: 0x4ADBC, size: 0x8, addend: 0x0, symName: __ZNKSt3__122__compressed_pair_elemIPdLi0ELb0EE5__getB8ue170006Ev, symObjAddr: 0x17A5C, symBinAddr: 0x10001BFF8, symSize: 0x14 }
  - { offsetInCU: 0x2FA98, offset: 0x4ADEB, size: 0x8, addend: 0x0, symName: __ZNSt3__116allocator_traitsINS_9allocatorIdEEE8max_sizeB8ue170006IS2_vEEmRKS2_, symObjAddr: 0x17A70, symBinAddr: 0x10001C00C, symSize: 0x24 }
  - { offsetInCU: 0x2FAC6, offset: 0x4AE19, size: 0x8, addend: 0x0, symName: __ZNKSt3__16vectorIdNS_9allocatorIdEEE7__allocB8ue170006Ev, symObjAddr: 0x17A94, symBinAddr: 0x10001C030, symSize: 0x28 }
  - { offsetInCU: 0x2FAEA, offset: 0x4AE3D, size: 0x8, addend: 0x0, symName: __ZNKSt3__19allocatorIdE8max_sizeB8ue170006Ev, symObjAddr: 0x17ABC, symBinAddr: 0x10001C058, symSize: 0x14 }
  - { offsetInCU: 0x2FB0F, offset: 0x4AE62, size: 0x8, addend: 0x0, symName: __ZNKSt3__117__compressed_pairIPdNS_9allocatorIdEEE6secondB8ue170006Ev, symObjAddr: 0x17AD0, symBinAddr: 0x10001C06C, symSize: 0x24 }
  - { offsetInCU: 0x2FB33, offset: 0x4AE86, size: 0x8, addend: 0x0, symName: __ZNKSt3__122__compressed_pair_elemINS_9allocatorIdEELi1ELb1EE5__getB8ue170006Ev, symObjAddr: 0x17AF4, symBinAddr: 0x10001C090, symSize: 0x14 }
  - { offsetInCU: 0x2FB58, offset: 0x4AEAB, size: 0x8, addend: 0x0, symName: __ZNSt3__117__compressed_pairIPdNS_9allocatorIdEEE6secondB8ue170006Ev, symObjAddr: 0x17B08, symBinAddr: 0x10001C0A4, symSize: 0x24 }
  - { offsetInCU: 0x2FB7C, offset: 0x4AECF, size: 0x8, addend: 0x0, symName: __ZNSt3__122__compressed_pair_elemINS_9allocatorIdEELi1ELb1EE5__getB8ue170006Ev, symObjAddr: 0x17B2C, symBinAddr: 0x10001C0C8, symSize: 0x14 }
  - { offsetInCU: 0x2FBA1, offset: 0x4AEF4, size: 0x8, addend: 0x0, symName: __ZNSt3__114__split_bufferIdRNS_9allocatorIdEEEC2EmmS3_, symObjAddr: 0x17B40, symBinAddr: 0x10001C0DC, symSize: 0xD4 }
  - { offsetInCU: 0x2FC13, offset: 0x4AF66, size: 0x8, addend: 0x0, symName: __ZNSt3__117__compressed_pairIPdRNS_9allocatorIdEEEC1B8ue170006IDnS4_EEOT_OT0_, symObjAddr: 0x17C14, symBinAddr: 0x10001C1B0, symSize: 0x3C }
  - { offsetInCU: 0x2FC69, offset: 0x4AFBC, size: 0x8, addend: 0x0, symName: __ZNSt3__114__split_bufferIdRNS_9allocatorIdEEE7__allocB8ue170006Ev, symObjAddr: 0x17C90, symBinAddr: 0x10001C22C, symSize: 0x28 }
  - { offsetInCU: 0x2FC8D, offset: 0x4AFE0, size: 0x8, addend: 0x0, symName: __ZNSt3__114__split_bufferIdRNS_9allocatorIdEEE9__end_capB8ue170006Ev, symObjAddr: 0x17CB8, symBinAddr: 0x10001C254, symSize: 0x28 }
  - { offsetInCU: 0x2FCB1, offset: 0x4B004, size: 0x8, addend: 0x0, symName: __ZNSt3__117__compressed_pairIPdRNS_9allocatorIdEEEC2B8ue170006IDnS4_EEOT_OT0_, symObjAddr: 0x17CE0, symBinAddr: 0x10001C27C, symSize: 0x48 }
  - { offsetInCU: 0x2FD07, offset: 0x4B05A, size: 0x8, addend: 0x0, symName: __ZNSt3__122__compressed_pair_elemIRNS_9allocatorIdEELi1ELb0EEC2B8ue170006IS3_vEEOT_, symObjAddr: 0x17D28, symBinAddr: 0x10001C2C4, symSize: 0x20 }
  - { offsetInCU: 0x2FD49, offset: 0x4B09C, size: 0x8, addend: 0x0, symName: __ZNSt3__19allocatorIdE8allocateB8ue170006Em, symObjAddr: 0x17D48, symBinAddr: 0x10001C2E4, symSize: 0x58 }
  - { offsetInCU: 0x2FD7B, offset: 0x4B0CE, size: 0x8, addend: 0x0, symName: __ZNSt3__117__compressed_pairIPdRNS_9allocatorIdEEE6secondB8ue170006Ev, symObjAddr: 0x17DA0, symBinAddr: 0x10001C33C, symSize: 0x28 }
  - { offsetInCU: 0x2FD9F, offset: 0x4B0F2, size: 0x8, addend: 0x0, symName: __ZNSt3__122__compressed_pair_elemIRNS_9allocatorIdEELi1ELb0EE5__getB8ue170006Ev, symObjAddr: 0x17DC8, symBinAddr: 0x10001C364, symSize: 0x18 }
  - { offsetInCU: 0x2FDC4, offset: 0x4B117, size: 0x8, addend: 0x0, symName: __ZNSt3__117__compressed_pairIPdRNS_9allocatorIdEEE5firstB8ue170006Ev, symObjAddr: 0x17DE0, symBinAddr: 0x10001C37C, symSize: 0x24 }
  - { offsetInCU: 0x2FDE8, offset: 0x4B13B, size: 0x8, addend: 0x0, symName: __ZNSt3__122__compressed_pair_elemIPdLi0ELb0EE5__getB8ue170006Ev, symObjAddr: 0x17E04, symBinAddr: 0x10001C3A0, symSize: 0x14 }
  - { offsetInCU: 0x2FE0D, offset: 0x4B160, size: 0x8, addend: 0x0, symName: __ZNKSt3__16vectorIdNS_9allocatorIdEEE17__annotate_deleteB8ue170006Ev, symObjAddr: 0x17E18, symBinAddr: 0x10001C3B4, symSize: 0xB8 }
  - { offsetInCU: 0x2FE31, offset: 0x4B184, size: 0x8, addend: 0x0, symName: __ZNSt3__116reverse_iteratorIPdEC1B8ue170006ES1_, symObjAddr: 0x17F48, symBinAddr: 0x10001C4E4, symSize: 0x34 }
  - { offsetInCU: 0x2FE67, offset: 0x4B1BA, size: 0x8, addend: 0x0, symName: __ZNKSt3__116reverse_iteratorIPdE4baseB8ue170006Ev, symObjAddr: 0x17F7C, symBinAddr: 0x10001C518, symSize: 0x18 }
  - { offsetInCU: 0x2FE8C, offset: 0x4B1DF, size: 0x8, addend: 0x0, symName: __ZNSt3__16vectorIdNS_9allocatorIdEEE9__end_capB8ue170006Ev, symObjAddr: 0x17FD0, symBinAddr: 0x10001C56C, symSize: 0x28 }
  - { offsetInCU: 0x2FEB0, offset: 0x4B203, size: 0x8, addend: 0x0, symName: __ZNKSt3__16vectorIdNS_9allocatorIdEEE14__annotate_newB8ue170006Em, symObjAddr: 0x17FF8, symBinAddr: 0x10001C594, symSize: 0xAC }
  - { offsetInCU: 0x2FEE3, offset: 0x4B236, size: 0x8, addend: 0x0, symName: __ZNKSt3__16vectorIdNS_9allocatorIdEEE31__annotate_contiguous_containerB8ue170006EPKvS5_S5_S5_, symObjAddr: 0x180A4, symBinAddr: 0x10001C640, symSize: 0x20 }
  - { offsetInCU: 0x2FF38, offset: 0x4B28B, size: 0x8, addend: 0x0, symName: __ZNKSt3__16vectorIdNS_9allocatorIdEEE4dataB8ue170006Ev, symObjAddr: 0x180C4, symBinAddr: 0x10001C660, symSize: 0x28 }
  - { offsetInCU: 0x2FF7F, offset: 0x4B2D2, size: 0x8, addend: 0x0, symName: __ZNKSt3__111__move_loopINS_17_ClassicAlgPolicyEEclB8ue170006INS_16reverse_iteratorIPdEES6_S6_EENS_4pairIT_T1_EES8_T0_S9_, symObjAddr: 0x183F0, symBinAddr: 0x10001C98C, symSize: 0xA0 }
  - { offsetInCU: 0x2FFED, offset: 0x4B340, size: 0x8, addend: 0x0, symName: __ZNSt3__18_IterOpsINS_17_ClassicAlgPolicyEE11__iter_moveB8ue170006IRNS_16reverse_iteratorIPdEEEENS_9enable_ifIXsr12is_referenceIDTdeclsr3stdE7declvalIRT_EEEEE5valueEDTclsr3stdE4movedeclsr3stdE7declvalISA_EEEEE4typeEOS9_, symObjAddr: 0x18624, symBinAddr: 0x10001CBC0, symSize: 0x28 }
  - { offsetInCU: 0x30018, offset: 0x4B36B, size: 0x8, addend: 0x0, symName: __ZNKSt3__116reverse_iteratorIPdEdeB8ue170006Ev, symObjAddr: 0x1864C, symBinAddr: 0x10001CBE8, symSize: 0x28 }
  - { offsetInCU: 0x3004B, offset: 0x4B39E, size: 0x8, addend: 0x0, symName: __ZNSt3__116reverse_iteratorIPdEppB8ue170006Ev, symObjAddr: 0x18674, symBinAddr: 0x10001CC10, symSize: 0x20 }
  - { offsetInCU: 0x30070, offset: 0x4B3C3, size: 0x8, addend: 0x0, symName: __ZNSt3__18_IterOpsINS_17_ClassicAlgPolicyEE25__validate_iter_referenceB8ue170006IRNS_16reverse_iteratorIPdEEEEvv, symObjAddr: 0x18694, symBinAddr: 0x10001CC30, symSize: 0x4 }
  - { offsetInCU: 0x3008E, offset: 0x4B3E1, size: 0x8, addend: 0x0, symName: __ZNSt3__118__unwrap_iter_implINS_16reverse_iteratorIPdEELb0EE8__unwrapB8ue170006ES3_, symObjAddr: 0x18698, symBinAddr: 0x10001CC34, symSize: 0x24 }
  - { offsetInCU: 0x300B6, offset: 0x4B409, size: 0x8, addend: 0x0, symName: __ZNSt3__14pairINS_16reverse_iteratorIPdEES3_EC1B8ue170006IS3_S3_LPv0EEEOT_OT0_, symObjAddr: 0x186BC, symBinAddr: 0x10001CC58, symSize: 0x3C }
  - { offsetInCU: 0x30113, offset: 0x4B466, size: 0x8, addend: 0x0, symName: __ZNSt3__14pairINS_16reverse_iteratorIPdEES3_EC2B8ue170006IS3_S3_LPv0EEEOT_OT0_, symObjAddr: 0x186F8, symBinAddr: 0x10001CC94, symSize: 0x34 }
  - { offsetInCU: 0x30171, offset: 0x4B4C4, size: 0x8, addend: 0x0, symName: __ZNSt3__118__unwrap_iter_implINS_16reverse_iteratorIPdEELb0EE8__rewrapB8ue170006ES3_S3_, symObjAddr: 0x1872C, symBinAddr: 0x10001CCC8, symSize: 0x2C }
  - { offsetInCU: 0x3019F, offset: 0x4B4F2, size: 0x8, addend: 0x0, symName: __ZNSt3__116reverse_iteratorIPdEC2B8ue170006ES1_, symObjAddr: 0x18758, symBinAddr: 0x10001CCF4, symSize: 0x28 }
  - { offsetInCU: 0x301D6, offset: 0x4B529, size: 0x8, addend: 0x0, symName: __ZNSt3__117__compressed_pairIPdNS_9allocatorIdEEE5firstB8ue170006Ev, symObjAddr: 0x18780, symBinAddr: 0x10001CD1C, symSize: 0x24 }
  - { offsetInCU: 0x301FA, offset: 0x4B54D, size: 0x8, addend: 0x0, symName: __ZNSt3__114__split_bufferIdRNS_9allocatorIdEEED2Ev, symObjAddr: 0x187A4, symBinAddr: 0x10001CD40, symSize: 0x8C }
  - { offsetInCU: 0x30224, offset: 0x4B577, size: 0x8, addend: 0x0, symName: __ZNSt3__114__split_bufferIdRNS_9allocatorIdEEE5clearB8ue170006Ev, symObjAddr: 0x18830, symBinAddr: 0x10001CDCC, symSize: 0x28 }
  - { offsetInCU: 0x30248, offset: 0x4B59B, size: 0x8, addend: 0x0, symName: __ZNSt3__116allocator_traitsINS_9allocatorIdEEE10deallocateB8ue170006ERS2_Pdm, symObjAddr: 0x18858, symBinAddr: 0x10001CDF4, symSize: 0x34 }
  - { offsetInCU: 0x30289, offset: 0x4B5DC, size: 0x8, addend: 0x0, symName: __ZNKSt3__114__split_bufferIdRNS_9allocatorIdEEE8capacityB8ue170006Ev, symObjAddr: 0x1888C, symBinAddr: 0x10001CE28, symSize: 0x40 }
  - { offsetInCU: 0x302AD, offset: 0x4B600, size: 0x8, addend: 0x0, symName: __ZNSt3__114__split_bufferIdRNS_9allocatorIdEEE17__destruct_at_endB8ue170006EPd, symObjAddr: 0x188CC, symBinAddr: 0x10001CE68, symSize: 0x2C }
  - { offsetInCU: 0x302DF, offset: 0x4B632, size: 0x8, addend: 0x0, symName: __ZNSt3__114__split_bufferIdRNS_9allocatorIdEEE17__destruct_at_endB8ue170006EPdNS_17integral_constantIbLb0EEE, symObjAddr: 0x188F8, symBinAddr: 0x10001CE94, symSize: 0x80 }
  - { offsetInCU: 0x3031F, offset: 0x4B672, size: 0x8, addend: 0x0, symName: __ZNSt3__116allocator_traitsINS_9allocatorIdEEE7destroyB8ue170006IdvEEvRS2_PT_, symObjAddr: 0x18978, symBinAddr: 0x10001CF14, symSize: 0x2C }
  - { offsetInCU: 0x3035C, offset: 0x4B6AF, size: 0x8, addend: 0x0, symName: __ZNSt3__19allocatorIdE7destroyB8ue170006EPd, symObjAddr: 0x189A4, symBinAddr: 0x10001CF40, symSize: 0x14 }
  - { offsetInCU: 0x3038F, offset: 0x4B6E2, size: 0x8, addend: 0x0, symName: __ZNSt3__19allocatorIdE10deallocateB8ue170006EPdm, symObjAddr: 0x189B8, symBinAddr: 0x10001CF54, symSize: 0x40 }
  - { offsetInCU: 0x303CF, offset: 0x4B722, size: 0x8, addend: 0x0, symName: __ZNKSt3__114__split_bufferIdRNS_9allocatorIdEEE9__end_capB8ue170006Ev, symObjAddr: 0x189F8, symBinAddr: 0x10001CF94, symSize: 0x28 }
  - { offsetInCU: 0x303F3, offset: 0x4B746, size: 0x8, addend: 0x0, symName: __ZNKSt3__117__compressed_pairIPdRNS_9allocatorIdEEE5firstB8ue170006Ev, symObjAddr: 0x18A20, symBinAddr: 0x10001CFBC, symSize: 0x24 }
  - { offsetInCU: 0x30417, offset: 0x4B76A, size: 0x8, addend: 0x0, symName: __ZNSt3__16vectorIdNS_9allocatorIdEEE22__construct_one_at_endB8ue170006IJRKdEEEvDpOT_, symObjAddr: 0x18A44, symBinAddr: 0x10001CFE0, symSize: 0x90 }
  - { offsetInCU: 0x30466, offset: 0x4B7B9, size: 0x8, addend: 0x0, symName: __ZNSt3__16vectorIdNS_9allocatorIdEEE21__push_back_slow_pathIRKdEEvOT_, symObjAddr: 0x18AD4, symBinAddr: 0x10001D070, symSize: 0xD8 }
  - { offsetInCU: 0x304DC, offset: 0x4B82F, size: 0x8, addend: 0x0, symName: __ZNSt3__16vectorIdNS_9allocatorIdEEE21_ConstructTransactionC1B8ue170006ERS3_m, symObjAddr: 0x18BAC, symBinAddr: 0x10001D148, symSize: 0x3C }
  - { offsetInCU: 0x30522, offset: 0x4B875, size: 0x8, addend: 0x0, symName: __ZNSt3__116allocator_traitsINS_9allocatorIdEEE9constructB8ue170006IdJRKdEvEEvRS2_PT_DpOT0_, symObjAddr: 0x18BE8, symBinAddr: 0x10001D184, symSize: 0x34 }
  - { offsetInCU: 0x3057B, offset: 0x4B8CE, size: 0x8, addend: 0x0, symName: __ZNSt3__16vectorIdNS_9allocatorIdEEE21_ConstructTransactionD1B8ue170006Ev, symObjAddr: 0x18C1C, symBinAddr: 0x10001D1B8, symSize: 0x2C }
  - { offsetInCU: 0x305A3, offset: 0x4B8F6, size: 0x8, addend: 0x0, symName: __ZNSt3__16vectorIdNS_9allocatorIdEEE21_ConstructTransactionC2B8ue170006ERS3_m, symObjAddr: 0x18C48, symBinAddr: 0x10001D1E4, symSize: 0x44 }
  - { offsetInCU: 0x305EA, offset: 0x4B93D, size: 0x8, addend: 0x0, symName: __ZNSt3__19allocatorIdE9constructB8ue170006IdJRKdEEEvPT_DpOT0_, symObjAddr: 0x18C8C, symBinAddr: 0x10001D228, symSize: 0x28 }
  - { offsetInCU: 0x30641, offset: 0x4B994, size: 0x8, addend: 0x0, symName: __ZNSt3__16vectorIdNS_9allocatorIdEEE21_ConstructTransactionD2B8ue170006Ev, symObjAddr: 0x18CB4, symBinAddr: 0x10001D250, symSize: 0x20 }
  - { offsetInCU: 0x3066A, offset: 0x4B9BD, size: 0x8, addend: 0x0, symName: __ZNKSt3__16vectorIdNS_9allocatorIdEEE11__recommendB8ue170006Em, symObjAddr: 0x18CD4, symBinAddr: 0x10001D270, symSize: 0xB4 }
  - { offsetInCU: 0x306BE, offset: 0x4BA11, size: 0x8, addend: 0x0, symName: __ZNKSt3__111__wrap_iterIPdE4baseB8ue170006Ev, symObjAddr: 0x19648, symBinAddr: 0x10001DBE4, symSize: 0x18 }
  - { offsetInCU: 0x306E3, offset: 0x4BA36, size: 0x8, addend: 0x0, symName: __ZNSt3__111__wrap_iterIPdEmmB8ue170006Ev, symObjAddr: 0x196A8, symBinAddr: 0x10001DC44, symSize: 0x20 }
  - { offsetInCU: 0x30708, offset: 0x4BA5B, size: 0x8, addend: 0x0, symName: __ZNSt3__18_IterOpsINS_17_ClassicAlgPolicyEE9iter_swapB8ue170006IRNS_11__wrap_iterIPdEES7_EEvOT_OT0_, symObjAddr: 0x196C8, symBinAddr: 0x10001DC64, symSize: 0x44 }
  - { offsetInCU: 0x30754, offset: 0x4BAA7, size: 0x8, addend: 0x0, symName: __ZNKSt3__110__identityclB8ue170006IRdEEOT_S4_, symObjAddr: 0x19D14, symBinAddr: 0x10001E2B0, symSize: 0x18 }
  - { offsetInCU: 0x30790, offset: 0x4BAE3, size: 0x8, addend: 0x0, symName: __ZNSt3__16vectorIdNS_9allocatorIdEEE11__make_iterB8ue170006EPd, symObjAddr: 0x19D2C, symBinAddr: 0x10001E2C8, symSize: 0x30 }
  - { offsetInCU: 0x307C3, offset: 0x4BB16, size: 0x8, addend: 0x0, symName: __ZNSt3__111__wrap_iterIPdEC1B8ue170006ES1_, symObjAddr: 0x19D5C, symBinAddr: 0x10001E2F8, symSize: 0x34 }
  - { offsetInCU: 0x307F9, offset: 0x4BB4C, size: 0x8, addend: 0x0, symName: __ZNSt3__111__wrap_iterIPdEC2B8ue170006ES1_, symObjAddr: 0x19D90, symBinAddr: 0x10001E32C, symSize: 0x20 }
  - { offsetInCU: 0x30830, offset: 0x4BB83, size: 0x8, addend: 0x0, symName: __ZNSt3__111__wrap_iterIPdEpLB8ue170006El, symObjAddr: 0x19DB0, symBinAddr: 0x10001E34C, symSize: 0x28 }
  - { offsetInCU: 0x30863, offset: 0x4BBB6, size: 0x8, addend: 0x0, symName: __ZNSt3__16vectorI3RowNS_9allocatorIS1_EEE17__destruct_at_endB8ue170006EPS1_, symObjAddr: 0x19E54, symBinAddr: 0x10001E3F0, symSize: 0x4C }
  - { offsetInCU: 0x308A5, offset: 0x4BBF8, size: 0x8, addend: 0x0, symName: __ZNKSt3__111__wrap_iterIPK3RowE4baseB8ue170006Ev, symObjAddr: 0x19F28, symBinAddr: 0x10001E4C4, symSize: 0x18 }
  - { offsetInCU: 0x308CA, offset: 0x4BC1D, size: 0x8, addend: 0x0, symName: __ZNSt3__16vectorI3RowNS_9allocatorIS1_EEE22__base_destruct_at_endB8ue170006EPS1_, symObjAddr: 0x19F88, symBinAddr: 0x10001E524, symSize: 0x8C }
  - { offsetInCU: 0x3090C, offset: 0x4BC5F, size: 0x8, addend: 0x0, symName: __ZNKSt3__16vectorI3RowNS_9allocatorIS1_EEE17__annotate_shrinkB8ue170006Em, symObjAddr: 0x1A014, symBinAddr: 0x10001E5B0, symSize: 0xD0 }
  - { offsetInCU: 0x30958, offset: 0x4BCAB, size: 0x8, addend: 0x0, symName: __ZNKSt3__111__move_loopINS_17_ClassicAlgPolicyEEclB8ue170006IP3RowS5_S5_EENS_4pairIT_T1_EES7_T0_S8_, symObjAddr: 0x1A280, symBinAddr: 0x10001E81C, symSize: 0x90 }
  - { offsetInCU: 0x309C1, offset: 0x4BD14, size: 0x8, addend: 0x0, symName: __ZNSt3__18_IterOpsINS_17_ClassicAlgPolicyEE11__iter_moveB8ue170006IRP3RowEENS_9enable_ifIXsr12is_referenceIDTdeclsr3stdE7declvalIRT_EEEEE5valueEDTclsr3stdE4movedeclsr3stdE7declvalIS9_EEEEE4typeEOS8_, symObjAddr: 0x1A3D4, symBinAddr: 0x10001E970, symSize: 0x28 }
  - { offsetInCU: 0x309EC, offset: 0x4BD3F, size: 0x8, addend: 0x0, symName: __ZN3RowaSEOS_, symObjAddr: 0x1A3FC, symBinAddr: 0x10001E998, symSize: 0x74 }
  - { offsetInCU: 0x30A1C, offset: 0x4BD6F, size: 0x8, addend: 0x0, symName: __ZNSt3__18_IterOpsINS_17_ClassicAlgPolicyEE25__validate_iter_referenceB8ue170006IRP3RowEEvv, symObjAddr: 0x1A470, symBinAddr: 0x10001EA0C, symSize: 0x4 }
  - { offsetInCU: 0x30A3A, offset: 0x4BD8D, size: 0x8, addend: 0x0, symName: __ZNSt3__118__unwrap_iter_implIP3RowLb1EE8__unwrapB8ue170006ES2_, symObjAddr: 0x1A474, symBinAddr: 0x10001EA10, symSize: 0x24 }
  - { offsetInCU: 0x30A61, offset: 0x4BDB4, size: 0x8, addend: 0x0, symName: __ZNSt3__14pairIP3RowS2_EC1B8ue170006IS2_S2_LPv0EEEOT_OT0_, symObjAddr: 0x1A498, symBinAddr: 0x10001EA34, symSize: 0x3C }
  - { offsetInCU: 0x30ABE, offset: 0x4BE11, size: 0x8, addend: 0x0, symName: __ZNSt3__14pairIP3RowS2_EC2B8ue170006IS2_S2_LPv0EEEOT_OT0_, symObjAddr: 0x1A4D4, symBinAddr: 0x10001EA70, symSize: 0x34 }
  - { offsetInCU: 0x30B1C, offset: 0x4BE6F, size: 0x8, addend: 0x0, symName: __ZNSt3__118__unwrap_iter_implIP3RowLb1EE8__rewrapB8ue170006ES2_S2_, symObjAddr: 0x1A508, symBinAddr: 0x10001EAA4, symSize: 0x58 }
  - { offsetInCU: 0x30B56, offset: 0x4BEA9, size: 0x8, addend: 0x0, symName: '__ZZL17process_and_writeRNSt3__16vectorI3RowNS_9allocatorIS1_EEEERK4ArgsR11MungeLoggerENK3$_0clERKS1_', symObjAddr: 0x1A5E0, symBinAddr: 0x10001EB7C, symSize: 0x70 }
  - { offsetInCU: 0x30B8D, offset: 0x4BEE0, size: 0x8, addend: 0x0, symName: __ZNSt3__111__wrap_iterIPK3RowEC2B8ue170006IPS1_EERKNS0_IT_EEPNS_9enable_ifIXsr14is_convertibleIS7_S3_EE5valueEvE4typeE, symObjAddr: 0x1A650, symBinAddr: 0x10001EBEC, symSize: 0x40 }
  - { offsetInCU: 0x30BD7, offset: 0x4BF2A, size: 0x8, addend: 0x0, symName: __ZNSt3__114numeric_limitsIdE8infinityB8ue170006Ev, symObjAddr: 0x1AA64, symBinAddr: 0x10001F000, symSize: 0x14 }
  - { offsetInCU: 0x30BEA, offset: 0x4BF3D, size: 0x8, addend: 0x0, symName: __Z4sqrtB8ue170006IiENSt3__19enable_ifIXsr3std11is_integralIT_EE5valueEdE4typeES2_, symObjAddr: 0x1AA78, symBinAddr: 0x10001F014, symSize: 0x24 }
  - { offsetInCU: 0x30C23, offset: 0x4BF76, size: 0x8, addend: 0x0, symName: __ZNSt3__123__libcpp_numeric_limitsIdLb1EE8infinityB8ue170006Ev, symObjAddr: 0x1AA9C, symBinAddr: 0x10001F038, symSize: 0xC }
  - { offsetInCU: 0x30C37, offset: 0x4BF8A, size: 0x8, addend: 0x0, symName: __ZNSt3__18ios_base9precisionB8ue170006El, symObjAddr: 0x1AAA8, symBinAddr: 0x10001F044, symSize: 0x2C }
  - { offsetInCU: 0x30C7C, offset: 0x4BFCF, size: 0x8, addend: 0x0, symName: __ZNSt3__18__iom_t5C1B8ue170006Ei, symObjAddr: 0x1AAD4, symBinAddr: 0x10001F070, symSize: 0x34 }
  - { offsetInCU: 0x30CB2, offset: 0x4C005, size: 0x8, addend: 0x0, symName: __ZNSt3__18__iom_t5C2B8ue170006Ei, symObjAddr: 0x1AB08, symBinAddr: 0x10001F0A4, symSize: 0x20 }
  - { offsetInCU: 0x30CE9, offset: 0x4C03C, size: 0x8, addend: 0x0, symName: __ZNSt3__16vectorIdNS_9allocatorIdEEEC2ERKS3_, symObjAddr: 0x1AB28, symBinAddr: 0x10001F0C4, symSize: 0x94 }
  - { offsetInCU: 0x30D22, offset: 0x4C075, size: 0x8, addend: 0x0, symName: __ZNSt3__116allocator_traitsINS_9allocatorIdEEE37select_on_container_copy_constructionB8ue170006IS2_vvEES2_RKS2_, symObjAddr: 0x1ABBC, symBinAddr: 0x10001F158, symSize: 0x10 }
  - { offsetInCU: 0x30D58, offset: 0x4C0AB, size: 0x8, addend: 0x0, symName: __ZNSt3__117__compressed_pairIPdNS_9allocatorIdEEEC1B8ue170006IDnS3_EEOT_OT0_, symObjAddr: 0x1ABCC, symBinAddr: 0x10001F168, symSize: 0x3C }
  - { offsetInCU: 0x30DAE, offset: 0x4C101, size: 0x8, addend: 0x0, symName: __ZNSt3__16vectorIdNS_9allocatorIdEEE16__init_with_sizeB8ue170006IPdS5_EEvT_T0_m, symObjAddr: 0x1AC08, symBinAddr: 0x10001F1A4, symSize: 0xB8 }
  - { offsetInCU: 0x30E20, offset: 0x4C173, size: 0x8, addend: 0x0, symName: __ZNSt3__117__compressed_pairIPdNS_9allocatorIdEEEC2B8ue170006IDnS3_EEOT_OT0_, symObjAddr: 0x1ACC0, symBinAddr: 0x10001F25C, symSize: 0x44 }
  - { offsetInCU: 0x30E76, offset: 0x4C1C9, size: 0x8, addend: 0x0, symName: __ZNSt3__122__compressed_pair_elemINS_9allocatorIdEELi1ELb1EEC2B8ue170006IS2_vEEOT_, symObjAddr: 0x1AD04, symBinAddr: 0x10001F2A0, symSize: 0x18 }
  - { offsetInCU: 0x30EB8, offset: 0x4C20B, size: 0x8, addend: 0x0, symName: __ZNSt3__16vectorIdNS_9allocatorIdEEE16__destroy_vectorC1B8ue170006ERS3_, symObjAddr: 0x1AD5C, symBinAddr: 0x10001F2F8, symSize: 0x34 }
  - { offsetInCU: 0x30EEF, offset: 0x4C242, size: 0x8, addend: 0x0, symName: __ZNSt3__16vectorIdNS_9allocatorIdEEE11__vallocateB8ue170006Em, symObjAddr: 0x1AD90, symBinAddr: 0x10001F32C, symSize: 0xAC }
  - { offsetInCU: 0x30F31, offset: 0x4C284, size: 0x8, addend: 0x0, symName: __ZNSt3__16vectorIdNS_9allocatorIdEEE18__construct_at_endIPdS5_EEvT_T0_m, symObjAddr: 0x1AE3C, symBinAddr: 0x10001F3D8, symSize: 0x8C }
  - { offsetInCU: 0x30FA6, offset: 0x4C2F9, size: 0x8, addend: 0x0, symName: __ZNSt3__128__exception_guard_exceptionsINS_6vectorIdNS_9allocatorIdEEE16__destroy_vectorEE10__completeB8ue170006Ev, symObjAddr: 0x1AEC8, symBinAddr: 0x10001F464, symSize: 0x1C }
  - { offsetInCU: 0x30FCB, offset: 0x4C31E, size: 0x8, addend: 0x0, symName: __ZNSt3__128__exception_guard_exceptionsINS_6vectorIdNS_9allocatorIdEEE16__destroy_vectorEED1B8ue170006Ev, symObjAddr: 0x1AEE4, symBinAddr: 0x10001F480, symSize: 0x2C }
  - { offsetInCU: 0x30FF3, offset: 0x4C346, size: 0x8, addend: 0x0, symName: __ZNSt3__128__exception_guard_exceptionsINS_6vectorIdNS_9allocatorIdEEE16__destroy_vectorEEC1B8ue170006ES5_, symObjAddr: 0x1AF10, symBinAddr: 0x10001F4AC, symSize: 0x34 }
  - { offsetInCU: 0x31029, offset: 0x4C37C, size: 0x8, addend: 0x0, symName: __ZNSt3__128__exception_guard_exceptionsINS_6vectorIdNS_9allocatorIdEEE16__destroy_vectorEEC2B8ue170006ES5_, symObjAddr: 0x1AF44, symBinAddr: 0x10001F4E0, symSize: 0x24 }
  - { offsetInCU: 0x31060, offset: 0x4C3B3, size: 0x8, addend: 0x0, symName: __ZNSt3__16vectorIdNS_9allocatorIdEEE16__destroy_vectorC2B8ue170006ERS3_, symObjAddr: 0x1AF68, symBinAddr: 0x10001F504, symSize: 0x20 }
  - { offsetInCU: 0x310B6, offset: 0x4C409, size: 0x8, addend: 0x0, symName: __ZNSt3__14pairIPdS1_EC1B8ue170006IS1_S1_LPv0EEEOT_OT0_, symObjAddr: 0x1B138, symBinAddr: 0x10001F6D4, symSize: 0x3C }
  - { offsetInCU: 0x31113, offset: 0x4C466, size: 0x8, addend: 0x0, symName: __ZNSt3__14pairIPdS1_EC2B8ue170006IS1_S1_LPv0EEEOT_OT0_, symObjAddr: 0x1B174, symBinAddr: 0x10001F710, symSize: 0x34 }
  - { offsetInCU: 0x3117B, offset: 0x4C4CE, size: 0x8, addend: 0x0, symName: __ZNKSt3__114__copy_trivialclB8ue170006IddLi0EEENS_4pairIPT_PT0_EES4_S4_S6_, symObjAddr: 0x1B324, symBinAddr: 0x10001F8C0, symSize: 0x48 }
  - { offsetInCU: 0x311E2, offset: 0x4C535, size: 0x8, addend: 0x0, symName: __ZNSt3__14pairIPdS1_EC1B8ue170006IRS1_S1_LPv0EEEOT_OT0_, symObjAddr: 0x1B4B4, symBinAddr: 0x10001FA50, symSize: 0x3C }
  - { offsetInCU: 0x3123F, offset: 0x4C592, size: 0x8, addend: 0x0, symName: __ZNSt3__14pairIPdS1_EC2B8ue170006IRS1_S1_LPv0EEEOT_OT0_, symObjAddr: 0x1B4F0, symBinAddr: 0x10001FA8C, symSize: 0x34 }
  - { offsetInCU: 0x3129D, offset: 0x4C5F0, size: 0x8, addend: 0x0, symName: __ZNSt3__118__unwrap_iter_implIPdLb1EE8__unwrapB8ue170006ES1_, symObjAddr: 0x1B524, symBinAddr: 0x10001FAC0, symSize: 0x24 }
  - { offsetInCU: 0x312BF, offset: 0x4C612, size: 0x8, addend: 0x0, symName: __ZNSt3__118__unwrap_iter_implIPdLb1EE8__rewrapB8ue170006ES1_S1_, symObjAddr: 0x1B548, symBinAddr: 0x10001FAE4, symSize: 0x50 }
  - { offsetInCU: 0x312EF, offset: 0x4C642, size: 0x8, addend: 0x0, symName: __ZNSt3__128__exception_guard_exceptionsINS_6vectorIdNS_9allocatorIdEEE16__destroy_vectorEED2B8ue170006Ev, symObjAddr: 0x1B598, symBinAddr: 0x10001FB34, symSize: 0x50 }
  - { offsetInCU: 0x31317, offset: 0x4C66A, size: 0x8, addend: 0x0, symName: __ZNSt3__16vectorIdNS_9allocatorIdEEE16__destroy_vectorclB8ue170006Ev, symObjAddr: 0x1B5E8, symBinAddr: 0x10001FB84, symSize: 0x90 }
  - { offsetInCU: 0x3133B, offset: 0x4C68E, size: 0x8, addend: 0x0, symName: __ZNSt3__16vectorIdNS_9allocatorIdEEE7__clearB8ue170006Ev, symObjAddr: 0x1B678, symBinAddr: 0x10001FC14, symSize: 0x28 }
  - { offsetInCU: 0x3135F, offset: 0x4C6B2, size: 0x8, addend: 0x0, symName: __ZNSt3__16vectorIdNS_9allocatorIdEEE22__base_destruct_at_endB8ue170006EPd, symObjAddr: 0x1B6A0, symBinAddr: 0x10001FC3C, symSize: 0x8C }
  - { offsetInCU: 0x313A1, offset: 0x4C6F4, size: 0x8, addend: 0x0, symName: __ZNSt3__18ios_base4setfB8ue170006Ejj, symObjAddr: 0x1B72C, symBinAddr: 0x10001FCC8, symSize: 0x5C }
  - { offsetInCU: 0x313F5, offset: 0x4C748, size: 0x8, addend: 0x0, symName: __ZNSt3__18ios_base6unsetfB8ue170006Ej, symObjAddr: 0x1B788, symBinAddr: 0x10001FD24, symSize: 0x28 }
  - { offsetInCU: 0x31435, offset: 0x4C788, size: 0x8, addend: 0x0, symName: '__ZZL17process_and_writeRNSt3__16vectorI3RowNS_9allocatorIS1_EEEERK4ArgsR11MungeLoggerENK3$_1clEd', symObjAddr: 0x1B8B0, symBinAddr: 0x10001FE4C, symSize: 0x2C }
  - { offsetInCU: 0x3146D, offset: 0x4C7C0, size: 0x8, addend: 0x0, symName: __ZNSt3__16vectorIdNS_9allocatorIdEEED2B8ue170006Ev, symObjAddr: 0x1B8DC, symBinAddr: 0x10001FE78, symSize: 0x40 }
  - { offsetInCU: 0x31495, offset: 0x4C7E8, size: 0x8, addend: 0x0, symName: __ZN11MungeLoggerD2Ev, symObjAddr: 0x1B91C, symBinAddr: 0x10001FEB8, symSize: 0x2C }
  - { offsetInCU: 0x314BF, offset: 0x4C812, size: 0x8, addend: 0x0, symName: __ZN4ArgsD2Ev, symObjAddr: 0x1B948, symBinAddr: 0x10001FEE4, symSize: 0xC8 }
  - { offsetInCU: 0x314E9, offset: 0x4C83C, size: 0x8, addend: 0x0, symName: __ZNSt3__16vectorI3RowNS_9allocatorIS1_EEED2B8ue170006Ev, symObjAddr: 0x1BA10, symBinAddr: 0x10001FFAC, symSize: 0x44 }
  - { offsetInCU: 0x31511, offset: 0x4C864, size: 0x8, addend: 0x0, symName: __ZNSt3__16vectorI3RowNS_9allocatorIS1_EEE16__destroy_vectorC1B8ue170006ERS4_, symObjAddr: 0x1BA54, symBinAddr: 0x10001FFF0, symSize: 0x34 }
  - { offsetInCU: 0x31548, offset: 0x4C89B, size: 0x8, addend: 0x0, symName: __ZNSt3__16vectorI3RowNS_9allocatorIS1_EEE16__destroy_vectorclB8ue170006Ev, symObjAddr: 0x1BA88, symBinAddr: 0x100020024, symSize: 0x90 }
  - { offsetInCU: 0x3156C, offset: 0x4C8BF, size: 0x8, addend: 0x0, symName: __ZNSt3__16vectorI3RowNS_9allocatorIS1_EEE16__destroy_vectorC2B8ue170006ERS4_, symObjAddr: 0x1BB18, symBinAddr: 0x1000200B4, symSize: 0x20 }
  - { offsetInCU: 0x315A4, offset: 0x4C8F7, size: 0x8, addend: 0x0, symName: __ZNSt3__16vectorI3RowNS_9allocatorIS1_EEE7__clearB8ue170006Ev, symObjAddr: 0x1BB38, symBinAddr: 0x1000200D4, symSize: 0x28 }
  - { offsetInCU: 0x315C8, offset: 0x4C91B, size: 0x8, addend: 0x0, symName: __ZNSt3__115basic_stringbufIcNS_11char_traitsIcEENS_9allocatorIcEEEC1B8ue170006Ej, symObjAddr: 0x1BB60, symBinAddr: 0x1000200FC, symSize: 0x34 }
  - { offsetInCU: 0x315FF, offset: 0x4C952, size: 0x8, addend: 0x0, symName: __ZNSt3__115basic_stringbufIcNS_11char_traitsIcEENS_9allocatorIcEEEC2B8ue170006Ej, symObjAddr: 0x1BB94, symBinAddr: 0x100020130, symSize: 0x60 }
  - { offsetInCU: 0x31636, offset: 0x4C989, size: 0x8, addend: 0x0, symName: __ZNSt3__116allocator_traitsINS_9allocatorIcEEE37select_on_container_copy_constructionB8ue170006IS2_vvEES2_RKS2_, symObjAddr: 0x1BBF4, symBinAddr: 0x100020190, symSize: 0x10 }
  - { offsetInCU: 0x31667, offset: 0x4C9BA, size: 0x8, addend: 0x0, symName: __ZNSt3__112basic_stringIcNS_11char_traitsIcEENS_9allocatorIcEEEC1B8ue170006ENS_24__uninitialized_size_tagEmRKS4_, symObjAddr: 0x1BC04, symBinAddr: 0x1000201A0, symSize: 0x3C }
  - { offsetInCU: 0x316B9, offset: 0x4CA0C, size: 0x8, addend: 0x0, symName: __ZNSt3__111char_traitsIcE4copyB8ue170006EPcPKcm, symObjAddr: 0x1BC40, symBinAddr: 0x1000201DC, symSize: 0x40 }
  - { offsetInCU: 0x316F7, offset: 0x4CA4A, size: 0x8, addend: 0x0, symName: __ZNSt3__111char_traitsIcE6assignB8ue170006EPcmc, symObjAddr: 0x1BC80, symBinAddr: 0x10002021C, symSize: 0x44 }
  - { offsetInCU: 0x31735, offset: 0x4CA88, size: 0x8, addend: 0x0, symName: __ZNSt3__112basic_stringIcNS_11char_traitsIcEENS_9allocatorIcEEEC2B8ue170006ENS_24__uninitialized_size_tagEmRKS4_, symObjAddr: 0x1BCC4, symBinAddr: 0x100020260, symSize: 0x110 }
  - { offsetInCU: 0x317B4, offset: 0x4CB07, size: 0x8, addend: 0x0, symName: __ZNKSt3__112basic_stringIcNS_11char_traitsIcEENS_9allocatorIcEEE20__throw_length_errorB8ue170006Ev, symObjAddr: 0x1BDD4, symBinAddr: 0x100020370, symSize: 0x1C }
  - { offsetInCU: 0x317D8, offset: 0x4CB2B, size: 0x8, addend: 0x0, symName: __ZNSt3__112basic_stringIcNS_11char_traitsIcEENS_9allocatorIcEEE13__fits_in_ssoB8ue170006Em, symObjAddr: 0x1BDF0, symBinAddr: 0x10002038C, symSize: 0x20 }
  - { offsetInCU: 0x317FC, offset: 0x4CB4F, size: 0x8, addend: 0x0, symName: __ZNSt3__112basic_stringIcNS_11char_traitsIcEENS_9allocatorIcEEE11__recommendB8ue170006Em, symObjAddr: 0x1BE10, symBinAddr: 0x1000203AC, symSize: 0x84 }
  - { offsetInCU: 0x3182E, offset: 0x4CB81, size: 0x8, addend: 0x0, symName: __ZNSt3__116allocator_traitsINS_9allocatorIcEEE8allocateB8ue170006ERS2_m, symObjAddr: 0x1BE94, symBinAddr: 0x100020430, symSize: 0x2C }
  - { offsetInCU: 0x31860, offset: 0x4CBB3, size: 0x8, addend: 0x0, symName: __ZNSt3__112basic_stringIcNS_11char_traitsIcEENS_9allocatorIcEEE16__begin_lifetimeB8ue170006EPcm, symObjAddr: 0x1BEC0, symBinAddr: 0x10002045C, symSize: 0x14 }
  - { offsetInCU: 0x31893, offset: 0x4CBE6, size: 0x8, addend: 0x0, symName: __ZNSt3__112basic_stringIcNS_11char_traitsIcEENS_9allocatorIcEEE14__set_long_capB8ue170006Em, symObjAddr: 0x1BED4, symBinAddr: 0x100020470, symSize: 0x70 }
  - { offsetInCU: 0x318C6, offset: 0x4CC19, size: 0x8, addend: 0x0, symName: __ZNSt3__112basic_stringIcNS_11char_traitsIcEENS_9allocatorIcEEE18__set_long_pointerB8ue170006EPc, symObjAddr: 0x1BF44, symBinAddr: 0x1000204E0, symSize: 0x38 }
  - { offsetInCU: 0x318F9, offset: 0x4CC4C, size: 0x8, addend: 0x0, symName: __ZNSt3__112basic_stringIcNS_11char_traitsIcEENS_9allocatorIcEEE10__align_itB8ue170006ILm16EEEmm, symObjAddr: 0x1BF7C, symBinAddr: 0x100020518, symSize: 0x1C }
  - { offsetInCU: 0x31927, offset: 0x4CC7A, size: 0x8, addend: 0x0, symName: __ZNSt3__19allocatorIcE8allocateB8ue170006Em, symObjAddr: 0x1BF98, symBinAddr: 0x100020534, symSize: 0x58 }
  - { offsetInCU: 0x31972, offset: 0x4CCC5, size: 0x8, addend: 0x0, symName: __ZNKSt3__114__copy_trivialclB8ue170006IKccLi0EEENS_4pairIPT_PT0_EES5_S5_S7_, symObjAddr: 0x1C210, symBinAddr: 0x1000207AC, symSize: 0x48 }
  - { offsetInCU: 0x319F7, offset: 0x4CD4A, size: 0x8, addend: 0x0, symName: __ZNSt3__14pairIPKcS2_EC1B8ue170006IS2_S2_LPv0EEEOT_OT0_, symObjAddr: 0x1C378, symBinAddr: 0x100020914, symSize: 0x3C }
  - { offsetInCU: 0x31A54, offset: 0x4CDA7, size: 0x8, addend: 0x0, symName: __ZNSt3__14pairIPKcS2_EC2B8ue170006IS2_S2_LPv0EEEOT_OT0_, symObjAddr: 0x1C3B4, symBinAddr: 0x100020950, symSize: 0x34 }
  - { offsetInCU: 0x31AB2, offset: 0x4CE05, size: 0x8, addend: 0x0, symName: __ZNSt3__118__unwrap_iter_implIPKcLb1EE8__unwrapB8ue170006ES2_, symObjAddr: 0x1C3E8, symBinAddr: 0x100020984, symSize: 0x24 }
  - { offsetInCU: 0x31ADE, offset: 0x4CE31, size: 0x8, addend: 0x0, symName: __ZNSt3__14pairIPKcPcEC1B8ue170006IRS2_S3_LPv0EEEOT_OT0_, symObjAddr: 0x1C520, symBinAddr: 0x100020ABC, symSize: 0x3C }
  - { offsetInCU: 0x31B3B, offset: 0x4CE8E, size: 0x8, addend: 0x0, symName: __ZNSt3__14pairIPKcPcEC2B8ue170006IRS2_S3_LPv0EEEOT_OT0_, symObjAddr: 0x1C55C, symBinAddr: 0x100020AF8, symSize: 0x34 }
  - { offsetInCU: 0x31B99, offset: 0x4CEEC, size: 0x8, addend: 0x0, symName: __ZNSt3__118__unwrap_iter_implIPcLb1EE8__unwrapB8ue170006ES1_, symObjAddr: 0x1C590, symBinAddr: 0x100020B2C, symSize: 0x24 }
  - { offsetInCU: 0x31BBB, offset: 0x4CF0E, size: 0x8, addend: 0x0, symName: __ZNSt3__14pairIPKcPcEC1B8ue170006IS2_S3_LPv0EEEOT_OT0_, symObjAddr: 0x1C5B4, symBinAddr: 0x100020B50, symSize: 0x3C }
  - { offsetInCU: 0x31C18, offset: 0x4CF6B, size: 0x8, addend: 0x0, symName: __ZNSt3__14pairIPKcPcEC2B8ue170006IS2_S3_LPv0EEEOT_OT0_, symObjAddr: 0x1C5F0, symBinAddr: 0x100020B8C, symSize: 0x34 }
  - { offsetInCU: 0x31C76, offset: 0x4CFC9, size: 0x8, addend: 0x0, symName: __ZNSt3__118__unwrap_iter_implIPKcLb1EE8__rewrapB8ue170006ES2_S2_, symObjAddr: 0x1C660, symBinAddr: 0x100020BFC, symSize: 0x48 }
  - { offsetInCU: 0x31CA6, offset: 0x4CFF9, size: 0x8, addend: 0x0, symName: __ZNSt3__118__unwrap_iter_implIPcLb1EE8__rewrapB8ue170006ES1_S1_, symObjAddr: 0x1C6A8, symBinAddr: 0x100020C44, symSize: 0x48 }
  - { offsetInCU: 0x48B6, offset: 0x51D7B, size: 0x8, addend: 0x0, symName: __ZNSt3__14__fs10filesystem12is_directoryB8ue170006ERKNS1_4pathE, symObjAddr: 0xCDA0, symBinAddr: 0x10002AAC4, symSize: 0x50 }
  - { offsetInCU: 0x48E2, offset: 0x51DA7, size: 0x8, addend: 0x0, symName: __ZNSt3__14__fs10filesystem12is_directoryB8ue170006ENS1_11file_statusE, symObjAddr: 0xEADC, symBinAddr: 0x10002AFF8, symSize: 0x34 }
  - { offsetInCU: 0x10BF0, offset: 0x5E0B5, size: 0x8, addend: 0x0, symName: __ZNSt3__17advanceB8ue170006INS_11__wrap_iterIPNS_12basic_stringIcNS_11char_traitsIcEENS_9allocatorIcEEEEEEllvEEvRT_T0_, symObjAddr: 0x126A4, symBinAddr: 0x10002E5CC, symSize: 0x38 }
  - { offsetInCU: 0x10DC6, offset: 0x5E28B, size: 0x8, addend: 0x0, symName: __ZNSt3__17advanceB8ue170006INS_11__wrap_iterIPdEEllvEEvRT_T0_, symObjAddr: 0x13FE0, symBinAddr: 0x10002FF08, symSize: 0x38 }
  - { offsetInCU: 0x13D69, offset: 0x6122E, size: 0x8, addend: 0x0, symName: __ZNSt3__17advanceB8ue170006IPNS_12basic_stringIcNS_11char_traitsIcEENS_9allocatorIcEEEEllvEEvRT_T0_, symObjAddr: 0x1F000, symBinAddr: 0x1000349B8, symSize: 0x38 }
  - { offsetInCU: 0x13DD6, offset: 0x6129B, size: 0x8, addend: 0x0, symName: __ZNSt3__17advanceB8ue170006IPdllvEEvRT_T0_, symObjAddr: 0x208C8, symBinAddr: 0x100035840, symSize: 0x38 }
  - { offsetInCU: 0x14CE8, offset: 0x621AD, size: 0x8, addend: 0x0, symName: __ZNSt3__110__function10__not_nullB8ue170006IFNS_6vectorIiNS_9allocatorIiEEEERKNS2_INS_12basic_stringIcNS_11char_traitsIcEENS3_IcEEEENS3_ISA_EEEEEEEbPT_, symObjAddr: 0x24984, symBinAddr: 0x100037FE8, symSize: 0x20 }
  - { offsetInCU: 0x16DA6, offset: 0x6426B, size: 0x8, addend: 0x0, symName: __ZNSt3__1neB8ue170006IPKdEEbRKNS_11__wrap_iterIT_EES7_, symObjAddr: 0x6824, symBinAddr: 0x100026BF0, symSize: 0x34 }
  - { offsetInCU: 0x16DE9, offset: 0x642AE, size: 0x8, addend: 0x0, symName: __ZNSt3__1neB8ue170006IPiEEbRKNS_11__wrap_iterIT_EES6_, symObjAddr: 0x6E90, symBinAddr: 0x10002711C, symSize: 0x34 }
  - { offsetInCU: 0x16E2C, offset: 0x642F1, size: 0x8, addend: 0x0, symName: __ZNSt3__13minB8ue170006IiEERKT_S3_S3_, symObjAddr: 0x81C0, symBinAddr: 0x1000281E8, symSize: 0x2C }
  - { offsetInCU: 0x16E6F, offset: 0x64334, size: 0x8, addend: 0x0, symName: __ZNSt3__111__str_rfindB8ue170006IcmNS_11char_traitsIcEELm18446744073709551615EEET0_PKT_S3_S6_S3_S3_, symObjAddr: 0x9A58, symBinAddr: 0x1000290D8, symSize: 0x128 }
  - { offsetInCU: 0x16F16, offset: 0x643DB, size: 0x8, addend: 0x0, symName: __ZNSt3__118__find_end_classicB8ue170006IPKcS2_DoFbccEEET_S4_S4_T0_S5_RT1_, symObjAddr: 0x9BD4, symBinAddr: 0x100029200, symSize: 0x64 }
  - { offsetInCU: 0x1707D, offset: 0x64542, size: 0x8, addend: 0x0, symName: __ZNSt3__115__find_end_implB8ue170006INS_17_ClassicAlgPolicyEPKcS3_S3_S3_DoFbccENS_10__identityES5_EENS_4pairIT0_S7_EES7_T1_T2_T3_RT4_RT5_RT6_NS_20forward_iterator_tagESI_, symObjAddr: 0x9CE8, symBinAddr: 0x100029264, symSize: 0x1F4 }
  - { offsetInCU: 0x173C3, offset: 0x64888, size: 0x8, addend: 0x0, symName: __ZNSt3__18__invokeB8ue170006IRDoFbccEJRKcS4_EEEDTclclsr3stdE7declvalIT_EEspclsr3stdE7declvalIT0_EEEEOS5_DpOS6_, symObjAddr: 0x9F30, symBinAddr: 0x1000294AC, symSize: 0x40 }
  - { offsetInCU: 0x1742B, offset: 0x648F0, size: 0x8, addend: 0x0, symName: __ZNSt3__18__invokeB8ue170006IRNS_10__identityEJRKcEEEDTclclsr3stdE7declvalIT_EEspclsr3stdE7declvalIT0_EEEEOS5_DpOS6_, symObjAddr: 0x9F70, symBinAddr: 0x1000294EC, symSize: 0x2C }
  - { offsetInCU: 0x17603, offset: 0x64AC8, size: 0x8, addend: 0x0, symName: __ZNSt3__1neB8ue170006IPNS_12basic_stringIcNS_11char_traitsIcEENS_9allocatorIcEEEEEEbRKNS_11__wrap_iterIT_EESC_, symObjAddr: 0xC25C, symBinAddr: 0x100029F80, symSize: 0x34 }
  - { offsetInCU: 0x17646, offset: 0x64B0B, size: 0x8, addend: 0x0, symName: __ZNSt3__1neB8ue170006INS_12basic_stringIcNS_11char_traitsIcEENS_9allocatorIcEEEENS4_IS6_EEEEbRKNS_6vectorIT_T0_EESD_, symObjAddr: 0xCA40, symBinAddr: 0x10002A764, symSize: 0x34 }
  - { offsetInCU: 0x17695, offset: 0x64B5A, size: 0x8, addend: 0x0, symName: __ZNSt3__110__str_findB8ue170006IcmNS_11char_traitsIcEELm18446744073709551615EEET0_PKT_S3_S6_S3_S3_, symObjAddr: 0xCE58, symBinAddr: 0x10002AB7C, symSize: 0xE4 }
  - { offsetInCU: 0x1773C, offset: 0x64C01, size: 0x8, addend: 0x0, symName: __ZNSt3__118__search_substringB8ue170006IcNS_11char_traitsIcEEEEPKT_S5_S5_S5_S5_, symObjAddr: 0xCF3C, symBinAddr: 0x10002AC60, symSize: 0x154 }
  - { offsetInCU: 0x177D6, offset: 0x64C9B, size: 0x8, addend: 0x0, symName: __ZNSt3__118__constexpr_memchrB8ue170006IKccEEPT_S3_T0_m, symObjAddr: 0xD134, symBinAddr: 0x10002AE24, symSize: 0x40 }
  - { offsetInCU: 0x1784D, offset: 0x64D12, size: 0x8, addend: 0x0, symName: __ZNSt3__18distanceB8ue170006IPKcEENS_15iterator_traitsIT_E15difference_typeES4_S4_, symObjAddr: 0xEEE8, symBinAddr: 0x10002B404, symSize: 0x2C }
  - { offsetInCU: 0x17890, offset: 0x64D55, size: 0x8, addend: 0x0, symName: __ZNSt3__110__distanceB8ue170006IPKcEENS_15iterator_traitsIT_E15difference_typeES4_S4_NS_26random_access_iterator_tagE, symObjAddr: 0xF08C, symBinAddr: 0x10002B5A8, symSize: 0x20 }
  - { offsetInCU: 0x178DE, offset: 0x64DA3, size: 0x8, addend: 0x0, symName: __ZNSt3__121__is_pointer_in_rangeB8ue170006IccLi0EEEbPKT_S3_PKT0_, symObjAddr: 0xF0AC, symBinAddr: 0x10002B5C8, symSize: 0x68 }
  - { offsetInCU: 0x1793F, offset: 0x64E04, size: 0x8, addend: 0x0, symName: __ZNSt3__119__allocate_at_leastB8ue170006INS_9allocatorIcEEEENS_19__allocation_resultINS_16allocator_traitsIT_E7pointerEEERS5_m, symObjAddr: 0xF400, symBinAddr: 0x10002B84C, symSize: 0x40 }
  - { offsetInCU: 0x17982, offset: 0x64E47, size: 0x8, addend: 0x0, symName: __ZNSt3__1eqB8ue170006IPNS_12basic_stringIcNS_11char_traitsIcEENS_9allocatorIcEEEEEEbRKNS_11__wrap_iterIT_EESC_, symObjAddr: 0xF6C8, symBinAddr: 0x10002B960, symSize: 0x48 }
  - { offsetInCU: 0x179C6, offset: 0x64E8B, size: 0x8, addend: 0x0, symName: __ZNSt3__125__throw_bad_function_callB8ue170006Ev, symObjAddr: 0xFA90, symBinAddr: 0x10002BBE0, symSize: 0x38 }
  - { offsetInCU: 0x17A17, offset: 0x64EDC, size: 0x8, addend: 0x0, symName: __ZNSt3__112__to_addressB8ue170006INS_6vectorIdNS_9allocatorIdEEEEEEPT_S6_, symObjAddr: 0x101D8, symBinAddr: 0x10002C328, symSize: 0x14 }
  - { offsetInCU: 0x17A4C, offset: 0x64F11, size: 0x8, addend: 0x0, symName: __ZNSt3__119__allocate_at_leastB8ue170006INS_9allocatorINS_6vectorIdNS1_IdEEEEEEEENS_19__allocation_resultINS_16allocator_traitsIT_E7pointerEEERS8_m, symObjAddr: 0x105B8, symBinAddr: 0x10002C708, symSize: 0x40 }
  - { offsetInCU: 0x17A8F, offset: 0x64F54, size: 0x8, addend: 0x0, symName: __ZNSt3__142__uninitialized_allocator_move_if_noexceptB8ue170006INS_9allocatorINS_6vectorIdNS1_IdEEEEEENS_16reverse_iteratorIPS4_EES8_S8_EET2_RT_T0_T1_S9_, symObjAddr: 0x10934, symBinAddr: 0x10002CA84, symSize: 0x12C }
  - { offsetInCU: 0x17B2F, offset: 0x64FF4, size: 0x8, addend: 0x0, symName: __ZNSt3__14swapB8ue170006IPNS_6vectorIdNS_9allocatorIdEEEEEENS_9enable_ifIXaasr21is_move_constructibleIT_EE5valuesr18is_move_assignableIS7_EE5valueEvE4typeERS7_SA_, symObjAddr: 0x10AAC, symBinAddr: 0x10002CBFC, symSize: 0x3C }
  - { offsetInCU: 0x17B80, offset: 0x65045, size: 0x8, addend: 0x0, symName: __ZNSt3__122__make_exception_guardB8ue170006INS_29_AllocatorDestroyRangeReverseINS_9allocatorINS_6vectorIdNS2_IdEEEEEENS_16reverse_iteratorIPS5_EEEEEENS_28__exception_guard_exceptionsIT_EESC_, symObjAddr: 0x10BF8, symBinAddr: 0x10002CD48, symSize: 0x4C }
  - { offsetInCU: 0x17BB6, offset: 0x6507B, size: 0x8, addend: 0x0, symName: __ZNSt3__1neB8ue170006IPNS_6vectorIdNS_9allocatorIdEEEES5_EEbRKNS_16reverse_iteratorIT_EERKNS6_IT0_EE, symObjAddr: 0x10C88, symBinAddr: 0x10002CDD8, symSize: 0x48 }
  - { offsetInCU: 0x17C02, offset: 0x650C7, size: 0x8, addend: 0x0, symName: __ZNSt3__112__to_addressB8ue170006INS_16reverse_iteratorIPNS_6vectorIdNS_9allocatorIdEEEEEEvEEu7__decayIDTclsr19__to_address_helperIT_EE6__callclsr3stdE7declvalIRKS8_EEEEESA_, symObjAddr: 0x10D04, symBinAddr: 0x10002CE54, symSize: 0x24 }
  - { offsetInCU: 0x17C63, offset: 0x65128, size: 0x8, addend: 0x0, symName: __ZNSt3__119__allocator_destroyB8ue170006INS_9allocatorINS_6vectorIdNS1_IdEEEEEENS_16reverse_iteratorINS6_IPS4_EEEES9_EEvRT_T0_T1_, symObjAddr: 0x11250, symBinAddr: 0x10002D22C, symSize: 0x70 }
  - { offsetInCU: 0x17CC9, offset: 0x6518E, size: 0x8, addend: 0x0, symName: __ZNSt3__1neB8ue170006INS_16reverse_iteratorIPNS_6vectorIdNS_9allocatorIdEEEEEES7_EEbRKNS1_IT_EERKNS1_IT0_EE, symObjAddr: 0x112FC, symBinAddr: 0x10002D2D8, symSize: 0x60 }
  - { offsetInCU: 0x17D15, offset: 0x651DA, size: 0x8, addend: 0x0, symName: __ZNSt3__112__to_addressB8ue170006INS_16reverse_iteratorINS1_IPNS_6vectorIdNS_9allocatorIdEEEEEEEEvEEu7__decayIDTclsr19__to_address_helperIT_EE6__callclsr3stdE7declvalIRKS9_EEEEESB_, symObjAddr: 0x11388, symBinAddr: 0x10002D364, symSize: 0x24 }
  - { offsetInCU: 0x17D76, offset: 0x6523B, size: 0x8, addend: 0x0, symName: __ZNSt3__1eqB8ue170006INS_12basic_stringIcNS_11char_traitsIcEENS_9allocatorIcEEEENS4_IS6_EEEEbRKNS_6vectorIT_T0_EESD_, symObjAddr: 0x11EA0, symBinAddr: 0x10002DDC8, symSize: 0x9C }
  - { offsetInCU: 0x17DD4, offset: 0x65299, size: 0x8, addend: 0x0, symName: __ZNSt3__15equalB8ue170006INS_11__wrap_iterIPKNS_12basic_stringIcNS_11char_traitsIcEENS_9allocatorIcEEEEEESA_EEbT_SB_T0_, symObjAddr: 0x11F3C, symBinAddr: 0x10002DE64, symSize: 0x50 }
  - { offsetInCU: 0x17E2E, offset: 0x652F3, size: 0x8, addend: 0x0, symName: __ZNSt3__15equalB8ue170006INS_11__wrap_iterIPKNS_12basic_stringIcNS_11char_traitsIcEENS_9allocatorIcEEEEEESA_NS_10__equal_toEEEbT_SC_T0_T1_, symObjAddr: 0x11FEC, symBinAddr: 0x10002DF14, symSize: 0x74 }
  - { offsetInCU: 0x17E9F, offset: 0x65364, size: 0x8, addend: 0x0, symName: __ZNSt3__117__equal_iter_implB8ue170006IPKNS_12basic_stringIcNS_11char_traitsIcEENS_9allocatorIcEEEES8_NS_10__equal_toEEEbT_SA_T0_RT1_, symObjAddr: 0x12060, symBinAddr: 0x10002DF88, symSize: 0xAC }
  - { offsetInCU: 0x17F10, offset: 0x653D5, size: 0x8, addend: 0x0, symName: __ZNSt3__113__unwrap_iterB8ue170006INS_11__wrap_iterIPKNS_12basic_stringIcNS_11char_traitsIcEENS_9allocatorIcEEEEEENS_18__unwrap_iter_implISA_Lb1EEELi0EEEDTclsrT0_8__unwrapclsr3stdE7declvalIT_EEEESE_, symObjAddr: 0x1210C, symBinAddr: 0x10002E034, symSize: 0x2C }
  - { offsetInCU: 0x17FE4, offset: 0x654A9, size: 0x8, addend: 0x0, symName: __ZNSt3__112__to_addressB8ue170006INS_11__wrap_iterIPKNS_12basic_stringIcNS_11char_traitsIcEENS_9allocatorIcEEEEEEvEEu7__decayIDTclsr19__to_address_helperIT_EE6__callclsr3stdE7declvalIRKSB_EEEEESD_, symObjAddr: 0x12194, symBinAddr: 0x10002E0BC, symSize: 0x24 }
  - { offsetInCU: 0x180C1, offset: 0x65586, size: 0x8, addend: 0x0, symName: __ZNSt3__112__to_addressB8ue170006IKNS_12basic_stringIcNS_11char_traitsIcEENS_9allocatorIcEEEEEEPT_S9_, symObjAddr: 0x12214, symBinAddr: 0x10002E13C, symSize: 0x14 }
  - { offsetInCU: 0x180F6, offset: 0x655BB, size: 0x8, addend: 0x0, symName: __ZNSt3__18distanceB8ue170006INS_11__wrap_iterIPNS_12basic_stringIcNS_11char_traitsIcEENS_9allocatorIcEEEEEEEENS_15iterator_traitsIT_E15difference_typeESB_SB_, symObjAddr: 0x125E4, symBinAddr: 0x10002E50C, symSize: 0x3C }
  - { offsetInCU: 0x18139, offset: 0x655FE, size: 0x8, addend: 0x0, symName: __ZNSt3__1miB8ue170006IPKNS_12basic_stringIcNS_11char_traitsIcEENS_9allocatorIcEEEEPS6_EEDTmicldtfp_4baseEcldtfp0_4baseEERKNS_11__wrap_iterIT_EERKNSB_IT0_EE, symObjAddr: 0x12620, symBinAddr: 0x10002E548, symSize: 0x48 }
  - { offsetInCU: 0x18185, offset: 0x6564A, size: 0x8, addend: 0x0, symName: __ZNSt3__14nextB8ue170006INS_11__wrap_iterIPNS_12basic_stringIcNS_11char_traitsIcEENS_9allocatorIcEEEEEEEENS_9enable_ifIXsr29__has_input_iterator_categoryIT_EE5valueESB_E4typeESB_NS_15iterator_traitsISB_E15difference_typeE, symObjAddr: 0x12668, symBinAddr: 0x10002E590, symSize: 0x3C }
  - { offsetInCU: 0x181C8, offset: 0x6568D, size: 0x8, addend: 0x0, symName: __ZNSt3__14copyB8ue170006INS_11__wrap_iterIPNS_12basic_stringIcNS_11char_traitsIcEENS_9allocatorIcEEEEEES8_EET0_T_SB_SA_, symObjAddr: 0x128B4, symBinAddr: 0x10002E7DC, symSize: 0x50 }
  - { offsetInCU: 0x18222, offset: 0x656E7, size: 0x8, addend: 0x0, symName: __ZNSt3__121__convert_to_integralB8ue170006El, symObjAddr: 0x12B20, symBinAddr: 0x10002EA48, symSize: 0x14 }
  - { offsetInCU: 0x1824E, offset: 0x65713, size: 0x8, addend: 0x0, symName: __ZNSt3__19__advanceB8ue170006INS_11__wrap_iterIPNS_12basic_stringIcNS_11char_traitsIcEENS_9allocatorIcEEEEEEEEvRT_NS_15iterator_traitsISA_E15difference_typeENS_26random_access_iterator_tagE, symObjAddr: 0x12B34, symBinAddr: 0x10002EA5C, symSize: 0x2C }
  - { offsetInCU: 0x18299, offset: 0x6575E, size: 0x8, addend: 0x0, symName: __ZNSt3__130__uninitialized_allocator_copyB8ue170006INS_9allocatorINS_12basic_stringIcNS_11char_traitsIcEENS1_IcEEEEEENS_11__wrap_iterIPS6_EESA_S9_EET2_RT_T0_T1_SB_, symObjAddr: 0x12B90, symBinAddr: 0x10002EAB8, symSize: 0x90 }
  - { offsetInCU: 0x18336, offset: 0x657FB, size: 0x8, addend: 0x0, symName: __ZNSt3__114__unwrap_rangeB8ue170006INS_11__wrap_iterIPNS_12basic_stringIcNS_11char_traitsIcEENS_9allocatorIcEEEEEES8_EENS_4pairIT0_SB_EET_SD_, symObjAddr: 0x12C20, symBinAddr: 0x10002EB48, symSize: 0x70 }
  - { offsetInCU: 0x18382, offset: 0x65847, size: 0x8, addend: 0x0, symName: __ZNSt3__135__uninitialized_allocator_copy_implB8ue170006INS_9allocatorINS_12basic_stringIcNS_11char_traitsIcEENS1_IcEEEEEEPS6_S8_S8_EET2_RT_T0_T1_S9_, symObjAddr: 0x12C90, symBinAddr: 0x10002EBB8, symSize: 0xF4 }
  - { offsetInCU: 0x18420, offset: 0x658E5, size: 0x8, addend: 0x0, symName: __ZNSt3__113__unwrap_iterB8ue170006IPNS_12basic_stringIcNS_11char_traitsIcEENS_9allocatorIcEEEENS_18__unwrap_iter_implIS7_Lb1EEELi0EEEDTclsrT0_8__unwrapclsr3stdE7declvalIT_EEEESB_, symObjAddr: 0x12D84, symBinAddr: 0x10002ECAC, symSize: 0x24 }
  - { offsetInCU: 0x18465, offset: 0x6592A, size: 0x8, addend: 0x0, symName: __ZNSt3__113__rewrap_iterB8ue170006IPNS_12basic_stringIcNS_11char_traitsIcEENS_9allocatorIcEEEES7_NS_18__unwrap_iter_implIS7_Lb1EEEEET_SA_T0_, symObjAddr: 0x12DA8, symBinAddr: 0x10002ECD0, symSize: 0x3C }
  - { offsetInCU: 0x184BA, offset: 0x6597F, size: 0x8, addend: 0x0, symName: __ZNSt3__19make_pairB8ue170006IPNS_12basic_stringIcNS_11char_traitsIcEENS_9allocatorIcEEEES7_EENS_4pairINS_18__unwrap_ref_decayIT_E4typeENS9_IT0_E4typeEEEOSA_OSD_, symObjAddr: 0x12DE4, symBinAddr: 0x10002ED0C, symSize: 0x38 }
  - { offsetInCU: 0x18509, offset: 0x659CE, size: 0x8, addend: 0x0, symName: __ZNSt3__113__unwrap_iterB8ue170006INS_11__wrap_iterIPNS_12basic_stringIcNS_11char_traitsIcEENS_9allocatorIcEEEEEENS_18__unwrap_iter_implIS9_Lb1EEELi0EEEDTclsrT0_8__unwrapclsr3stdE7declvalIT_EEEESD_, symObjAddr: 0x12E1C, symBinAddr: 0x10002ED44, symSize: 0x2C }
  - { offsetInCU: 0x18677, offset: 0x65B3C, size: 0x8, addend: 0x0, symName: __ZNSt3__112__to_addressB8ue170006INS_11__wrap_iterIPNS_12basic_stringIcNS_11char_traitsIcEENS_9allocatorIcEEEEEEvEEu7__decayIDTclsr19__to_address_helperIT_EE6__callclsr3stdE7declvalIRKSA_EEEEESC_, symObjAddr: 0x12EE0, symBinAddr: 0x10002EE08, symSize: 0x24 }
  - { offsetInCU: 0x18754, offset: 0x65C19, size: 0x8, addend: 0x0, symName: __ZNSt3__122__make_exception_guardB8ue170006INS_29_AllocatorDestroyRangeReverseINS_9allocatorINS_12basic_stringIcNS_11char_traitsIcEENS2_IcEEEEEEPS7_EEEENS_28__exception_guard_exceptionsIT_EESC_, symObjAddr: 0x12F60, symBinAddr: 0x10002EE88, symSize: 0x4C }
  - { offsetInCU: 0x1878A, offset: 0x65C4F, size: 0x8, addend: 0x0, symName: __ZNSt3__119__allocator_destroyB8ue170006INS_9allocatorINS_12basic_stringIcNS_11char_traitsIcEENS1_IcEEEEEENS_16reverse_iteratorIPS6_EESA_EEvRT_T0_T1_, symObjAddr: 0x131F0, symBinAddr: 0x10002F118, symSize: 0x70 }
  - { offsetInCU: 0x18842, offset: 0x65D07, size: 0x8, addend: 0x0, symName: __ZNSt3__113move_backwardB8ue170006IPNS_12basic_stringIcNS_11char_traitsIcEENS_9allocatorIcEEEES7_EET0_T_S9_S8_, symObjAddr: 0x132DC, symBinAddr: 0x10002F204, symSize: 0x40 }
  - { offsetInCU: 0x1889C, offset: 0x65D61, size: 0x8, addend: 0x0, symName: __ZNSt3__115__move_backwardB8ue170006INS_17_ClassicAlgPolicyEPNS_12basic_stringIcNS_11char_traitsIcEENS_9allocatorIcEEEES8_S8_EENS_4pairIT0_T2_EESA_T1_SB_, symObjAddr: 0x1331C, symBinAddr: 0x10002F244, symSize: 0x44 }
  - { offsetInCU: 0x18908, offset: 0x65DCD, size: 0x8, addend: 0x0, symName: __ZNSt3__123__dispatch_copy_or_moveB8ue170006INS_17_ClassicAlgPolicyENS_20__move_backward_loopIS1_EENS_23__move_backward_trivialEPNS_12basic_stringIcNS_11char_traitsIcEENS_9allocatorIcEEEESB_SB_EENS_4pairIT2_T4_EESD_T3_SE_, symObjAddr: 0x13360, symBinAddr: 0x10002F288, symSize: 0x44 }
  - { offsetInCU: 0x18986, offset: 0x65E4B, size: 0x8, addend: 0x0, symName: __ZNSt3__121__unwrap_and_dispatchB8ue170006INS_10__overloadINS_20__move_backward_loopINS_17_ClassicAlgPolicyEEENS_23__move_backward_trivialEEEPNS_12basic_stringIcNS_11char_traitsIcEENS_9allocatorIcEEEESD_SD_Li0EEENS_4pairIT0_T2_EESF_T1_SG_, symObjAddr: 0x133A4, symBinAddr: 0x10002F2CC, symSize: 0xB4 }
  - { offsetInCU: 0x18A15, offset: 0x65EDA, size: 0x8, addend: 0x0, symName: __ZNSt3__114__unwrap_rangeB8ue170006IPNS_12basic_stringIcNS_11char_traitsIcEENS_9allocatorIcEEEES7_EENS_4pairIT0_S9_EET_SB_, symObjAddr: 0x13458, symBinAddr: 0x10002F380, symSize: 0x60 }
  - { offsetInCU: 0x18AB3, offset: 0x65F78, size: 0x8, addend: 0x0, symName: __ZNSt3__114__rewrap_rangeB8ue170006IPNS_12basic_stringIcNS_11char_traitsIcEENS_9allocatorIcEEEES7_EET_S8_T0_, symObjAddr: 0x1355C, symBinAddr: 0x10002F484, symSize: 0x2C }
  - { offsetInCU: 0x18B24, offset: 0x65FE9, size: 0x8, addend: 0x0, symName: __ZNSt3__16__copyB8ue170006INS_17_ClassicAlgPolicyENS_11__wrap_iterIPNS_12basic_stringIcNS_11char_traitsIcEENS_9allocatorIcEEEEEESA_S9_EENS_4pairIT0_T2_EESC_T1_SD_, symObjAddr: 0x135CC, symBinAddr: 0x10002F4F4, symSize: 0x54 }
  - { offsetInCU: 0x18B90, offset: 0x66055, size: 0x8, addend: 0x0, symName: __ZNSt3__123__dispatch_copy_or_moveB8ue170006INS_17_ClassicAlgPolicyENS_11__copy_loopIS1_EENS_14__copy_trivialENS_11__wrap_iterIPNS_12basic_stringIcNS_11char_traitsIcEENS_9allocatorIcEEEEEESD_SC_EENS_4pairIT2_T4_EESF_T3_SG_, symObjAddr: 0x13620, symBinAddr: 0x10002F548, symSize: 0x54 }
  - { offsetInCU: 0x18C0E, offset: 0x660D3, size: 0x8, addend: 0x0, symName: __ZNSt3__121__unwrap_and_dispatchB8ue170006INS_10__overloadINS_11__copy_loopINS_17_ClassicAlgPolicyEEENS_14__copy_trivialEEENS_11__wrap_iterIPNS_12basic_stringIcNS_11char_traitsIcEENS_9allocatorIcEEEEEESF_SE_Li0EEENS_4pairIT0_T2_EESH_T1_SI_, symObjAddr: 0x13674, symBinAddr: 0x10002F59C, symSize: 0xCC }
  - { offsetInCU: 0x18CEF, offset: 0x661B4, size: 0x8, addend: 0x0, symName: __ZNSt3__19make_pairB8ue170006INS_11__wrap_iterIPNS_12basic_stringIcNS_11char_traitsIcEENS_9allocatorIcEEEEEES8_EENS_4pairINS_18__unwrap_ref_decayIT_E4typeENSB_IT0_E4typeEEEOSC_OSF_, symObjAddr: 0x137C8, symBinAddr: 0x10002F6F0, symSize: 0x38 }
  - { offsetInCU: 0x18D3E, offset: 0x66203, size: 0x8, addend: 0x0, symName: __ZNSt3__114__rewrap_rangeB8ue170006INS_11__wrap_iterIPNS_12basic_stringIcNS_11char_traitsIcEENS_9allocatorIcEEEEEES8_EET_SA_T0_, symObjAddr: 0x13800, symBinAddr: 0x10002F728, symSize: 0x3C }
  - { offsetInCU: 0x18E5F, offset: 0x66324, size: 0x8, addend: 0x0, symName: __ZNSt3__113__rewrap_iterB8ue170006INS_11__wrap_iterIPNS_12basic_stringIcNS_11char_traitsIcEENS_9allocatorIcEEEEEES8_NS_18__unwrap_iter_implIS9_Lb1EEEEET_SC_T0_, symObjAddr: 0x138AC, symBinAddr: 0x10002F7D4, symSize: 0x4C }
  - { offsetInCU: 0x18EB4, offset: 0x66379, size: 0x8, addend: 0x0, symName: __ZNSt3__142__uninitialized_allocator_move_if_noexceptB8ue170006INS_9allocatorINS_12basic_stringIcNS_11char_traitsIcEENS1_IcEEEEEEPS6_S8_S8_EET2_RT_T0_T1_S9_, symObjAddr: 0x13A64, symBinAddr: 0x10002F98C, symSize: 0xF4 }
  - { offsetInCU: 0x18F52, offset: 0x66417, size: 0x8, addend: 0x0, symName: __ZNSt3__110__distanceB8ue170006INS_11__wrap_iterIPNS_12basic_stringIcNS_11char_traitsIcEENS_9allocatorIcEEEEEEEENS_15iterator_traitsIT_E15difference_typeESB_SB_NS_26random_access_iterator_tagE, symObjAddr: 0x13B58, symBinAddr: 0x10002FA80, symSize: 0x30 }
  - { offsetInCU: 0x18FA0, offset: 0x66465, size: 0x8, addend: 0x0, symName: __ZNSt3__1miB8ue170006IPNS_12basic_stringIcNS_11char_traitsIcEENS_9allocatorIcEEEES7_EEDTmicldtfp_4baseEcldtfp0_4baseEERKNS_11__wrap_iterIT_EERKNS9_IT0_EE, symObjAddr: 0x13B88, symBinAddr: 0x10002FAB0, symSize: 0x48 }
  - { offsetInCU: 0x18FEC, offset: 0x664B1, size: 0x8, addend: 0x0, symName: __ZNSt3__18distanceB8ue170006INS_11__wrap_iterIPdEEEENS_15iterator_traitsIT_E15difference_typeES5_S5_, symObjAddr: 0x13F20, symBinAddr: 0x10002FE48, symSize: 0x3C }
  - { offsetInCU: 0x1902F, offset: 0x664F4, size: 0x8, addend: 0x0, symName: __ZNSt3__1miB8ue170006IPKdPdEEDTmicldtfp_4baseEcldtfp0_4baseEERKNS_11__wrap_iterIT_EERKNS5_IT0_EE, symObjAddr: 0x13F5C, symBinAddr: 0x10002FE84, symSize: 0x48 }
  - { offsetInCU: 0x1907B, offset: 0x66540, size: 0x8, addend: 0x0, symName: __ZNSt3__14nextB8ue170006INS_11__wrap_iterIPdEEEENS_9enable_ifIXsr29__has_input_iterator_categoryIT_EE5valueES5_E4typeES5_NS_15iterator_traitsIS5_E15difference_typeE, symObjAddr: 0x13FA4, symBinAddr: 0x10002FECC, symSize: 0x3C }
  - { offsetInCU: 0x190BE, offset: 0x66583, size: 0x8, addend: 0x0, symName: __ZNSt3__14copyB8ue170006INS_11__wrap_iterIPdEES2_EET0_T_S5_S4_, symObjAddr: 0x141E0, symBinAddr: 0x100030108, symSize: 0x50 }
  - { offsetInCU: 0x19118, offset: 0x665DD, size: 0x8, addend: 0x0, symName: __ZNSt3__19__advanceB8ue170006INS_11__wrap_iterIPdEEEEvRT_NS_15iterator_traitsIS4_E15difference_typeENS_26random_access_iterator_tagE, symObjAddr: 0x145D0, symBinAddr: 0x10003038C, symSize: 0x2C }
  - { offsetInCU: 0x19163, offset: 0x66628, size: 0x8, addend: 0x0, symName: __ZNSt3__130__uninitialized_allocator_copyB8ue170006INS_9allocatorIdEENS_11__wrap_iterIPdEES5_S4_EET2_RT_T0_T1_S6_, symObjAddr: 0x14660, symBinAddr: 0x1000303B8, symSize: 0x90 }
  - { offsetInCU: 0x19200, offset: 0x666C5, size: 0x8, addend: 0x0, symName: __ZNSt3__114__unwrap_rangeB8ue170006INS_11__wrap_iterIPdEES2_EENS_4pairIT0_S5_EET_S7_, symObjAddr: 0x14760, symBinAddr: 0x100030448, symSize: 0x70 }
  - { offsetInCU: 0x1924C, offset: 0x66711, size: 0x8, addend: 0x0, symName: __ZNSt3__113__unwrap_iterB8ue170006INS_11__wrap_iterIPdEENS_18__unwrap_iter_implIS3_Lb1EEELi0EEEDTclsrT0_8__unwrapclsr3stdE7declvalIT_EEEES7_, symObjAddr: 0x148A0, symBinAddr: 0x1000304B8, symSize: 0x2C }
  - { offsetInCU: 0x1941A, offset: 0x668DF, size: 0x8, addend: 0x0, symName: __ZNSt3__112__to_addressB8ue170006INS_11__wrap_iterIPdEEvEEu7__decayIDTclsr19__to_address_helperIT_EE6__callclsr3stdE7declvalIRKS4_EEEEES6_, symObjAddr: 0x14964, symBinAddr: 0x10003050C, symSize: 0x24 }
  - { offsetInCU: 0x195B8, offset: 0x66A7D, size: 0x8, addend: 0x0, symName: __ZNSt3__113move_backwardB8ue170006IPdS1_EET0_T_S3_S2_, symObjAddr: 0x14E9C, symBinAddr: 0x1000305C0, symSize: 0x40 }
  - { offsetInCU: 0x19612, offset: 0x66AD7, size: 0x8, addend: 0x0, symName: __ZNSt3__115__move_backwardB8ue170006INS_17_ClassicAlgPolicyEPdS2_S2_EENS_4pairIT0_T2_EES4_T1_S5_, symObjAddr: 0x14F04, symBinAddr: 0x100030628, symSize: 0x44 }
  - { offsetInCU: 0x1967E, offset: 0x66B43, size: 0x8, addend: 0x0, symName: __ZNSt3__123__dispatch_copy_or_moveB8ue170006INS_17_ClassicAlgPolicyENS_20__move_backward_loopIS1_EENS_23__move_backward_trivialEPdS5_S5_EENS_4pairIT2_T4_EES7_T3_S8_, symObjAddr: 0x14F48, symBinAddr: 0x10003066C, symSize: 0x44 }
  - { offsetInCU: 0x196FC, offset: 0x66BC1, size: 0x8, addend: 0x0, symName: __ZNSt3__121__unwrap_and_dispatchB8ue170006INS_10__overloadINS_20__move_backward_loopINS_17_ClassicAlgPolicyEEENS_23__move_backward_trivialEEEPdS7_S7_Li0EEENS_4pairIT0_T2_EES9_T1_SA_, symObjAddr: 0x14F8C, symBinAddr: 0x1000306B0, symSize: 0xB4 }
  - { offsetInCU: 0x197D2, offset: 0x66C97, size: 0x8, addend: 0x0, symName: __ZNSt3__128__copy_backward_trivial_implB8ue170006IddEENS_4pairIPT_PT0_EES3_S3_S5_, symObjAddr: 0x15088, symBinAddr: 0x1000307AC, symSize: 0x90 }
  - { offsetInCU: 0x1983A, offset: 0x66CFF, size: 0x8, addend: 0x0, symName: __ZNSt3__19make_pairB8ue170006IRPdS2_EENS_4pairINS_18__unwrap_ref_decayIT_E4typeENS4_IT0_E4typeEEEOS5_OS8_, symObjAddr: 0x15118, symBinAddr: 0x10003083C, symSize: 0x38 }
  - { offsetInCU: 0x19889, offset: 0x66D4E, size: 0x8, addend: 0x0, symName: __ZNSt3__16__copyB8ue170006INS_17_ClassicAlgPolicyENS_11__wrap_iterIPdEES4_S3_EENS_4pairIT0_T2_EES6_T1_S7_, symObjAddr: 0x151C0, symBinAddr: 0x1000308E4, symSize: 0x54 }
  - { offsetInCU: 0x198F5, offset: 0x66DBA, size: 0x8, addend: 0x0, symName: __ZNSt3__123__dispatch_copy_or_moveB8ue170006INS_17_ClassicAlgPolicyENS_11__copy_loopIS1_EENS_14__copy_trivialENS_11__wrap_iterIPdEES7_S6_EENS_4pairIT2_T4_EES9_T3_SA_, symObjAddr: 0x15214, symBinAddr: 0x100030938, symSize: 0x54 }
  - { offsetInCU: 0x19973, offset: 0x66E38, size: 0x8, addend: 0x0, symName: __ZNSt3__121__unwrap_and_dispatchB8ue170006INS_10__overloadINS_11__copy_loopINS_17_ClassicAlgPolicyEEENS_14__copy_trivialEEENS_11__wrap_iterIPdEES9_S8_Li0EEENS_4pairIT0_T2_EESB_T1_SC_, symObjAddr: 0x15268, symBinAddr: 0x10003098C, symSize: 0xCC }
  - { offsetInCU: 0x19A02, offset: 0x66EC7, size: 0x8, addend: 0x0, symName: __ZNSt3__19make_pairB8ue170006INS_11__wrap_iterIPdEES2_EENS_4pairINS_18__unwrap_ref_decayIT_E4typeENS5_IT0_E4typeEEEOS6_OS9_, symObjAddr: 0x15334, symBinAddr: 0x100030A58, symSize: 0x38 }
  - { offsetInCU: 0x19A51, offset: 0x66F16, size: 0x8, addend: 0x0, symName: __ZNSt3__114__rewrap_rangeB8ue170006INS_11__wrap_iterIPdEES2_EET_S4_T0_, symObjAddr: 0x1536C, symBinAddr: 0x100030A90, symSize: 0x3C }
  - { offsetInCU: 0x19B72, offset: 0x67037, size: 0x8, addend: 0x0, symName: __ZNSt3__113__rewrap_iterB8ue170006INS_11__wrap_iterIPdEES2_NS_18__unwrap_iter_implIS3_Lb1EEEEET_S6_T0_, symObjAddr: 0x15418, symBinAddr: 0x100030B3C, symSize: 0x4C }
  - { offsetInCU: 0x19BC7, offset: 0x6708C, size: 0x8, addend: 0x0, symName: __ZNSt3__142__uninitialized_allocator_move_if_noexceptB8ue170006INS_9allocatorIdEEPdS3_dvEET1_RT_T0_S7_S4_, symObjAddr: 0x15BDC, symBinAddr: 0x100030D0C, symSize: 0x38 }
  - { offsetInCU: 0x19CD6, offset: 0x6719B, size: 0x8, addend: 0x0, symName: __ZNSt3__14moveB8ue170006IPdS1_EET0_T_S3_S2_, symObjAddr: 0x163C4, symBinAddr: 0x100030D44, symSize: 0x40 }
  - { offsetInCU: 0x19D30, offset: 0x671F5, size: 0x8, addend: 0x0, symName: __ZNSt3__16__moveB8ue170006INS_17_ClassicAlgPolicyEPdS2_S2_EENS_4pairIT0_T2_EES4_T1_S5_, symObjAddr: 0x16404, symBinAddr: 0x100030D84, symSize: 0x44 }
  - { offsetInCU: 0x19D9C, offset: 0x67261, size: 0x8, addend: 0x0, symName: __ZNSt3__123__dispatch_copy_or_moveB8ue170006INS_17_ClassicAlgPolicyENS_11__move_loopIS1_EENS_14__move_trivialEPdS5_S5_EENS_4pairIT2_T4_EES7_T3_S8_, symObjAddr: 0x16448, symBinAddr: 0x100030DC8, symSize: 0x44 }
  - { offsetInCU: 0x19E1A, offset: 0x672DF, size: 0x8, addend: 0x0, symName: __ZNSt3__121__unwrap_and_dispatchB8ue170006INS_10__overloadINS_11__move_loopINS_17_ClassicAlgPolicyEEENS_14__move_trivialEEEPdS7_S7_Li0EEENS_4pairIT0_T2_EES9_T1_SA_, symObjAddr: 0x1648C, symBinAddr: 0x100030E0C, symSize: 0xB4 }
  - { offsetInCU: 0x19EF0, offset: 0x673B5, size: 0x8, addend: 0x0, symName: __ZNSt3__110__distanceB8ue170006INS_11__wrap_iterIPdEEEENS_15iterator_traitsIT_E15difference_typeES5_S5_NS_26random_access_iterator_tagE, symObjAddr: 0x1687C, symBinAddr: 0x100030F08, symSize: 0x30 }
  - { offsetInCU: 0x19F3E, offset: 0x67403, size: 0x8, addend: 0x0, symName: __ZNSt3__1neB8ue170006ERKNS_21__hash_const_iteratorIPNS_11__hash_nodeINS_12basic_stringIcNS_11char_traitsIcEENS_9allocatorIcEEEEPvEEEESD_, symObjAddr: 0x19CC8, symBinAddr: 0x1000311EC, symSize: 0x34 }
  - { offsetInCU: 0x19F7B, offset: 0x67440, size: 0x8, addend: 0x0, symName: __ZNSt3__1eqB8ue170006ERKNS_21__hash_const_iteratorIPNS_11__hash_nodeINS_12basic_stringIcNS_11char_traitsIcEENS_9allocatorIcEEEEPvEEEESD_, symObjAddr: 0x19EE0, symBinAddr: 0x100031404, symSize: 0x30 }
  - { offsetInCU: 0x19FB9, offset: 0x6747E, size: 0x8, addend: 0x0, symName: __ZNSt3__112__to_addressB8ue170006IiEEPT_S2_, symObjAddr: 0x1A284, symBinAddr: 0x1000317A8, symSize: 0x14 }
  - { offsetInCU: 0x19FEE, offset: 0x674B3, size: 0x8, addend: 0x0, symName: __ZNSt3__119__allocate_at_leastB8ue170006INS_9allocatorIiEEEENS_19__allocation_resultINS_16allocator_traitsIT_E7pointerEEERS5_m, symObjAddr: 0x1A880, symBinAddr: 0x100031DA4, symSize: 0x40 }
  - { offsetInCU: 0x1A031, offset: 0x674F6, size: 0x8, addend: 0x0, symName: __ZNSt3__142__uninitialized_allocator_move_if_noexceptB8ue170006INS_9allocatorIiEENS_16reverse_iteratorIPiEES5_ivEET1_RT_T0_S9_S6_, symObjAddr: 0x1AB08, symBinAddr: 0x10003202C, symSize: 0x78 }
  - { offsetInCU: 0x1A0B0, offset: 0x67575, size: 0x8, addend: 0x0, symName: __ZNSt3__14swapB8ue170006IPiEENS_9enable_ifIXaasr21is_move_constructibleIT_EE5valuesr18is_move_assignableIS3_EE5valueEvE4typeERS3_S6_, symObjAddr: 0x1ABCC, symBinAddr: 0x1000320F0, symSize: 0x3C }
  - { offsetInCU: 0x1A101, offset: 0x675C6, size: 0x8, addend: 0x0, symName: __ZNSt3__14moveB8ue170006INS_16reverse_iteratorIPiEES3_EET0_T_S5_S4_, symObjAddr: 0x1ACFC, symBinAddr: 0x100032220, symSize: 0x78 }
  - { offsetInCU: 0x1A15B, offset: 0x67620, size: 0x8, addend: 0x0, symName: __ZNSt3__16__moveB8ue170006INS_17_ClassicAlgPolicyENS_16reverse_iteratorIPiEES4_S4_EENS_4pairIT0_T2_EES6_T1_S7_, symObjAddr: 0x1AD74, symBinAddr: 0x100032298, symSize: 0x64 }
  - { offsetInCU: 0x1A1C7, offset: 0x6768C, size: 0x8, addend: 0x0, symName: __ZNSt3__123__dispatch_copy_or_moveB8ue170006INS_17_ClassicAlgPolicyENS_11__move_loopIS1_EENS_14__move_trivialENS_16reverse_iteratorIPiEES7_S7_EENS_4pairIT2_T4_EES9_T3_SA_, symObjAddr: 0x1ADD8, symBinAddr: 0x1000322FC, symSize: 0x64 }
  - { offsetInCU: 0x1A245, offset: 0x6770A, size: 0x8, addend: 0x0, symName: __ZNSt3__121__unwrap_and_dispatchB8ue170006INS_10__overloadINS_11__move_loopINS_17_ClassicAlgPolicyEEENS_14__move_trivialEEENS_16reverse_iteratorIPiEES9_S9_Li0EEENS_4pairIT0_T2_EESB_T1_SC_, symObjAddr: 0x1AE3C, symBinAddr: 0x100032360, symSize: 0x12C }
  - { offsetInCU: 0x1A2D6, offset: 0x6779B, size: 0x8, addend: 0x0, symName: __ZNSt3__114__unwrap_rangeB8ue170006INS_16reverse_iteratorIPiEES3_EENS_4pairIT0_S5_EET_S7_, symObjAddr: 0x1AF68, symBinAddr: 0x10003248C, symSize: 0x84 }
  - { offsetInCU: 0x1A3F7, offset: 0x678BC, size: 0x8, addend: 0x0, symName: __ZNSt3__113__unwrap_iterB8ue170006INS_16reverse_iteratorIPiEENS_18__unwrap_iter_implIS3_Lb0EEELi0EEEDTclsrT0_8__unwrapclsr3stdE7declvalIT_EEEES7_, symObjAddr: 0x1B08C, symBinAddr: 0x1000325B0, symSize: 0x44 }
  - { offsetInCU: 0x1A43C, offset: 0x67901, size: 0x8, addend: 0x0, symName: __ZNSt3__19make_pairB8ue170006INS_16reverse_iteratorIPiEES3_EENS_4pairINS_18__unwrap_ref_decayIT_E4typeENS5_IT0_E4typeEEEOS6_OS9_, symObjAddr: 0x1B0D0, symBinAddr: 0x1000325F4, symSize: 0x38 }
  - { offsetInCU: 0x1A48B, offset: 0x67950, size: 0x8, addend: 0x0, symName: __ZNSt3__114__rewrap_rangeB8ue170006INS_16reverse_iteratorIPiEES3_EET_S4_T0_, symObjAddr: 0x1B108, symBinAddr: 0x10003262C, symSize: 0x5C }
  - { offsetInCU: 0x1A4D7, offset: 0x6799C, size: 0x8, addend: 0x0, symName: __ZNSt3__113__rewrap_iterB8ue170006INS_16reverse_iteratorIPiEES3_NS_18__unwrap_iter_implIS3_Lb0EEEEET_S6_T0_, symObjAddr: 0x1B164, symBinAddr: 0x100032688, symSize: 0x74 }
  - { offsetInCU: 0x1A52C, offset: 0x679F1, size: 0x8, addend: 0x0, symName: __ZNSt3__1neB8ue170006IPiS1_EEbRKNS_16reverse_iteratorIT_EERKNS2_IT0_EE, symObjAddr: 0x1B1D8, symBinAddr: 0x1000326FC, symSize: 0x48 }
  - { offsetInCU: 0x1A5E6, offset: 0x67AAB, size: 0x8, addend: 0x0, symName: __ZNSt3__122__make_exception_guardB8ue170006INS_6vectorIiNS_9allocatorIiEEE16__destroy_vectorEEENS_28__exception_guard_exceptionsIT_EES7_, symObjAddr: 0x1B7B4, symBinAddr: 0x100032CD8, symSize: 0x40 }
  - { offsetInCU: 0x1A61B, offset: 0x67AE0, size: 0x8, addend: 0x0, symName: __ZNSt3__130__uninitialized_allocator_copyB8ue170006INS_9allocatorIiEEPKiS4_PiEET2_RT_T0_T1_S6_, symObjAddr: 0x1BB1C, symBinAddr: 0x100033008, symSize: 0x80 }
  - { offsetInCU: 0x1A6B8, offset: 0x67B7D, size: 0x8, addend: 0x0, symName: __ZNSt3__114__unwrap_rangeB8ue170006IPKiS2_EENS_4pairIT0_S4_EET_S6_, symObjAddr: 0x1BB9C, symBinAddr: 0x100033088, symSize: 0x60 }
  - { offsetInCU: 0x1A704, offset: 0x67BC9, size: 0x8, addend: 0x0, symName: __ZNSt3__135__uninitialized_allocator_copy_implB8ue170006INS_9allocatorIiEEKiiiLPv0EEEPT2_RT_PT0_SA_S6_, symObjAddr: 0x1BBFC, symBinAddr: 0x1000330E8, symSize: 0x38 }
  - { offsetInCU: 0x1A787, offset: 0x67C4C, size: 0x8, addend: 0x0, symName: __ZNSt3__113__unwrap_iterB8ue170006IPiNS_18__unwrap_iter_implIS1_Lb1EEELi0EEEDTclsrT0_8__unwrapclsr3stdE7declvalIT_EEEES5_, symObjAddr: 0x1BC34, symBinAddr: 0x100033120, symSize: 0x24 }
  - { offsetInCU: 0x1A7CC, offset: 0x67C91, size: 0x8, addend: 0x0, symName: __ZNSt3__113__rewrap_iterB8ue170006IPiS1_NS_18__unwrap_iter_implIS1_Lb1EEEEET_S4_T0_, symObjAddr: 0x1BC58, symBinAddr: 0x100033144, symSize: 0x3C }
  - { offsetInCU: 0x1A821, offset: 0x67CE6, size: 0x8, addend: 0x0, symName: __ZNSt3__19make_pairB8ue170006IPKiS2_EENS_4pairINS_18__unwrap_ref_decayIT_E4typeENS4_IT0_E4typeEEEOS5_OS8_, symObjAddr: 0x1BC94, symBinAddr: 0x100033180, symSize: 0x38 }
  - { offsetInCU: 0x1A870, offset: 0x67D35, size: 0x8, addend: 0x0, symName: __ZNSt3__113__unwrap_iterB8ue170006IPKiNS_18__unwrap_iter_implIS2_Lb1EEELi0EEEDTclsrT0_8__unwrapclsr3stdE7declvalIT_EEEES6_, symObjAddr: 0x1BCCC, symBinAddr: 0x1000331B8, symSize: 0x24 }
  - { offsetInCU: 0x1A9DE, offset: 0x67EA3, size: 0x8, addend: 0x0, symName: __ZNSt3__112__to_addressB8ue170006IKiEEPT_S3_, symObjAddr: 0x1BD84, symBinAddr: 0x100033270, symSize: 0x14 }
  - { offsetInCU: 0x1AA13, offset: 0x67ED8, size: 0x8, addend: 0x0, symName: __ZNSt3__14copyB8ue170006IPKiPiEET0_T_S5_S4_, symObjAddr: 0x1BD98, symBinAddr: 0x100033284, symSize: 0x40 }
  - { offsetInCU: 0x1AA6D, offset: 0x67F32, size: 0x8, addend: 0x0, symName: __ZNSt3__16__copyB8ue170006INS_17_ClassicAlgPolicyEPKiS3_PiEENS_4pairIT0_T2_EES6_T1_S7_, symObjAddr: 0x1BDD8, symBinAddr: 0x1000332C4, symSize: 0x44 }
  - { offsetInCU: 0x1AAD9, offset: 0x67F9E, size: 0x8, addend: 0x0, symName: __ZNSt3__123__dispatch_copy_or_moveB8ue170006INS_17_ClassicAlgPolicyENS_11__copy_loopIS1_EENS_14__copy_trivialEPKiS6_PiEENS_4pairIT2_T4_EES9_T3_SA_, symObjAddr: 0x1BE1C, symBinAddr: 0x100033308, symSize: 0x44 }
  - { offsetInCU: 0x1AB57, offset: 0x6801C, size: 0x8, addend: 0x0, symName: __ZNSt3__121__unwrap_and_dispatchB8ue170006INS_10__overloadINS_11__copy_loopINS_17_ClassicAlgPolicyEEENS_14__copy_trivialEEEPKiS8_PiLi0EEENS_4pairIT0_T2_EESB_T1_SC_, symObjAddr: 0x1BE60, symBinAddr: 0x10003334C, symSize: 0xB4 }
  - { offsetInCU: 0x1ACEB, offset: 0x681B0, size: 0x8, addend: 0x0, symName: __ZNSt3__19make_pairB8ue170006IPKiPiEENS_4pairINS_18__unwrap_ref_decayIT_E4typeENS5_IT0_E4typeEEEOS6_OS9_, symObjAddr: 0x1BF5C, symBinAddr: 0x100033448, symSize: 0x38 }
  - { offsetInCU: 0x1AD3A, offset: 0x681FF, size: 0x8, addend: 0x0, symName: __ZNSt3__114__rewrap_rangeB8ue170006IPKiS2_EET_S3_T0_, symObjAddr: 0x1BF94, symBinAddr: 0x100033480, symSize: 0x2C }
  - { offsetInCU: 0x1AD86, offset: 0x6824B, size: 0x8, addend: 0x0, symName: __ZNSt3__119__copy_trivial_implB8ue170006IKiiEENS_4pairIPT_PT0_EES4_S4_S6_, symObjAddr: 0x1BFC0, symBinAddr: 0x1000334AC, symSize: 0x80 }
  - { offsetInCU: 0x1ADEE, offset: 0x682B3, size: 0x8, addend: 0x0, symName: __ZNSt3__119__constexpr_memmoveB8ue170006IiKiLi0EEEPT_S3_PT0_NS_15__element_countE, symObjAddr: 0x1C040, symBinAddr: 0x10003352C, symSize: 0x64 }
  - { offsetInCU: 0x1AE5D, offset: 0x68322, size: 0x8, addend: 0x0, symName: __ZNSt3__19make_pairB8ue170006IRPKiPiEENS_4pairINS_18__unwrap_ref_decayIT_E4typeENS6_IT0_E4typeEEEOS7_OSA_, symObjAddr: 0x1C0A4, symBinAddr: 0x100033590, symSize: 0x38 }
  - { offsetInCU: 0x1AEAC, offset: 0x68371, size: 0x8, addend: 0x0, symName: __ZNSt3__113__rewrap_iterB8ue170006IPKiS2_NS_18__unwrap_iter_implIS2_Lb1EEEEET_S5_T0_, symObjAddr: 0x1C1BC, symBinAddr: 0x1000336A8, symSize: 0x3C }
  - { offsetInCU: 0x1B9A6, offset: 0x68E6B, size: 0x8, addend: 0x0, symName: __ZNSt3__18distanceB8ue170006IPNS_12basic_stringIcNS_11char_traitsIcEENS_9allocatorIcEEEEEENS_15iterator_traitsIT_E15difference_typeES9_S9_, symObjAddr: 0x1ED90, symBinAddr: 0x100034748, symSize: 0x2C }
  - { offsetInCU: 0x1B9E9, offset: 0x68EAE, size: 0x8, addend: 0x0, symName: __ZNSt3__14nextB8ue170006IPNS_12basic_stringIcNS_11char_traitsIcEENS_9allocatorIcEEEEEENS_9enable_ifIXsr29__has_input_iterator_categoryIT_EE5valueES9_E4typeES9_NS_15iterator_traitsIS9_E15difference_typeE, symObjAddr: 0x1EDBC, symBinAddr: 0x100034774, symSize: 0x34 }
  - { offsetInCU: 0x1BA2C, offset: 0x68EF1, size: 0x8, addend: 0x0, symName: __ZNSt3__14copyB8ue170006IPNS_12basic_stringIcNS_11char_traitsIcEENS_9allocatorIcEEEES7_EET0_T_S9_S8_, symObjAddr: 0x1EDF0, symBinAddr: 0x1000347A8, symSize: 0x40 }
  - { offsetInCU: 0x1BA86, offset: 0x68F4B, size: 0x8, addend: 0x0, symName: __ZNSt3__16__copyB8ue170006INS_17_ClassicAlgPolicyEPNS_12basic_stringIcNS_11char_traitsIcEENS_9allocatorIcEEEES8_S8_EENS_4pairIT0_T2_EESA_T1_SB_, symObjAddr: 0x1EEBC, symBinAddr: 0x100034874, symSize: 0x44 }
  - { offsetInCU: 0x1BAF3, offset: 0x68FB8, size: 0x8, addend: 0x0, symName: __ZNSt3__19__advanceB8ue170006IPNS_12basic_stringIcNS_11char_traitsIcEENS_9allocatorIcEEEEEEvRT_NS_15iterator_traitsIS8_E15difference_typeENS_26random_access_iterator_tagE, symObjAddr: 0x1F038, symBinAddr: 0x1000349F0, symSize: 0x30 }
  - { offsetInCU: 0x1BB3D, offset: 0x69002, size: 0x8, addend: 0x0, symName: __ZNSt3__130__uninitialized_allocator_copyB8ue170006INS_9allocatorINS_12basic_stringIcNS_11char_traitsIcEENS1_IcEEEEEEPS6_S8_S8_EET2_RT_T0_T1_S9_, symObjAddr: 0x1F068, symBinAddr: 0x100034A20, symSize: 0x80 }
  - { offsetInCU: 0x1BBDA, offset: 0x6909F, size: 0x8, addend: 0x0, symName: __ZNSt3__123__dispatch_copy_or_moveB8ue170006INS_17_ClassicAlgPolicyENS_11__copy_loopIS1_EENS_14__copy_trivialEPNS_12basic_stringIcNS_11char_traitsIcEENS_9allocatorIcEEEESB_SB_EENS_4pairIT2_T4_EESD_T3_SE_, symObjAddr: 0x1F0E8, symBinAddr: 0x100034AA0, symSize: 0x44 }
  - { offsetInCU: 0x1BC58, offset: 0x6911D, size: 0x8, addend: 0x0, symName: __ZNSt3__121__unwrap_and_dispatchB8ue170006INS_10__overloadINS_11__copy_loopINS_17_ClassicAlgPolicyEEENS_14__copy_trivialEEEPNS_12basic_stringIcNS_11char_traitsIcEENS_9allocatorIcEEEESD_SD_Li0EEENS_4pairIT0_T2_EESF_T1_SG_, symObjAddr: 0x1F12C, symBinAddr: 0x100034AE4, symSize: 0xB4 }
  - { offsetInCU: 0x1BCE7, offset: 0x691AC, size: 0x8, addend: 0x0, symName: __ZNSt3__110__distanceB8ue170006IPNS_12basic_stringIcNS_11char_traitsIcEENS_9allocatorIcEEEEEENS_15iterator_traitsIT_E15difference_typeES9_S9_NS_26random_access_iterator_tagE, symObjAddr: 0x1F1E0, symBinAddr: 0x100034B98, symSize: 0x28 }
  - { offsetInCU: 0x1BD35, offset: 0x691FA, size: 0x8, addend: 0x0, symName: __ZNSt3__1plB8ue170006IcNS_11char_traitsIcEENS_9allocatorIcEEEENS_12basic_stringIT_T0_T1_EEPKS6_OS9_, symObjAddr: 0x1F790, symBinAddr: 0x100034BC0, symSize: 0x44 }
  - { offsetInCU: 0x1BD8D, offset: 0x69252, size: 0x8, addend: 0x0, symName: __ZNSt3__1eqB8ue170006IPKdEEbRKNS_11__wrap_iterIT_EES7_, symObjAddr: 0x1F81C, symBinAddr: 0x100034C04, symSize: 0x48 }
  - { offsetInCU: 0x1BDD0, offset: 0x69295, size: 0x8, addend: 0x0, symName: __ZNSt3__1eqB8ue170006IPiEEbRKNS_11__wrap_iterIT_EES6_, symObjAddr: 0x1F8B8, symBinAddr: 0x100034C4C, symSize: 0x48 }
  - { offsetInCU: 0x1BE13, offset: 0x692D8, size: 0x8, addend: 0x0, symName: __ZNSt3__16fill_nB8ue170006IPNS_6vectorIdNS_9allocatorIdEEEEmS4_EET_S6_T0_RKT1_, symObjAddr: 0x201F0, symBinAddr: 0x1000352B4, symSize: 0x44 }
  - { offsetInCU: 0x1BE76, offset: 0x6933B, size: 0x8, addend: 0x0, symName: __ZNSt3__18__fill_nB8ue170006IPNS_6vectorIdNS_9allocatorIdEEEEmS4_EET_S6_T0_RKT1_, symObjAddr: 0x203B8, symBinAddr: 0x10003547C, symSize: 0x6C }
  - { offsetInCU: 0x1BED9, offset: 0x6939E, size: 0x8, addend: 0x0, symName: __ZNSt3__18distanceB8ue170006IPdEENS_15iterator_traitsIT_E15difference_typeES3_S3_, symObjAddr: 0x2069C, symBinAddr: 0x10003574C, symSize: 0x2C }
  - { offsetInCU: 0x1BF1C, offset: 0x693E1, size: 0x8, addend: 0x0, symName: __ZNSt3__14nextB8ue170006IPdEENS_9enable_ifIXsr29__has_input_iterator_categoryIT_EE5valueES3_E4typeES3_NS_15iterator_traitsIS3_E15difference_typeE, symObjAddr: 0x206C8, symBinAddr: 0x100035778, symSize: 0x34 }
  - { offsetInCU: 0x1BF60, offset: 0x69425, size: 0x8, addend: 0x0, symName: __ZNSt3__19__advanceB8ue170006IPdEEvRT_NS_15iterator_traitsIS2_E15difference_typeENS_26random_access_iterator_tagE, symObjAddr: 0x20900, symBinAddr: 0x100035878, symSize: 0x28 }
  - { offsetInCU: 0x1BFAA, offset: 0x6946F, size: 0x8, addend: 0x0, symName: __ZNSt3__110__distanceB8ue170006IPdEENS_15iterator_traitsIT_E15difference_typeES3_S3_NS_26random_access_iterator_tagE, symObjAddr: 0x20A14, symBinAddr: 0x1000358E4, symSize: 0x28 }
  - { offsetInCU: 0x1BFF8, offset: 0x694BD, size: 0x8, addend: 0x0, symName: __ZNSt3__14swapB8ue170006IdNS_9allocatorIdEEEEvRNS_6vectorIT_T0_EES7_, symObjAddr: 0x21654, symBinAddr: 0x100036524, symSize: 0x2C }
  - { offsetInCU: 0x1C044, offset: 0x69509, size: 0x8, addend: 0x0, symName: __ZNSt3__122__make_exception_guardB8ue170006INS_6vectorINS1_IdNS_9allocatorIdEEEENS2_IS4_EEE16__destroy_vectorEEENS_28__exception_guard_exceptionsIT_EES9_, symObjAddr: 0x218B0, symBinAddr: 0x100036744, symSize: 0x40 }
  - { offsetInCU: 0x1C079, offset: 0x6953E, size: 0x8, addend: 0x0, symName: __ZNSt3__130__uninitialized_allocator_copyB8ue170006INS_9allocatorINS_6vectorIdNS1_IdEEEEEEPS4_S6_S6_EET2_RT_T0_T1_S7_, symObjAddr: 0x21A70, symBinAddr: 0x100036904, symSize: 0x80 }
  - { offsetInCU: 0x1C116, offset: 0x695DB, size: 0x8, addend: 0x0, symName: __ZNSt3__114__unwrap_rangeB8ue170006IPNS_6vectorIdNS_9allocatorIdEEEES5_EENS_4pairIT0_S7_EET_S9_, symObjAddr: 0x21AF0, symBinAddr: 0x100036984, symSize: 0x60 }
  - { offsetInCU: 0x1C162, offset: 0x69627, size: 0x8, addend: 0x0, symName: __ZNSt3__135__uninitialized_allocator_copy_implB8ue170006INS_9allocatorINS_6vectorIdNS1_IdEEEEEEPS4_S6_S6_EET2_RT_T0_T1_S7_, symObjAddr: 0x21B50, symBinAddr: 0x1000369E4, symSize: 0xF4 }
  - { offsetInCU: 0x1C200, offset: 0x696C5, size: 0x8, addend: 0x0, symName: __ZNSt3__113__unwrap_iterB8ue170006IPNS_6vectorIdNS_9allocatorIdEEEENS_18__unwrap_iter_implIS5_Lb1EEELi0EEEDTclsrT0_8__unwrapclsr3stdE7declvalIT_EEEES9_, symObjAddr: 0x21C44, symBinAddr: 0x100036AD8, symSize: 0x24 }
  - { offsetInCU: 0x1C245, offset: 0x6970A, size: 0x8, addend: 0x0, symName: __ZNSt3__113__rewrap_iterB8ue170006IPNS_6vectorIdNS_9allocatorIdEEEES5_NS_18__unwrap_iter_implIS5_Lb1EEEEET_S8_T0_, symObjAddr: 0x21C68, symBinAddr: 0x100036AFC, symSize: 0x3C }
  - { offsetInCU: 0x1C29A, offset: 0x6975F, size: 0x8, addend: 0x0, symName: __ZNSt3__19make_pairB8ue170006IPNS_6vectorIdNS_9allocatorIdEEEES5_EENS_4pairINS_18__unwrap_ref_decayIT_E4typeENS7_IT0_E4typeEEEOS8_OSB_, symObjAddr: 0x21CA4, symBinAddr: 0x100036B38, symSize: 0x38 }
  - { offsetInCU: 0x1C3BE, offset: 0x69883, size: 0x8, addend: 0x0, symName: __ZNSt3__122__make_exception_guardB8ue170006INS_29_AllocatorDestroyRangeReverseINS_9allocatorINS_6vectorIdNS2_IdEEEEEEPS5_EEEENS_28__exception_guard_exceptionsIT_EESA_, symObjAddr: 0x21D4C, symBinAddr: 0x100036BE0, symSize: 0x4C }
  - { offsetInCU: 0x1C3F4, offset: 0x698B9, size: 0x8, addend: 0x0, symName: __ZNSt3__119__allocator_destroyB8ue170006INS_9allocatorINS_6vectorIdNS1_IdEEEEEENS_16reverse_iteratorIPS4_EES8_EEvRT_T0_T1_, symObjAddr: 0x21FDC, symBinAddr: 0x100036E70, symSize: 0x70 }
  - { offsetInCU: 0x1C4AC, offset: 0x69971, size: 0x8, addend: 0x0, symName: __ZNSt3__16fill_nB8ue170006IPdmdEET_S2_T0_RKT1_, symObjAddr: 0x22598, symBinAddr: 0x10003742C, symSize: 0x44 }
  - { offsetInCU: 0x1C50F, offset: 0x699D4, size: 0x8, addend: 0x0, symName: __ZNSt3__18__fill_nB8ue170006IPdmdEET_S2_T0_RKT1_, symObjAddr: 0x226AC, symBinAddr: 0x100037540, symSize: 0x64 }
  - { offsetInCU: 0x1C572, offset: 0x69A37, size: 0x8, addend: 0x0, symName: __ZNSt3__13minB8ue170006IiNS_6__lessIvvEEEERKT_S5_S5_T0_, symObjAddr: 0x2276C, symBinAddr: 0x1000375A4, symSize: 0x54 }
  - { offsetInCU: 0x1C72F, offset: 0x69BF4, size: 0x8, addend: 0x0, symName: __ZNSt3__116forward_as_tupleB8ue170006IJPFNS_6vectorIiNS_9allocatorIiEEEERKNS1_INS_12basic_stringIcNS_11char_traitsIcEENS2_IcEEEENS2_IS9_EEEEEEEENS_5tupleIJDpOT_EEESJ_, symObjAddr: 0x24F14, symBinAddr: 0x100038578, symSize: 0x2C }
  - { offsetInCU: 0x1C76A, offset: 0x69C2F, size: 0x8, addend: 0x0, symName: __ZNSt3__116forward_as_tupleB8ue170006IJNS_9allocatorIPFNS_6vectorIiNS1_IiEEEERKNS2_INS_12basic_stringIcNS_11char_traitsIcEENS1_IcEEEENS1_IS9_EEEEEEEEEENS_5tupleIJDpOT_EEESK_, symObjAddr: 0x24F40, symBinAddr: 0x1000385A4, symSize: 0x2C }
  - { offsetInCU: 0x1C7D3, offset: 0x69C98, size: 0x8, addend: 0x0, symName: __ZNSt3__13getB8ue170006ILm0EJOPFNS_6vectorIiNS_9allocatorIiEEEERKNS1_INS_12basic_stringIcNS_11char_traitsIcEENS2_IcEEEENS2_IS9_EEEEEEEERNS_13tuple_elementIXT_ENS_5tupleIJDpT0_EEEE4typeERSL_, symObjAddr: 0x25258, symBinAddr: 0x1000388BC, symSize: 0x24 }
  - { offsetInCU: 0x1C817, offset: 0x69CDC, size: 0x8, addend: 0x0, symName: __ZNSt3__13getB8ue170006ILm0EJONS_9allocatorIPFNS_6vectorIiNS1_IiEEEERKNS2_INS_12basic_stringIcNS_11char_traitsIcEENS1_IcEEEENS1_IS9_EEEEEEEEEERNS_13tuple_elementIXT_ENS_5tupleIJDpT0_EEEE4typeERSM_, symObjAddr: 0x25294, symBinAddr: 0x1000388F8, symSize: 0x24 }
  - { offsetInCU: 0x1CD43, offset: 0x6A208, size: 0x8, addend: 0x0, symName: __ZNSt3__116forward_as_tupleB8ue170006IJRKPFNS_6vectorIiNS_9allocatorIiEEEERKNS1_INS_12basic_stringIcNS_11char_traitsIcEENS2_IcEEEENS2_IS9_EEEEEEEENS_5tupleIJDpOT_EEESL_, symObjAddr: 0x25828, symBinAddr: 0x100038E8C, symSize: 0x2C }
  - { offsetInCU: 0x1CD95, offset: 0x6A25A, size: 0x8, addend: 0x0, symName: __ZNSt3__13getB8ue170006ILm0EJRKPFNS_6vectorIiNS_9allocatorIiEEEERKNS1_INS_12basic_stringIcNS_11char_traitsIcEENS2_IcEEEENS2_IS9_EEEEEEEERNS_13tuple_elementIXT_ENS_5tupleIJDpT0_EEEE4typeERSM_, symObjAddr: 0x25A18, symBinAddr: 0x10003907C, symSize: 0x24 }
  - { offsetInCU: 0x1CDD9, offset: 0x6A29E, size: 0x8, addend: 0x0, symName: __ZNSt3__116forward_as_tupleB8ue170006IJRKNS_9allocatorIPFNS_6vectorIiNS1_IiEEEERKNS2_INS_12basic_stringIcNS_11char_traitsIcEENS1_IcEEEENS1_IS9_EEEEEEEEEENS_5tupleIJDpOT_EEESM_, symObjAddr: 0x25D74, symBinAddr: 0x1000393D8, symSize: 0x2C }
  - { offsetInCU: 0x1CE2B, offset: 0x6A2F0, size: 0x8, addend: 0x0, symName: __ZNSt3__13getB8ue170006ILm0EJRKNS_9allocatorIPFNS_6vectorIiNS1_IiEEEERKNS2_INS_12basic_stringIcNS_11char_traitsIcEENS1_IcEEEENS1_IS9_EEEEEEEEEERNS_13tuple_elementIXT_ENS_5tupleIJDpT0_EEEE4typeERSN_, symObjAddr: 0x25F58, symBinAddr: 0x1000395BC, symSize: 0x24 }
  - { offsetInCU: 0x1CEB8, offset: 0x6A37D, size: 0x8, addend: 0x0, symName: __ZNSt3__18__invokeB8ue170006IRPFNS_6vectorIiNS_9allocatorIiEEEERKNS1_INS_12basic_stringIcNS_11char_traitsIcEENS2_IcEEEENS2_IS9_EEEEEJSD_EEEDTclclsr3stdE7declvalIT_EEspclsr3stdE7declvalIT0_EEEEOSH_DpOSI_, symObjAddr: 0x26038, symBinAddr: 0x10003969C, symSize: 0x38 }
  - { offsetInCU: 0x1CF0C, offset: 0x6A3D1, size: 0x8, addend: 0x0, symName: __ZNSt3__116__swap_allocatorB8ue170006INS_9allocatorINS_12basic_stringIcNS_11char_traitsIcEENS1_IcEEEEEEEEvRT_S9_NS_17integral_constantIbLb0EEE, symObjAddr: 0x2642C, symBinAddr: 0x100039A90, symSize: 0x14 }
  - { offsetInCU: 0x1CF51, offset: 0x6A416, size: 0x8, addend: 0x0, symName: __ZNSt3__116__swap_allocatorB8ue170006INS_9allocatorINS_6vectorIdNS1_IdEEEEEEEEvRT_S7_NS_17integral_constantIbLb0EEE, symObjAddr: 0x26440, symBinAddr: 0x100039AA4, symSize: 0x14 }
  - { offsetInCU: 0x1CF96, offset: 0x6A45B, size: 0x8, addend: 0x0, symName: __ZNSt3__116__swap_allocatorB8ue170006INS_9allocatorIdEEEEvRT_S4_NS_17integral_constantIbLb0EEE, symObjAddr: 0x26454, symBinAddr: 0x100039AB8, symSize: 0x14 }
  - { offsetInCU: 0x1DB1A, offset: 0x6AFDF, size: 0x8, addend: 0x0, symName: __ZL13pick_ref_colsRKNSt3__16vectorINS_12basic_stringIcNS_11char_traitsIcEENS_9allocatorIcEEEENS4_IS6_EEEE, symObjAddr: 0x4068, symBinAddr: 0x100024C08, symSize: 0x45C }
  - { offsetInCU: 0x1DB44, offset: 0x6B009, size: 0x8, addend: 0x0, symName: __ZZL13pick_ref_colsRKNSt3__16vectorINS_12basic_stringIcNS_11char_traitsIcEENS_9allocatorIcEEEENS4_IS6_EEEEE4skip, symObjAddr: 0x12E5C0, symBinAddr: 0x1000440B8, symSize: 0x0 }
  - { offsetInCU: 0x1DD9A, offset: 0x6B25F, size: 0x8, addend: 0x0, symName: __ZL11pick_w_colsRKNSt3__16vectorINS_12basic_stringIcNS_11char_traitsIcEENS_9allocatorIcEEEENS4_IS6_EEEE, symObjAddr: 0x48A8, symBinAddr: 0x100025448, symSize: 0x540 }
  - { offsetInCU: 0x1DDC4, offset: 0x6B289, size: 0x8, addend: 0x0, symName: __ZZL11pick_w_colsRKNSt3__16vectorINS_12basic_stringIcNS_11char_traitsIcEENS_9allocatorIcEEEENS4_IS6_EEEEE4meta, symObjAddr: 0x12E5F0, symBinAddr: 0x1000440E8, symSize: 0x0 }
  - { offsetInCU: 0x1E1F5, offset: 0x6B6BA, size: 0x8, addend: 0x0, symName: __ZNSt3__16vectorINS0_IdNS_9allocatorIdEEEENS1_IS3_EEE26__swap_out_circular_bufferERNS_14__split_bufferIS3_RS4_EE, symObjAddr: 0xFFFC, symBinAddr: 0x10002C14C, symSize: 0x110 }
  - { offsetInCU: 0x1E2B4, offset: 0x6B779, size: 0x8, addend: 0x0, symName: __ZNSt3__16vectorINS_12basic_stringIcNS_11char_traitsIcEENS_9allocatorIcEEEENS4_IS6_EEE26__swap_out_circular_bufferERNS_14__split_bufferIS6_RS7_EEPS6_, symObjAddr: 0x129D4, symBinAddr: 0x10002E8FC, symSize: 0x14C }
  - { offsetInCU: 0x1E314, offset: 0x6B7D9, size: 0x8, addend: 0x0, symName: __ZNSt3__16vectorIdNS_9allocatorIdEEE26__swap_out_circular_bufferERNS_14__split_bufferIdRS2_EEPd, symObjAddr: 0x143F8, symBinAddr: 0x100030228, symSize: 0x14C }
  - { offsetInCU: 0x1E4FA, offset: 0x6B9BF, size: 0x8, addend: 0x0, symName: __ZNSt3__16vectorIiNS_9allocatorIiEEE26__swap_out_circular_bufferERNS_14__split_bufferIiRS2_EE, symObjAddr: 0x1A480, symBinAddr: 0x1000319A4, symSize: 0x110 }
  - { offsetInCU: 0x20576, offset: 0x6DA3B, size: 0x8, addend: 0x0, symName: __Z7run_ph2iPPc, symObjAddr: 0x0, symBinAddr: 0x100020D48, symSize: 0x23DC }
  - { offsetInCU: 0x20DDE, offset: 0x6E2A3, size: 0x8, addend: 0x0, symName: __ZL9parse_ph2iPPc, symObjAddr: 0x23DC, symBinAddr: 0x100023124, symSize: 0x6F0 }
  - { offsetInCU: 0x20EA5, offset: 0x6E36A, size: 0x8, addend: 0x0, symName: __ZL9echo_callR6LoggerRK7Ph2Args, symObjAddr: 0x2BE8, symBinAddr: 0x100023814, symSize: 0x334 }
  - { offsetInCU: 0x20F17, offset: 0x6E3DC, size: 0x8, addend: 0x0, symName: __ZN6Logger3logIJA23_cNSt3__112basic_stringIcNS2_11char_traitsIcEENS2_9allocatorIcEEEEA5_cEEEvDpRKT_, symObjAddr: 0x2F1C, symBinAddr: 0x100023B48, symSize: 0x1A4 }
  - { offsetInCU: 0x20F9C, offset: 0x6E461, size: 0x8, addend: 0x0, symName: __ZL13read_sumstatsRKNSt3__112basic_stringIcNS_11char_traitsIcEENS_9allocatorIcEEEER6Logger, symObjAddr: 0x30C0, symBinAddr: 0x100023CEC, symSize: 0x854 }
  - { offsetInCU: 0x21147, offset: 0x6E60C, size: 0x8, addend: 0x0, symName: __ZN6Logger3logIJA6_ciA21_cEEEvDpRKT_, symObjAddr: 0x3914, symBinAddr: 0x100024540, symSize: 0x1A8 }
  - { offsetInCU: 0x211E2, offset: 0x6E6A7, size: 0x8, addend: 0x0, symName: __ZN6Logger3logIJA25_cEEEvDpRKT_, symObjAddr: 0x3AE4, symBinAddr: 0x1000246E8, symSize: 0x174 }
  - { offsetInCU: 0x2123F, offset: 0x6E704, size: 0x8, addend: 0x0, symName: __ZL19read_ld_fileset_anyRKNSt3__112basic_stringIcNS_11char_traitsIcEENS_9allocatorIcEEEES7_RKNS_8functionIFNS_6vectorIiNS3_IiEEEERKNS9_IS5_NS3_IS5_EEEEEEE, symObjAddr: 0x3C88, symBinAddr: 0x10002485C, symSize: 0x3AC }
  - { offsetInCU: 0x21389, offset: 0x6E84E, size: 0x8, addend: 0x0, symName: __ZNSt3__18functionIFNS_6vectorIiNS_9allocatorIiEEEERKNS1_INS_12basic_stringIcNS_11char_traitsIcEENS2_IcEEEENS2_IS9_EEEEEEC1IPSE_vEET_, symObjAddr: 0x44C4, symBinAddr: 0x100025064, symSize: 0x34 }
  - { offsetInCU: 0x213CD, offset: 0x6E892, size: 0x8, addend: 0x0, symName: __ZL12read_ld_flatRKNSt3__112basic_stringIcNS_11char_traitsIcEENS_9allocatorIcEEEERKNS_8functionIFNS_6vectorIiNS3_IiEEEERKNS9_IS5_NS3_IS5_EEEEEEE, symObjAddr: 0x44F8, symBinAddr: 0x100025098, symSize: 0x34 }
  - { offsetInCU: 0x2140B, offset: 0x6E8D0, size: 0x8, addend: 0x0, symName: __ZNSt3__18functionIFNS_6vectorIiNS_9allocatorIiEEEERKNS1_INS_12basic_stringIcNS_11char_traitsIcEENS2_IcEEEENS2_IS9_EEEEEED1Ev, symObjAddr: 0x452C, symBinAddr: 0x1000250CC, symSize: 0x2C }
  - { offsetInCU: 0x2146B, offset: 0x6E930, size: 0x8, addend: 0x0, symName: __ZN6Logger3logIJA15_cmA8_ciA10_cEEEvDpRKT_, symObjAddr: 0x4558, symBinAddr: 0x1000250F8, symSize: 0x1DC }
  - { offsetInCU: 0x2152E, offset: 0x6E9F3, size: 0x8, addend: 0x0, symName: __ZN6Logger3logIJA38_cEEEvDpRKT_, symObjAddr: 0x4734, symBinAddr: 0x1000252D4, symSize: 0x174 }
  - { offsetInCU: 0x2158B, offset: 0x6EA50, size: 0x8, addend: 0x0, symName: __ZL17merge_sumstats_ldRK8SumstatsRK5TableS4_R6Logger, symObjAddr: 0x4DE8, symBinAddr: 0x100025988, symSize: 0x6F0 }
  - { offsetInCU: 0x2175E, offset: 0x6EC23, size: 0x8, addend: 0x0, symName: __ZNKSt3__16vectorINS0_IdNS_9allocatorIdEEEENS1_IS3_EEE4sizeB8ue170006Ev, symObjAddr: 0x54D8, symBinAddr: 0x100026078, symSize: 0x28 }
  - { offsetInCU: 0x21783, offset: 0x6EC48, size: 0x8, addend: 0x0, symName: __ZNSt3__16vectorIdNS_9allocatorIdEEEC1EmRKd, symObjAddr: 0x5500, symBinAddr: 0x1000260A0, symSize: 0x3C }
  - { offsetInCU: 0x2187B, offset: 0x6ED40, size: 0x8, addend: 0x0, symName: __ZNSt3__16vectorIdNS_9allocatorIdEEE9push_backB8ue170006EOd, symObjAddr: 0x58F0, symBinAddr: 0x1000260DC, symSize: 0x6C }
  - { offsetInCU: 0x218D4, offset: 0x6ED99, size: 0x8, addend: 0x0, symName: __ZNSt3__16vectorIdNS_9allocatorIdEEEaSB8ue170006EOS3_, symObjAddr: 0x5C84, symBinAddr: 0x100026148, symSize: 0x34 }
  - { offsetInCU: 0x21936, offset: 0x6EDFB, size: 0x8, addend: 0x0, symName: __ZN6Logger3logIJA42_ciA2_cEEEvDpRKT_, symObjAddr: 0x5CB8, symBinAddr: 0x10002617C, symSize: 0x1A8 }
  - { offsetInCU: 0x219BB, offset: 0x6EE80, size: 0x8, addend: 0x0, symName: __ZL32read_M_total_from_dir_or_patternRKNSt3__112basic_stringIcNS_11char_traitsIcEENS_9allocatorIcEEEE, symObjAddr: 0x5E8C, symBinAddr: 0x100026324, symSize: 0x490 }
  - { offsetInCU: 0x21A9C, offset: 0x6EF61, size: 0x8, addend: 0x0, symName: __ZN6Logger3logIJA36_cxA20_ciA14_cEEEvDpRKT_, symObjAddr: 0x63E8, symBinAddr: 0x1000267B4, symSize: 0x1DC }
  - { offsetInCU: 0x21B5F, offset: 0x6F024, size: 0x8, addend: 0x0, symName: __ZN6Logger3logIJA57_ciA14_cEEEvDpRKT_, symObjAddr: 0x65C4, symBinAddr: 0x100026990, symSize: 0x1A8 }
  - { offsetInCU: 0x21BE4, offset: 0x6F0A9, size: 0x8, addend: 0x0, symName: __ZNSt3__16vectorIiNS_9allocatorIiEEEC1B8ue170006Ev, symObjAddr: 0x676C, symBinAddr: 0x100026B38, symSize: 0x2C }
  - { offsetInCU: 0x21C0C, offset: 0x6F0D1, size: 0x8, addend: 0x0, symName: __ZNSt3__16vectorINS0_IdNS_9allocatorIdEEEENS1_IS3_EEEixB8ue170006Em, symObjAddr: 0x6798, symBinAddr: 0x100026B64, symSize: 0x2C }
  - { offsetInCU: 0x21C42, offset: 0x6F107, size: 0x8, addend: 0x0, symName: __ZNKSt3__16vectorIdNS_9allocatorIdEEE5beginB8ue170006Ev, symObjAddr: 0x67C4, symBinAddr: 0x100026B90, symSize: 0x30 }
  - { offsetInCU: 0x21C69, offset: 0x6F12E, size: 0x8, addend: 0x0, symName: __ZNKSt3__16vectorIdNS_9allocatorIdEEE3endB8ue170006Ev, symObjAddr: 0x67F4, symBinAddr: 0x100026BC0, symSize: 0x30 }
  - { offsetInCU: 0x21C90, offset: 0x6F155, size: 0x8, addend: 0x0, symName: __ZNKSt3__111__wrap_iterIPKdEdeB8ue170006Ev, symObjAddr: 0x6858, symBinAddr: 0x100026C24, symSize: 0x18 }
  - { offsetInCU: 0x21CB5, offset: 0x6F17A, size: 0x8, addend: 0x0, symName: __ZNSt3__111__wrap_iterIPKdEppB8ue170006Ev, symObjAddr: 0x6870, symBinAddr: 0x100026C3C, symSize: 0x20 }
  - { offsetInCU: 0x21CDA, offset: 0x6F19F, size: 0x8, addend: 0x0, symName: __ZNSt3__16vectorIiNS_9allocatorIiEEE9push_backB8ue170006EOi, symObjAddr: 0x68BC, symBinAddr: 0x100026C5C, symSize: 0x6C }
  - { offsetInCU: 0x21D10, offset: 0x6F1D5, size: 0x8, addend: 0x0, symName: __ZNKSt3__16vectorIiNS_9allocatorIiEEE5emptyB8ue170006Ev, symObjAddr: 0x6928, symBinAddr: 0x100026CC8, symSize: 0x28 }
  - { offsetInCU: 0x21D35, offset: 0x6F1FA, size: 0x8, addend: 0x0, symName: __ZNKSt3__16vectorIiNS_9allocatorIiEEE4sizeB8ue170006Ev, symObjAddr: 0x6950, symBinAddr: 0x100026CF0, symSize: 0x28 }
  - { offsetInCU: 0x21D70, offset: 0x6F235, size: 0x8, addend: 0x0, symName: __ZN6Logger3logIJA10_ciA44_cEEEvDpRKT_, symObjAddr: 0x6978, symBinAddr: 0x100026D18, symSize: 0x1A8 }
  - { offsetInCU: 0x21DF5, offset: 0x6F2BA, size: 0x8, addend: 0x0, symName: __ZNSt3__16vectorINS_12basic_stringIcNS_11char_traitsIcEENS_9allocatorIcEEEENS4_IS6_EEE7reserveEm, symObjAddr: 0x6B4C, symBinAddr: 0x100026EC0, symSize: 0xE8 }
  - { offsetInCU: 0x21E50, offset: 0x6F315, size: 0x8, addend: 0x0, symName: __ZNSt3__16vectorINS0_IdNS_9allocatorIdEEEENS1_IS3_EEEC1B8ue170006Ev, symObjAddr: 0x6C34, symBinAddr: 0x100026FA8, symSize: 0x2C }
  - { offsetInCU: 0x21E78, offset: 0x6F33D, size: 0x8, addend: 0x0, symName: __ZNSt3__16vectorINS0_IdNS_9allocatorIdEEEENS1_IS3_EEE7reserveEm, symObjAddr: 0x6C60, symBinAddr: 0x100026FD4, symSize: 0xE8 }
  - { offsetInCU: 0x21ED3, offset: 0x6F398, size: 0x8, addend: 0x0, symName: __ZNSt3__16vectorIiNS_9allocatorIiEEE5beginB8ue170006Ev, symObjAddr: 0x6E30, symBinAddr: 0x1000270BC, symSize: 0x30 }
  - { offsetInCU: 0x21EFA, offset: 0x6F3BF, size: 0x8, addend: 0x0, symName: __ZNSt3__16vectorIiNS_9allocatorIiEEE3endB8ue170006Ev, symObjAddr: 0x6E60, symBinAddr: 0x1000270EC, symSize: 0x30 }
  - { offsetInCU: 0x21F21, offset: 0x6F3E6, size: 0x8, addend: 0x0, symName: __ZNKSt3__111__wrap_iterIPiEdeB8ue170006Ev, symObjAddr: 0x6EC4, symBinAddr: 0x100027150, symSize: 0x18 }
  - { offsetInCU: 0x21F46, offset: 0x6F40B, size: 0x8, addend: 0x0, symName: __ZNSt3__16vectorINS0_IdNS_9allocatorIdEEEENS1_IS3_EEE9push_backB8ue170006EOS3_, symObjAddr: 0x6F74, symBinAddr: 0x100027168, symSize: 0x6C }
  - { offsetInCU: 0x21F7C, offset: 0x6F441, size: 0x8, addend: 0x0, symName: __ZNSt3__111__wrap_iterIPiEppB8ue170006Ev, symObjAddr: 0x7004, symBinAddr: 0x1000271D4, symSize: 0x20 }
  - { offsetInCU: 0x21FA1, offset: 0x6F466, size: 0x8, addend: 0x0, symName: __ZNSt3__16vectorINS_12basic_stringIcNS_11char_traitsIcEENS_9allocatorIcEEEENS4_IS6_EEE4swapERS8_, symObjAddr: 0x7024, symBinAddr: 0x1000271F4, symSize: 0x84 }
  - { offsetInCU: 0x21FD7, offset: 0x6F49C, size: 0x8, addend: 0x0, symName: __ZNSt3__16vectorINS0_IdNS_9allocatorIdEEEENS1_IS3_EEE4swapERS5_, symObjAddr: 0x70A8, symBinAddr: 0x100027278, symSize: 0x84 }
  - { offsetInCU: 0x2200D, offset: 0x6F4D2, size: 0x8, addend: 0x0, symName: __ZNSt3__16vectorIdNS_9allocatorIdEEE4swapERS3_, symObjAddr: 0x712C, symBinAddr: 0x1000272FC, symSize: 0x84 }
  - { offsetInCU: 0x22043, offset: 0x6F508, size: 0x8, addend: 0x0, symName: __ZNSt3__16vectorINS0_IdNS_9allocatorIdEEEENS1_IS3_EEED1B8ue170006Ev, symObjAddr: 0x71B0, symBinAddr: 0x100027380, symSize: 0x2C }
  - { offsetInCU: 0x2206B, offset: 0x6F530, size: 0x8, addend: 0x0, symName: __ZN6LoggerD1Ev, symObjAddr: 0x7208, symBinAddr: 0x1000273AC, symSize: 0x2C }
  - { offsetInCU: 0x22095, offset: 0x6F55A, size: 0x8, addend: 0x0, symName: __ZNSt3__16vectorIiNS_9allocatorIiEEED1B8ue170006Ev, symObjAddr: 0x7234, symBinAddr: 0x1000273D8, symSize: 0x2C }
  - { offsetInCU: 0x220BD, offset: 0x6F582, size: 0x8, addend: 0x0, symName: __ZN6Logger3logIJA14_cdEEEvDpRKT_, symObjAddr: 0x73BC, symBinAddr: 0x100027404, symSize: 0x190 }
  - { offsetInCU: 0x22144, offset: 0x6F609, size: 0x8, addend: 0x0, symName: __ZN6Logger3logIJA13_cdEEEvDpRKT_, symObjAddr: 0x754C, symBinAddr: 0x100027594, symSize: 0x190 }
  - { offsetInCU: 0x221B5, offset: 0x6F67A, size: 0x8, addend: 0x0, symName: __ZN6Logger3logIJA44_cEEEvDpRKT_, symObjAddr: 0x76DC, symBinAddr: 0x100027724, symSize: 0x174 }
  - { offsetInCU: 0x22212, offset: 0x6F6D7, size: 0x8, addend: 0x0, symName: __ZL8vec_meanRKNSt3__16vectorIdNS_9allocatorIdEEEE, symObjAddr: 0x7870, symBinAddr: 0x100027898, symSize: 0xD0 }
  - { offsetInCU: 0x222A4, offset: 0x6F769, size: 0x8, addend: 0x0, symName: __ZL13weights_step1RK11MergeResultRNSt3__16vectorIdNS2_9allocatorIdEEEE, symObjAddr: 0x7940, symBinAddr: 0x100027968, symSize: 0xCC }
  - { offsetInCU: 0x22329, offset: 0x6F7EE, size: 0x8, addend: 0x0, symName: __ZL12build_designRK11MergeResultbRNSt3__16vectorINS3_IdNS2_9allocatorIdEEEENS4_IS6_EEEE, symObjAddr: 0x7A0C, symBinAddr: 0x100027A34, symSize: 0x1FC }
  - { offsetInCU: 0x223CE, offset: 0x6F893, size: 0x8, addend: 0x0, symName: __ZL9jackknifeRKNSt3__16vectorINS0_IdNS_9allocatorIdEEEENS1_IS3_EEEERKS3_S9_iRS3_SA_, symObjAddr: 0x7C08, symBinAddr: 0x100027C30, symSize: 0x5B8 }
  - { offsetInCU: 0x2261F, offset: 0x6FAE4, size: 0x8, addend: 0x0, symName: __ZL13weights_step2RK11MergeResultRKNSt3__16vectorIdNS2_9allocatorIdEEEEbRS6_, symObjAddr: 0x81EC, symBinAddr: 0x100028214, symSize: 0x254 }
  - { offsetInCU: 0x2272B, offset: 0x6FBF0, size: 0x8, addend: 0x0, symName: __ZL13h2_from_betasRKNSt3__16vectorIdNS_9allocatorIdEEEES5_bS5_dRdS6_, symObjAddr: 0x8440, symBinAddr: 0x100028468, symSize: 0x17C }
  - { offsetInCU: 0x22845, offset: 0x6FD0A, size: 0x8, addend: 0x0, symName: __ZN6Logger3logIJA26_cdA3_cdA2_cEEEvDpRKT_, symObjAddr: 0x85BC, symBinAddr: 0x1000285E4, symSize: 0x1DC }
  - { offsetInCU: 0x22908, offset: 0x6FDCD, size: 0x8, addend: 0x0, symName: __ZN6Logger3logIJA12_cdEEEvDpRKT_, symObjAddr: 0x8798, symBinAddr: 0x1000287C0, symSize: 0x190 }
  - { offsetInCU: 0x22979, offset: 0x6FE3E, size: 0x8, addend: 0x0, symName: __ZN6Logger3logIJA12_cdA3_cdA2_cEEEvDpRKT_, symObjAddr: 0x8928, symBinAddr: 0x100028950, symSize: 0x1DC }
  - { offsetInCU: 0x22A3C, offset: 0x6FF01, size: 0x8, addend: 0x0, symName: __ZN6Logger3logIJA18_cNSt3__112basic_stringIcNS2_11char_traitsIcEENS2_9allocatorIcEEEEA13_cEEEvDpRKT_, symObjAddr: 0x8D10, symBinAddr: 0x100028B2C, symSize: 0x1A4 }
  - { offsetInCU: 0x22ADC, offset: 0x6FFA1, size: 0x8, addend: 0x0, symName: __ZN6Logger3logIJA16_cEEEvDpRKT_, symObjAddr: 0x8EF4, symBinAddr: 0x100028CD0, symSize: 0x174 }
  - { offsetInCU: 0x22BAF, offset: 0x70074, size: 0x8, addend: 0x0, symName: __ZN11MergeResultD1Ev, symObjAddr: 0x9068, symBinAddr: 0x100028E44, symSize: 0x2C }
  - { offsetInCU: 0x22C3E, offset: 0x70103, size: 0x8, addend: 0x0, symName: __ZN5TableD1Ev, symObjAddr: 0x9094, symBinAddr: 0x100028E70, symSize: 0x2C }
  - { offsetInCU: 0x22CB3, offset: 0x70178, size: 0x8, addend: 0x0, symName: __ZN8SumstatsD1Ev, symObjAddr: 0x90C0, symBinAddr: 0x100028E9C, symSize: 0x2C }
  - { offsetInCU: 0x22D94, offset: 0x70259, size: 0x8, addend: 0x0, symName: __ZN7Ph2ArgsD1Ev, symObjAddr: 0x90F8, symBinAddr: 0x100028EC8, symSize: 0x2C }
  - { offsetInCU: 0x22DBE, offset: 0x70283, size: 0x8, addend: 0x0, symName: __ZN7Ph2ArgsC1Ev, symObjAddr: 0x9124, symBinAddr: 0x100028EF4, symSize: 0x2C }
  - { offsetInCU: 0x22DF7, offset: 0x702BC, size: 0x8, addend: 0x0, symName: '__ZZL9parse_ph2iPPcENK3$_0clERiRKNSt3__112basic_stringIcNS3_11char_traitsIcEENS3_9allocatorIcEEEE', symObjAddr: 0x91FC, symBinAddr: 0x100028F20, symSize: 0xB0 }
  - { offsetInCU: 0x22E3B, offset: 0x70300, size: 0x8, addend: 0x0, symName: __ZNKSt3__112basic_stringIcNS_11char_traitsIcEENS_9allocatorIcEEE5rfindB8ue170006EPKcm, symObjAddr: 0x92E0, symBinAddr: 0x100028FD0, symSize: 0x74 }
  - { offsetInCU: 0x22E80, offset: 0x70345, size: 0x8, addend: 0x0, symName: __ZN7Ph2ArgsC2Ev, symObjAddr: 0x93A0, symBinAddr: 0x100029044, symSize: 0x94 }
  - { offsetInCU: 0x22EB4, offset: 0x70379, size: 0x8, addend: 0x0, symName: __ZNSt3__18_IterOpsINS_17_ClassicAlgPolicyEE4nextB8ue170006IPKcEET_S6_S6_, symObjAddr: 0x9EDC, symBinAddr: 0x100029458, symSize: 0x18 }
  - { offsetInCU: 0x22F09, offset: 0x703CE, size: 0x8, addend: 0x0, symName: __ZNSt3__14pairIPKcS2_EC1B8ue170006IRS2_S5_LPv0EEEOT_OT0_, symObjAddr: 0x9EF4, symBinAddr: 0x100029470, symSize: 0x3C }
  - { offsetInCU: 0x22F66, offset: 0x7042B, size: 0x8, addend: 0x0, symName: __ZNSt3__14pairIPKcS2_EC2B8ue170006IRS2_S5_LPv0EEEOT_OT0_, symObjAddr: 0x9F9C, symBinAddr: 0x100029518, symSize: 0x34 }
  - { offsetInCU: 0x22FCE, offset: 0x70493, size: 0x8, addend: 0x0, symName: __ZNKSt3__110__identityclB8ue170006IRKcEEOT_S5_, symObjAddr: 0x9FD0, symBinAddr: 0x10002954C, symSize: 0x18 }
  - { offsetInCU: 0x23050, offset: 0x70515, size: 0x8, addend: 0x0, symName: __ZN6Logger3logIJNSt3__112basic_stringIcNS1_11char_traitsIcEENS1_9allocatorIcEEEEEEEvDpRKT_, symObjAddr: 0xAB54, symBinAddr: 0x100029564, symSize: 0x17C }
  - { offsetInCU: 0x230B7, offset: 0x7057C, size: 0x8, addend: 0x0, symName: __ZL8split_wsRKNSt3__112basic_stringIcNS_11char_traitsIcEENS_9allocatorIcEEEE, symObjAddr: 0xB164, symBinAddr: 0x1000296E0, symSize: 0x144 }
  - { offsetInCU: 0x2310F, offset: 0x705D4, size: 0x8, addend: 0x0, symName: __ZN8SumstatsC1Ev, symObjAddr: 0xB2A8, symBinAddr: 0x100029824, symSize: 0x2C }
  - { offsetInCU: 0x23165, offset: 0x7062A, size: 0x8, addend: 0x0, symName: __ZN6Logger3logIJA6_ciA29_cmA19_cmA16_cmA13_cmA3_cEEEvDpRKT_, symObjAddr: 0xB300, symBinAddr: 0x100029850, symSize: 0x288 }
  - { offsetInCU: 0x232AE, offset: 0x70773, size: 0x8, addend: 0x0, symName: __ZN8SumstatsC2Ev, symObjAddr: 0xBD2C, symBinAddr: 0x100029AD8, symSize: 0x44 }
  - { offsetInCU: 0x232D8, offset: 0x7079D, size: 0x8, addend: 0x0, symName: __ZN5TableC1Ev, symObjAddr: 0xBDF8, symBinAddr: 0x100029B1C, symSize: 0x2C }
  - { offsetInCU: 0x23302, offset: 0x707C7, size: 0x8, addend: 0x0, symName: __ZL16expand_chr_inputRKNSt3__112basic_stringIcNS_11char_traitsIcEENS_9allocatorIcEEEES7_, symObjAddr: 0xBE24, symBinAddr: 0x100029B48, symSize: 0x3D8 }
  - { offsetInCU: 0x233AE, offset: 0x70873, size: 0x8, addend: 0x0, symName: __ZNSt3__16vectorINS_12basic_stringIcNS_11char_traitsIcEENS_9allocatorIcEEEENS4_IS6_EEE5beginB8ue170006Ev, symObjAddr: 0xC1FC, symBinAddr: 0x100029F20, symSize: 0x30 }
  - { offsetInCU: 0x233D5, offset: 0x7089A, size: 0x8, addend: 0x0, symName: __ZNSt3__16vectorINS_12basic_stringIcNS_11char_traitsIcEENS_9allocatorIcEEEENS4_IS6_EEE3endB8ue170006Ev, symObjAddr: 0xC22C, symBinAddr: 0x100029F50, symSize: 0x30 }
  - { offsetInCU: 0x233FC, offset: 0x708C1, size: 0x8, addend: 0x0, symName: __ZNKSt3__111__wrap_iterIPNS_12basic_stringIcNS_11char_traitsIcEENS_9allocatorIcEEEEEdeB8ue170006Ev, symObjAddr: 0xC290, symBinAddr: 0x100029FB4, symSize: 0x18 }
  - { offsetInCU: 0x23421, offset: 0x708E6, size: 0x8, addend: 0x0, symName: __ZL18read_ld_one_selectRKNSt3__112basic_stringIcNS_11char_traitsIcEENS_9allocatorIcEEEERKNS_8functionIFNS_6vectorIiNS3_IiEEEERKNS9_IS5_NS3_IS5_EEEEEEE, symObjAddr: 0xC2A8, symBinAddr: 0x100029FCC, symSize: 0x73C }
  - { offsetInCU: 0x2358C, offset: 0x70A51, size: 0x8, addend: 0x0, symName: __ZN5TableaSEOS_, symObjAddr: 0xC9E4, symBinAddr: 0x10002A708, symSize: 0x5C }
  - { offsetInCU: 0x235BC, offset: 0x70A81, size: 0x8, addend: 0x0, symName: __ZNSt3__16vectorINS_12basic_stringIcNS_11char_traitsIcEENS_9allocatorIcEEEENS4_IS6_EEE6insertINS_11__wrap_iterIPS6_EELi0EEESC_NSA_IPKS6_EET_SG_, symObjAddr: 0xCA74, symBinAddr: 0x10002A798, symSize: 0x84 }
  - { offsetInCU: 0x2362A, offset: 0x70AEF, size: 0x8, addend: 0x0, symName: __ZNSt3__111__wrap_iterIPKNS_12basic_stringIcNS_11char_traitsIcEENS_9allocatorIcEEEEEC1B8ue170006IPS6_EERKNS0_IT_EEPNS_9enable_ifIXsr14is_convertibleISC_S8_EE5valueEvE4typeE, symObjAddr: 0xCAF8, symBinAddr: 0x10002A81C, symSize: 0x3C }
  - { offsetInCU: 0x23674, offset: 0x70B39, size: 0x8, addend: 0x0, symName: __ZNSt3__16vectorIdNS_9allocatorIdEEE6insertINS_11__wrap_iterIPdEELi0EEES7_NS5_IPKdEET_SB_, symObjAddr: 0xCB34, symBinAddr: 0x10002A858, symSize: 0x84 }
  - { offsetInCU: 0x236DD, offset: 0x70BA2, size: 0x8, addend: 0x0, symName: __ZNSt3__111__wrap_iterIPKdEC1B8ue170006IPdEERKNS0_IT_EEPNS_9enable_ifIXsr14is_convertibleIS6_S2_EE5valueEvE4typeE, symObjAddr: 0xCBB8, symBinAddr: 0x10002A8DC, symSize: 0x3C }
  - { offsetInCU: 0x23727, offset: 0x70BEC, size: 0x8, addend: 0x0, symName: __ZNSt3__111__wrap_iterIPNS_12basic_stringIcNS_11char_traitsIcEENS_9allocatorIcEEEEEppB8ue170006Ev, symObjAddr: 0xCBF4, symBinAddr: 0x10002A918, symSize: 0x20 }
  - { offsetInCU: 0x2374C, offset: 0x70C11, size: 0x8, addend: 0x0, symName: __ZN5TableC2Ev, symObjAddr: 0xCC14, symBinAddr: 0x10002A938, symSize: 0x44 }
  - { offsetInCU: 0x23776, offset: 0x70C3B, size: 0x8, addend: 0x0, symName: __ZNKSt3__112basic_stringIcNS_11char_traitsIcEENS_9allocatorIcEEE4findB8ue170006EPKcm, symObjAddr: 0xCC58, symBinAddr: 0x10002A97C, symSize: 0x74 }
  - { offsetInCU: 0x237BB, offset: 0x70C80, size: 0x8, addend: 0x0, symName: __ZNKSt3__112basic_stringIcNS_11char_traitsIcEENS_9allocatorIcEEE6substrB8ue170006Emm, symObjAddr: 0xCCCC, symBinAddr: 0x10002A9F0, symSize: 0x68 }
  - { offsetInCU: 0x237FD, offset: 0x70CC2, size: 0x8, addend: 0x0, symName: __ZNSt3__16vectorINS_12basic_stringIcNS_11char_traitsIcEENS_9allocatorIcEEEENS4_IS6_EEE9push_backB8ue170006EOS6_, symObjAddr: 0xCD34, symBinAddr: 0x10002AA58, symSize: 0x6C }
  - { offsetInCU: 0x23833, offset: 0x70CF8, size: 0x8, addend: 0x0, symName: __ZNSt3__14__fs10filesystem4pathC1B8ue170006INS_12basic_stringIcNS_11char_traitsIcEENS_9allocatorIcEEEEvEERKT_NS2_6formatE, symObjAddr: 0xCDF0, symBinAddr: 0x10002AB14, symSize: 0x3C }
  - { offsetInCU: 0x23881, offset: 0x70D46, size: 0x8, addend: 0x0, symName: __ZNSt3__14__fs10filesystem4pathD1B8ue170006Ev, symObjAddr: 0xCE2C, symBinAddr: 0x10002AB50, symSize: 0x2C }
  - { offsetInCU: 0x238A9, offset: 0x70D6E, size: 0x8, addend: 0x0, symName: __ZNSt3__111char_traitsIcE4findB8ue170006EPKcmRS2_, symObjAddr: 0xD090, symBinAddr: 0x10002ADB4, symSize: 0x70 }
  - { offsetInCU: 0x238E7, offset: 0x70DAC, size: 0x8, addend: 0x0, symName: __ZNSt3__19allocatorIcEC1B8ue170006Ev, symObjAddr: 0xD174, symBinAddr: 0x10002AE64, symSize: 0x2C }
  - { offsetInCU: 0x23914, offset: 0x70DD9, size: 0x8, addend: 0x0, symName: __ZNSt3__16vectorINS_12basic_stringIcNS_11char_traitsIcEENS_9allocatorIcEEEENS4_IS6_EEE22__construct_one_at_endB8ue170006IJS6_EEEvDpOT_, symObjAddr: 0xD1C8, symBinAddr: 0x10002AE90, symSize: 0x90 }
  - { offsetInCU: 0x23963, offset: 0x70E28, size: 0x8, addend: 0x0, symName: __ZNSt3__16vectorINS_12basic_stringIcNS_11char_traitsIcEENS_9allocatorIcEEEENS4_IS6_EEE21__push_back_slow_pathIS6_EEvOT_, symObjAddr: 0xD258, symBinAddr: 0x10002AF20, symSize: 0xD8 }
  - { offsetInCU: 0x23A06, offset: 0x70ECB, size: 0x8, addend: 0x0, symName: __ZNSt3__14__fs10filesystem11file_statusD1B8ue170006Ev, symObjAddr: 0xEB10, symBinAddr: 0x10002B02C, symSize: 0x2C }
  - { offsetInCU: 0x23A2E, offset: 0x70EF3, size: 0x8, addend: 0x0, symName: __ZNKSt3__14__fs10filesystem11file_status4typeB8ue170006Ev, symObjAddr: 0xEB3C, symBinAddr: 0x10002B058, symSize: 0x18 }
  - { offsetInCU: 0x23A53, offset: 0x70F18, size: 0x8, addend: 0x0, symName: __ZNSt3__14__fs10filesystem11file_statusD2B8ue170006Ev, symObjAddr: 0xEB54, symBinAddr: 0x10002B070, symSize: 0x14 }
  - { offsetInCU: 0x23A7C, offset: 0x70F41, size: 0x8, addend: 0x0, symName: __ZNSt3__14__fs10filesystem4pathC2B8ue170006INS_12basic_stringIcNS_11char_traitsIcEENS_9allocatorIcEEEEvEERKT_NS2_6formatE, symObjAddr: 0xEB68, symBinAddr: 0x10002B084, symSize: 0x68 }
  - { offsetInCU: 0x23ACF, offset: 0x70F94, size: 0x8, addend: 0x0, symName: __ZNSt3__14__fs10filesystem8_PathCVTIcE15__append_sourceB8ue170006INS_12basic_stringIcNS_11char_traitsIcEENS_9allocatorIcEEEEEEvRSA_RKT_, symObjAddr: 0xEBD0, symBinAddr: 0x10002B0EC, symSize: 0x4C }
  - { offsetInCU: 0x23B0A, offset: 0x70FCF, size: 0x8, addend: 0x0, symName: __ZNSt3__14__fs10filesystem8_PathCVTIcE14__append_rangeB8ue170006IPKcEENS_9enable_ifIXsr31__has_forward_iterator_categoryIT_EE5valueEvE4typeERNS_12basic_stringIcNS_11char_traitsIcEENS_9allocatorIcEEEES8_S8_, symObjAddr: 0xEC1C, symBinAddr: 0x10002B138, symSize: 0x34 }
  - { offsetInCU: 0x23B5E, offset: 0x71023, size: 0x8, addend: 0x0, symName: __ZNSt3__14__fs10filesystem20__is_pathable_stringINS_12basic_stringIcNS_11char_traitsIcEENS_9allocatorIcEEEEvE13__range_beginB8ue170006ERKS8_, symObjAddr: 0xEC50, symBinAddr: 0x10002B16C, symSize: 0x24 }
  - { offsetInCU: 0x23B80, offset: 0x71045, size: 0x8, addend: 0x0, symName: __ZNSt3__14__fs10filesystem20__is_pathable_stringINS_12basic_stringIcNS_11char_traitsIcEENS_9allocatorIcEEEEvE11__range_endB8ue170006ERKS8_, symObjAddr: 0xEC74, symBinAddr: 0x10002B190, symSize: 0x3C }
  - { offsetInCU: 0x23BA2, offset: 0x71067, size: 0x8, addend: 0x0, symName: __ZNSt3__112basic_stringIcNS_11char_traitsIcEENS_9allocatorIcEEE6appendB8ue170006IPKcLi0EEERS5_T_SA_, symObjAddr: 0xECB0, symBinAddr: 0x10002B1CC, symSize: 0x1E4 }
  - { offsetInCU: 0x23C57, offset: 0x7111C, size: 0x8, addend: 0x0, symName: __ZNKSt3__112basic_stringIcNS_11char_traitsIcEENS_9allocatorIcEEE8capacityB8ue170006Ev, symObjAddr: 0xEE94, symBinAddr: 0x10002B3B0, symSize: 0x54 }
  - { offsetInCU: 0x23C7B, offset: 0x71140, size: 0x8, addend: 0x0, symName: __ZNKSt3__112basic_stringIcNS_11char_traitsIcEENS_9allocatorIcEEE15__addr_in_rangeB8ue170006IcEEbRKT_, symObjAddr: 0xEF14, symBinAddr: 0x10002B430, symSize: 0x6C }
  - { offsetInCU: 0x23CB7, offset: 0x7117C, size: 0x8, addend: 0x0, symName: __ZNSt3__112basic_stringIcNS_11char_traitsIcEENS_9allocatorIcEEE25__grow_by_without_replaceB8ue170006Emmmmmm, symObjAddr: 0xEF80, symBinAddr: 0x10002B49C, symSize: 0x74 }
  - { offsetInCU: 0x23D38, offset: 0x711FD, size: 0x8, addend: 0x0, symName: __ZNSt3__112basic_stringIcNS_11char_traitsIcEENS_9allocatorIcEEE10__set_sizeB8ue170006Em, symObjAddr: 0xEFF4, symBinAddr: 0x10002B510, symSize: 0x54 }
  - { offsetInCU: 0x23D6B, offset: 0x71230, size: 0x8, addend: 0x0, symName: __ZNSt3__112basic_stringIcNS_11char_traitsIcEENS_9allocatorIcEEEC1B8ue170006IPKcLi0EEET_S9_RKS4_, symObjAddr: 0xF048, symBinAddr: 0x10002B564, symSize: 0x44 }
  - { offsetInCU: 0x23DDA, offset: 0x7129F, size: 0x8, addend: 0x0, symName: __ZNKSt3__16__lessIvvEclB8ue170006IPKcS4_EEbRKT_RKT0_, symObjAddr: 0xF114, symBinAddr: 0x10002B630, symSize: 0x34 }
  - { offsetInCU: 0x23E2D, offset: 0x712F2, size: 0x8, addend: 0x0, symName: __ZNSt3__112basic_stringIcNS_11char_traitsIcEENS_9allocatorIcEEEC2B8ue170006IPKcLi0EEET_S9_RKS4_, symObjAddr: 0xF148, symBinAddr: 0x10002B664, symSize: 0x50 }
  - { offsetInCU: 0x23E92, offset: 0x71357, size: 0x8, addend: 0x0, symName: __ZNSt3__112basic_stringIcNS_11char_traitsIcEENS_9allocatorIcEEE6__initIPKcLi0EEEvT_S9_, symObjAddr: 0xF1D4, symBinAddr: 0x10002B6B4, symSize: 0x54 }
  - { offsetInCU: 0x23EF6, offset: 0x713BB, size: 0x8, addend: 0x0, symName: __ZNSt3__112basic_stringIcNS_11char_traitsIcEENS_9allocatorIcEEE16__init_with_sizeB8ue170006IPKcS8_EEvT_T0_m, symObjAddr: 0xF280, symBinAddr: 0x10002B708, symSize: 0x144 }
  - { offsetInCU: 0x23F89, offset: 0x7144E, size: 0x8, addend: 0x0, symName: __ZNKSt3__112basic_stringIcNS_11char_traitsIcEENS_9allocatorIcEEE6lengthB8ue170006Ev, symObjAddr: 0xF5F4, symBinAddr: 0x10002B88C, symSize: 0x24 }
  - { offsetInCU: 0x23FAD, offset: 0x71472, size: 0x8, addend: 0x0, symName: __ZNSt3__14__fs10filesystem4pathD2B8ue170006Ev, symObjAddr: 0xF618, symBinAddr: 0x10002B8B0, symSize: 0x2C }
  - { offsetInCU: 0x23FD5, offset: 0x7149A, size: 0x8, addend: 0x0, symName: __ZNSt3__16vectorINS_12basic_stringIcNS_11char_traitsIcEENS_9allocatorIcEEEENS4_IS6_EEE11__make_iterB8ue170006EPS6_, symObjAddr: 0xF644, symBinAddr: 0x10002B8DC, symSize: 0x30 }
  - { offsetInCU: 0x24008, offset: 0x714CD, size: 0x8, addend: 0x0, symName: __ZNSt3__111__wrap_iterIPNS_12basic_stringIcNS_11char_traitsIcEENS_9allocatorIcEEEEEC1B8ue170006ES7_, symObjAddr: 0xF674, symBinAddr: 0x10002B90C, symSize: 0x34 }
  - { offsetInCU: 0x2403E, offset: 0x71503, size: 0x8, addend: 0x0, symName: __ZNSt3__111__wrap_iterIPNS_12basic_stringIcNS_11char_traitsIcEENS_9allocatorIcEEEEEC2B8ue170006ES7_, symObjAddr: 0xF6A8, symBinAddr: 0x10002B940, symSize: 0x20 }
  - { offsetInCU: 0x24075, offset: 0x7153A, size: 0x8, addend: 0x0, symName: __ZNKSt3__111__wrap_iterIPNS_12basic_stringIcNS_11char_traitsIcEENS_9allocatorIcEEEEE4baseB8ue170006Ev, symObjAddr: 0xF710, symBinAddr: 0x10002B9A8, symSize: 0x18 }
  - { offsetInCU: 0x2409A, offset: 0x7155F, size: 0x8, addend: 0x0, symName: __ZL8find_colRKNSt3__16vectorINS_12basic_stringIcNS_11char_traitsIcEENS_9allocatorIcEEEENS4_IS6_EEEERKS6_, symObjAddr: 0xF728, symBinAddr: 0x10002B9C0, symSize: 0x9C }
  - { offsetInCU: 0x240F2, offset: 0x715B7, size: 0x8, addend: 0x0, symName: __ZNKSt3__18functionIFNS_6vectorIiNS_9allocatorIiEEEERKNS1_INS_12basic_stringIcNS_11char_traitsIcEENS2_IcEEEENS2_IS9_EEEEEEclESD_, symObjAddr: 0xF7C4, symBinAddr: 0x10002BA5C, symSize: 0x34 }
  - { offsetInCU: 0x24128, offset: 0x715ED, size: 0x8, addend: 0x0, symName: __ZNSt3__16vectorINS0_IdNS_9allocatorIdEEEENS1_IS3_EEE6resizeEm, symObjAddr: 0xF7F8, symBinAddr: 0x10002BA90, symSize: 0x9C }
  - { offsetInCU: 0x2416D, offset: 0x71632, size: 0x8, addend: 0x0, symName: __ZNSt3__16vectorIiNS_9allocatorIiEEEixB8ue170006Em, symObjAddr: 0xF894, symBinAddr: 0x10002BB2C, symSize: 0x24 }
  - { offsetInCU: 0x241A3, offset: 0x71668, size: 0x8, addend: 0x0, symName: __ZNKSt3__16vectorINS_12basic_stringIcNS_11char_traitsIcEENS_9allocatorIcEEEENS4_IS6_EEEixB8ue170006Em, symObjAddr: 0xFA00, symBinAddr: 0x10002BB50, symSize: 0x2C }
  - { offsetInCU: 0x241D9, offset: 0x7169E, size: 0x8, addend: 0x0, symName: __ZNKSt3__110__function12__value_funcIFNS_6vectorIiNS_9allocatorIiEEEERKNS2_INS_12basic_stringIcNS_11char_traitsIcEENS3_IcEEEENS3_ISA_EEEEEEclB8ue170006ESE_, symObjAddr: 0xFA2C, symBinAddr: 0x10002BB7C, symSize: 0x64 }
  - { offsetInCU: 0x24211, offset: 0x716D6, size: 0x8, addend: 0x0, symName: __ZNSt3__117bad_function_callC1Ev, symObjAddr: 0xFAC8, symBinAddr: 0x10002BC18, symSize: 0x2C }
  - { offsetInCU: 0x2423B, offset: 0x71700, size: 0x8, addend: 0x0, symName: __ZNSt3__117bad_function_callD1Ev, symObjAddr: 0xFAF4, symBinAddr: 0x10002BC44, symSize: 0x2C }
  - { offsetInCU: 0x24263, offset: 0x71728, size: 0x8, addend: 0x0, symName: __ZNSt3__117bad_function_callC2Ev, symObjAddr: 0xFB20, symBinAddr: 0x10002BC70, symSize: 0x44 }
  - { offsetInCU: 0x2428D, offset: 0x71752, size: 0x8, addend: 0x0, symName: __ZNSt9exceptionC2B8ue170006Ev, symObjAddr: 0xFB64, symBinAddr: 0x10002BCB4, symSize: 0x24 }
  - { offsetInCU: 0x242B6, offset: 0x7177B, size: 0x8, addend: 0x0, symName: __ZNSt3__117bad_function_callD0Ev, symObjAddr: 0xFB88, symBinAddr: 0x10002BCD8, symSize: 0x30 }
  - { offsetInCU: 0x242DE, offset: 0x717A3, size: 0x8, addend: 0x0, symName: __ZNSt3__117bad_function_callD2Ev, symObjAddr: 0xFBB8, symBinAddr: 0x10002BD08, symSize: 0x2C }
  - { offsetInCU: 0x24306, offset: 0x717CB, size: 0x8, addend: 0x0, symName: __ZNSt3__16vectorINS0_IdNS_9allocatorIdEEEENS1_IS3_EEE8__appendEm, symObjAddr: 0xFBE4, symBinAddr: 0x10002BD34, symSize: 0x108 }
  - { offsetInCU: 0x24360, offset: 0x71825, size: 0x8, addend: 0x0, symName: __ZNSt3__16vectorINS0_IdNS_9allocatorIdEEEENS1_IS3_EEE17__destruct_at_endB8ue170006EPS3_, symObjAddr: 0xFCEC, symBinAddr: 0x10002BE3C, symSize: 0x4C }
  - { offsetInCU: 0x243A2, offset: 0x71867, size: 0x8, addend: 0x0, symName: __ZNSt3__16vectorINS0_IdNS_9allocatorIdEEEENS1_IS3_EEE9__end_capB8ue170006Ev, symObjAddr: 0xFD38, symBinAddr: 0x10002BE88, symSize: 0x28 }
  - { offsetInCU: 0x243C6, offset: 0x7188B, size: 0x8, addend: 0x0, symName: __ZNSt3__16vectorINS0_IdNS_9allocatorIdEEEENS1_IS3_EEE18__construct_at_endEm, symObjAddr: 0xFD60, symBinAddr: 0x10002BEB0, symSize: 0xC8 }
  - { offsetInCU: 0x24438, offset: 0x718FD, size: 0x8, addend: 0x0, symName: __ZNSt3__16vectorINS0_IdNS_9allocatorIdEEEENS1_IS3_EEE7__allocB8ue170006Ev, symObjAddr: 0xFE28, symBinAddr: 0x10002BF78, symSize: 0x28 }
  - { offsetInCU: 0x2445C, offset: 0x71921, size: 0x8, addend: 0x0, symName: __ZNKSt3__16vectorINS0_IdNS_9allocatorIdEEEENS1_IS3_EEE11__recommendB8ue170006Em, symObjAddr: 0xFE50, symBinAddr: 0x10002BFA0, symSize: 0xB4 }
  - { offsetInCU: 0x244B0, offset: 0x71975, size: 0x8, addend: 0x0, symName: __ZNSt3__114__split_bufferINS_6vectorIdNS_9allocatorIdEEEERNS2_IS4_EEEC1EmmS6_, symObjAddr: 0xFF04, symBinAddr: 0x10002C054, symSize: 0x44 }
  - { offsetInCU: 0x24504, offset: 0x719C9, size: 0x8, addend: 0x0, symName: __ZNSt3__114__split_bufferINS_6vectorIdNS_9allocatorIdEEEERNS2_IS4_EEE18__construct_at_endEm, symObjAddr: 0xFF48, symBinAddr: 0x10002C098, symSize: 0xB4 }
  - { offsetInCU: 0x24548, offset: 0x71A0D, size: 0x8, addend: 0x0, symName: __ZNSt3__114__split_bufferINS_6vectorIdNS_9allocatorIdEEEERNS2_IS4_EEED1Ev, symObjAddr: 0x1010C, symBinAddr: 0x10002C25C, symSize: 0x2C }
  - { offsetInCU: 0x24572, offset: 0x71A37, size: 0x8, addend: 0x0, symName: __ZNSt3__117__compressed_pairIPNS_6vectorIdNS_9allocatorIdEEEENS2_IS4_EEE5firstB8ue170006Ev, symObjAddr: 0x10138, symBinAddr: 0x10002C288, symSize: 0x24 }
  - { offsetInCU: 0x24596, offset: 0x71A5B, size: 0x8, addend: 0x0, symName: __ZNSt3__122__compressed_pair_elemIPNS_6vectorIdNS_9allocatorIdEEEELi0ELb0EE5__getB8ue170006Ev, symObjAddr: 0x1015C, symBinAddr: 0x10002C2AC, symSize: 0x14 }
  - { offsetInCU: 0x245D4, offset: 0x71A99, size: 0x8, addend: 0x0, symName: __ZNSt3__16vectorINS0_IdNS_9allocatorIdEEEENS1_IS3_EEE21_ConstructTransactionC1B8ue170006ERS5_m, symObjAddr: 0x10170, symBinAddr: 0x10002C2C0, symSize: 0x3C }
  - { offsetInCU: 0x2461A, offset: 0x71ADF, size: 0x8, addend: 0x0, symName: __ZNSt3__116allocator_traitsINS_9allocatorINS_6vectorIdNS1_IdEEEEEEE9constructB8ue170006IS4_JEvEEvRS5_PT_DpOT0_, symObjAddr: 0x101AC, symBinAddr: 0x10002C2FC, symSize: 0x2C }
  - { offsetInCU: 0x2465D, offset: 0x71B22, size: 0x8, addend: 0x0, symName: __ZNSt3__16vectorINS0_IdNS_9allocatorIdEEEENS1_IS3_EEE21_ConstructTransactionD1B8ue170006Ev, symObjAddr: 0x101EC, symBinAddr: 0x10002C33C, symSize: 0x2C }
  - { offsetInCU: 0x24685, offset: 0x71B4A, size: 0x8, addend: 0x0, symName: __ZNSt3__16vectorINS0_IdNS_9allocatorIdEEEENS1_IS3_EEE21_ConstructTransactionC2B8ue170006ERS5_m, symObjAddr: 0x10218, symBinAddr: 0x10002C368, symSize: 0x4C }
  - { offsetInCU: 0x246CC, offset: 0x71B91, size: 0x8, addend: 0x0, symName: __ZNSt3__19allocatorINS_6vectorIdNS0_IdEEEEE9constructB8ue170006IS3_JEEEvPT_DpOT0_, symObjAddr: 0x10264, symBinAddr: 0x10002C3B4, symSize: 0x28 }
  - { offsetInCU: 0x2470D, offset: 0x71BD2, size: 0x8, addend: 0x0, symName: __ZNSt3__16vectorINS0_IdNS_9allocatorIdEEEENS1_IS3_EEE21_ConstructTransactionD2B8ue170006Ev, symObjAddr: 0x1028C, symBinAddr: 0x10002C3DC, symSize: 0x20 }
  - { offsetInCU: 0x24736, offset: 0x71BFB, size: 0x8, addend: 0x0, symName: __ZNSt3__117__compressed_pairIPNS_6vectorIdNS_9allocatorIdEEEENS2_IS4_EEE6secondB8ue170006Ev, symObjAddr: 0x102AC, symBinAddr: 0x10002C3FC, symSize: 0x24 }
  - { offsetInCU: 0x2475A, offset: 0x71C1F, size: 0x8, addend: 0x0, symName: __ZNSt3__122__compressed_pair_elemINS_9allocatorINS_6vectorIdNS1_IdEEEEEELi1ELb1EE5__getB8ue170006Ev, symObjAddr: 0x102D0, symBinAddr: 0x10002C420, symSize: 0x14 }
  - { offsetInCU: 0x2477F, offset: 0x71C44, size: 0x8, addend: 0x0, symName: __ZNKSt3__16vectorINS0_IdNS_9allocatorIdEEEENS1_IS3_EEE8max_sizeEv, symObjAddr: 0x102E4, symBinAddr: 0x10002C434, symSize: 0x60 }
  - { offsetInCU: 0x247A6, offset: 0x71C6B, size: 0x8, addend: 0x0, symName: __ZNKSt3__16vectorINS0_IdNS_9allocatorIdEEEENS1_IS3_EEE20__throw_length_errorB8ue170006Ev, symObjAddr: 0x10344, symBinAddr: 0x10002C494, symSize: 0x1C }
  - { offsetInCU: 0x247CA, offset: 0x71C8F, size: 0x8, addend: 0x0, symName: __ZNKSt3__16vectorINS0_IdNS_9allocatorIdEEEENS1_IS3_EEE8capacityB8ue170006Ev, symObjAddr: 0x10360, symBinAddr: 0x10002C4B0, symSize: 0x40 }
  - { offsetInCU: 0x247F8, offset: 0x71CBD, size: 0x8, addend: 0x0, symName: __ZNSt3__116allocator_traitsINS_9allocatorINS_6vectorIdNS1_IdEEEEEEE8max_sizeB8ue170006IS5_vEEmRKS5_, symObjAddr: 0x103A0, symBinAddr: 0x10002C4F0, symSize: 0x24 }
  - { offsetInCU: 0x24826, offset: 0x71CEB, size: 0x8, addend: 0x0, symName: __ZNKSt3__16vectorINS0_IdNS_9allocatorIdEEEENS1_IS3_EEE7__allocB8ue170006Ev, symObjAddr: 0x103C4, symBinAddr: 0x10002C514, symSize: 0x28 }
  - { offsetInCU: 0x2484A, offset: 0x71D0F, size: 0x8, addend: 0x0, symName: __ZNKSt3__19allocatorINS_6vectorIdNS0_IdEEEEE8max_sizeB8ue170006Ev, symObjAddr: 0x103EC, symBinAddr: 0x10002C53C, symSize: 0x18 }
  - { offsetInCU: 0x2486F, offset: 0x71D34, size: 0x8, addend: 0x0, symName: __ZNKSt3__117__compressed_pairIPNS_6vectorIdNS_9allocatorIdEEEENS2_IS4_EEE6secondB8ue170006Ev, symObjAddr: 0x10404, symBinAddr: 0x10002C554, symSize: 0x24 }
  - { offsetInCU: 0x24893, offset: 0x71D58, size: 0x8, addend: 0x0, symName: __ZNKSt3__122__compressed_pair_elemINS_9allocatorINS_6vectorIdNS1_IdEEEEEELi1ELb1EE5__getB8ue170006Ev, symObjAddr: 0x10428, symBinAddr: 0x10002C578, symSize: 0x14 }
  - { offsetInCU: 0x248B8, offset: 0x71D7D, size: 0x8, addend: 0x0, symName: __ZNKSt3__16vectorINS0_IdNS_9allocatorIdEEEENS1_IS3_EEE9__end_capB8ue170006Ev, symObjAddr: 0x1043C, symBinAddr: 0x10002C58C, symSize: 0x28 }
  - { offsetInCU: 0x248DC, offset: 0x71DA1, size: 0x8, addend: 0x0, symName: __ZNKSt3__117__compressed_pairIPNS_6vectorIdNS_9allocatorIdEEEENS2_IS4_EEE5firstB8ue170006Ev, symObjAddr: 0x10464, symBinAddr: 0x10002C5B4, symSize: 0x24 }
  - { offsetInCU: 0x24900, offset: 0x71DC5, size: 0x8, addend: 0x0, symName: __ZNKSt3__122__compressed_pair_elemIPNS_6vectorIdNS_9allocatorIdEEEELi0ELb0EE5__getB8ue170006Ev, symObjAddr: 0x10488, symBinAddr: 0x10002C5D8, symSize: 0x14 }
  - { offsetInCU: 0x24925, offset: 0x71DEA, size: 0x8, addend: 0x0, symName: __ZNSt3__114__split_bufferINS_6vectorIdNS_9allocatorIdEEEERNS2_IS4_EEEC2EmmS6_, symObjAddr: 0x1049C, symBinAddr: 0x10002C5EC, symSize: 0xE0 }
  - { offsetInCU: 0x24997, offset: 0x71E5C, size: 0x8, addend: 0x0, symName: __ZNSt3__117__compressed_pairIPNS_6vectorIdNS_9allocatorIdEEEERNS2_IS4_EEEC1B8ue170006IDnS7_EEOT_OT0_, symObjAddr: 0x1057C, symBinAddr: 0x10002C6CC, symSize: 0x3C }
  - { offsetInCU: 0x249ED, offset: 0x71EB2, size: 0x8, addend: 0x0, symName: __ZNSt3__114__split_bufferINS_6vectorIdNS_9allocatorIdEEEERNS2_IS4_EEE7__allocB8ue170006Ev, symObjAddr: 0x105F8, symBinAddr: 0x10002C748, symSize: 0x28 }
  - { offsetInCU: 0x24A11, offset: 0x71ED6, size: 0x8, addend: 0x0, symName: __ZNSt3__114__split_bufferINS_6vectorIdNS_9allocatorIdEEEERNS2_IS4_EEE9__end_capB8ue170006Ev, symObjAddr: 0x10620, symBinAddr: 0x10002C770, symSize: 0x28 }
  - { offsetInCU: 0x24A35, offset: 0x71EFA, size: 0x8, addend: 0x0, symName: __ZNSt3__117__compressed_pairIPNS_6vectorIdNS_9allocatorIdEEEERNS2_IS4_EEEC2B8ue170006IDnS7_EEOT_OT0_, symObjAddr: 0x10648, symBinAddr: 0x10002C798, symSize: 0x48 }
  - { offsetInCU: 0x24A8B, offset: 0x71F50, size: 0x8, addend: 0x0, symName: __ZNSt3__122__compressed_pair_elemIPNS_6vectorIdNS_9allocatorIdEEEELi0ELb0EEC2B8ue170006IDnvEEOT_, symObjAddr: 0x10690, symBinAddr: 0x10002C7E0, symSize: 0x1C }
  - { offsetInCU: 0x24ACD, offset: 0x71F92, size: 0x8, addend: 0x0, symName: __ZNSt3__122__compressed_pair_elemIRNS_9allocatorINS_6vectorIdNS1_IdEEEEEELi1ELb0EEC2B8ue170006IS6_vEEOT_, symObjAddr: 0x106AC, symBinAddr: 0x10002C7FC, symSize: 0x20 }
  - { offsetInCU: 0x24B0F, offset: 0x71FD4, size: 0x8, addend: 0x0, symName: __ZNSt3__19allocatorINS_6vectorIdNS0_IdEEEEE8allocateB8ue170006Em, symObjAddr: 0x106CC, symBinAddr: 0x10002C81C, symSize: 0x5C }
  - { offsetInCU: 0x24B41, offset: 0x72006, size: 0x8, addend: 0x0, symName: __ZNSt3__117__compressed_pairIPNS_6vectorIdNS_9allocatorIdEEEERNS2_IS4_EEE6secondB8ue170006Ev, symObjAddr: 0x10728, symBinAddr: 0x10002C878, symSize: 0x28 }
  - { offsetInCU: 0x24B65, offset: 0x7202A, size: 0x8, addend: 0x0, symName: __ZNSt3__122__compressed_pair_elemIRNS_9allocatorINS_6vectorIdNS1_IdEEEEEELi1ELb0EE5__getB8ue170006Ev, symObjAddr: 0x10750, symBinAddr: 0x10002C8A0, symSize: 0x18 }
  - { offsetInCU: 0x24B8A, offset: 0x7204F, size: 0x8, addend: 0x0, symName: __ZNSt3__117__compressed_pairIPNS_6vectorIdNS_9allocatorIdEEEERNS2_IS4_EEE5firstB8ue170006Ev, symObjAddr: 0x10768, symBinAddr: 0x10002C8B8, symSize: 0x24 }
  - { offsetInCU: 0x24BB8, offset: 0x7207D, size: 0x8, addend: 0x0, symName: __ZNSt3__114__split_bufferINS_6vectorIdNS_9allocatorIdEEEERNS2_IS4_EEE21_ConstructTransactionC1B8ue170006EPPS4_m, symObjAddr: 0x1078C, symBinAddr: 0x10002C8DC, symSize: 0x3C }
  - { offsetInCU: 0x24BFC, offset: 0x720C1, size: 0x8, addend: 0x0, symName: __ZNSt3__114__split_bufferINS_6vectorIdNS_9allocatorIdEEEERNS2_IS4_EEE21_ConstructTransactionD1B8ue170006Ev, symObjAddr: 0x107C8, symBinAddr: 0x10002C918, symSize: 0x2C }
  - { offsetInCU: 0x24C24, offset: 0x720E9, size: 0x8, addend: 0x0, symName: __ZNSt3__114__split_bufferINS_6vectorIdNS_9allocatorIdEEEERNS2_IS4_EEE21_ConstructTransactionC2B8ue170006EPPS4_m, symObjAddr: 0x107F4, symBinAddr: 0x10002C944, symSize: 0x4C }
  - { offsetInCU: 0x24C69, offset: 0x7212E, size: 0x8, addend: 0x0, symName: __ZNSt3__114__split_bufferINS_6vectorIdNS_9allocatorIdEEEERNS2_IS4_EEE21_ConstructTransactionD2B8ue170006Ev, symObjAddr: 0x10840, symBinAddr: 0x10002C990, symSize: 0x20 }
  - { offsetInCU: 0x24C92, offset: 0x72157, size: 0x8, addend: 0x0, symName: __ZNKSt3__16vectorINS0_IdNS_9allocatorIdEEEENS1_IS3_EEE17__annotate_deleteB8ue170006Ev, symObjAddr: 0x10860, symBinAddr: 0x10002C9B0, symSize: 0xD4 }
  - { offsetInCU: 0x24CB6, offset: 0x7217B, size: 0x8, addend: 0x0, symName: __ZNSt3__116reverse_iteratorIPNS_6vectorIdNS_9allocatorIdEEEEEC1B8ue170006ES5_, symObjAddr: 0x10A60, symBinAddr: 0x10002CBB0, symSize: 0x34 }
  - { offsetInCU: 0x24CEC, offset: 0x721B1, size: 0x8, addend: 0x0, symName: __ZNKSt3__116reverse_iteratorIPNS_6vectorIdNS_9allocatorIdEEEEE4baseB8ue170006Ev, symObjAddr: 0x10A94, symBinAddr: 0x10002CBE4, symSize: 0x18 }
  - { offsetInCU: 0x24D11, offset: 0x721D6, size: 0x8, addend: 0x0, symName: __ZNKSt3__16vectorINS0_IdNS_9allocatorIdEEEENS1_IS3_EEE14__annotate_newB8ue170006Em, symObjAddr: 0x10AE8, symBinAddr: 0x10002CC38, symSize: 0xC8 }
  - { offsetInCU: 0x24D44, offset: 0x72209, size: 0x8, addend: 0x0, symName: __ZNKSt3__16vectorINS0_IdNS_9allocatorIdEEEENS1_IS3_EEE31__annotate_contiguous_containerB8ue170006EPKvS7_S7_S7_, symObjAddr: 0x10BB0, symBinAddr: 0x10002CD00, symSize: 0x20 }
  - { offsetInCU: 0x24D99, offset: 0x7225E, size: 0x8, addend: 0x0, symName: __ZNKSt3__16vectorINS0_IdNS_9allocatorIdEEEENS1_IS3_EEE4dataB8ue170006Ev, symObjAddr: 0x10BD0, symBinAddr: 0x10002CD20, symSize: 0x28 }
  - { offsetInCU: 0x24DBD, offset: 0x72282, size: 0x8, addend: 0x0, symName: __ZNSt3__129_AllocatorDestroyRangeReverseINS_9allocatorINS_6vectorIdNS1_IdEEEEEENS_16reverse_iteratorIPS4_EEEC1B8ue170006ERS5_RS8_SB_, symObjAddr: 0x10C44, symBinAddr: 0x10002CD94, symSize: 0x44 }
  - { offsetInCU: 0x24E12, offset: 0x722D7, size: 0x8, addend: 0x0, symName: __ZNSt3__116allocator_traitsINS_9allocatorINS_6vectorIdNS1_IdEEEEEEE9constructB8ue170006IS4_JS4_EvEEvRS5_PT_DpOT0_, symObjAddr: 0x10CD0, symBinAddr: 0x10002CE20, symSize: 0x34 }
  - { offsetInCU: 0x24E6B, offset: 0x72330, size: 0x8, addend: 0x0, symName: __ZNKSt3__116reverse_iteratorIPNS_6vectorIdNS_9allocatorIdEEEEEdeB8ue170006Ev, symObjAddr: 0x10D28, symBinAddr: 0x10002CE78, symSize: 0x28 }
  - { offsetInCU: 0x24E9E, offset: 0x72363, size: 0x8, addend: 0x0, symName: __ZNSt3__116reverse_iteratorIPNS_6vectorIdNS_9allocatorIdEEEEEppB8ue170006Ev, symObjAddr: 0x10D50, symBinAddr: 0x10002CEA0, symSize: 0x20 }
  - { offsetInCU: 0x24EC3, offset: 0x72388, size: 0x8, addend: 0x0, symName: __ZNSt3__128__exception_guard_exceptionsINS_29_AllocatorDestroyRangeReverseINS_9allocatorINS_6vectorIdNS2_IdEEEEEENS_16reverse_iteratorIPS5_EEEEE10__completeB8ue170006Ev, symObjAddr: 0x10D70, symBinAddr: 0x10002CEC0, symSize: 0x1C }
  - { offsetInCU: 0x24EE8, offset: 0x723AD, size: 0x8, addend: 0x0, symName: __ZNSt3__128__exception_guard_exceptionsINS_29_AllocatorDestroyRangeReverseINS_9allocatorINS_6vectorIdNS2_IdEEEEEENS_16reverse_iteratorIPS5_EEEEED1B8ue170006Ev, symObjAddr: 0x10D8C, symBinAddr: 0x10002CEDC, symSize: 0x2C }
  - { offsetInCU: 0x24F10, offset: 0x723D5, size: 0x8, addend: 0x0, symName: __ZNSt3__128__exception_guard_exceptionsINS_29_AllocatorDestroyRangeReverseINS_9allocatorINS_6vectorIdNS2_IdEEEEEENS_16reverse_iteratorIPS5_EEEEEC1B8ue170006ESA_, symObjAddr: 0x10DB8, symBinAddr: 0x10002CF08, symSize: 0x34 }
  - { offsetInCU: 0x24F47, offset: 0x7240C, size: 0x8, addend: 0x0, symName: __ZNSt3__128__exception_guard_exceptionsINS_29_AllocatorDestroyRangeReverseINS_9allocatorINS_6vectorIdNS2_IdEEEEEENS_16reverse_iteratorIPS5_EEEEEC2B8ue170006ESA_, symObjAddr: 0x10DEC, symBinAddr: 0x10002CF3C, symSize: 0x30 }
  - { offsetInCU: 0x24F7F, offset: 0x72444, size: 0x8, addend: 0x0, symName: __ZNSt3__129_AllocatorDestroyRangeReverseINS_9allocatorINS_6vectorIdNS1_IdEEEEEENS_16reverse_iteratorIPS4_EEEC2B8ue170006ERS5_RS8_SB_, symObjAddr: 0x10E1C, symBinAddr: 0x10002CF6C, symSize: 0x38 }
  - { offsetInCU: 0x24FD5, offset: 0x7249A, size: 0x8, addend: 0x0, symName: __ZNSt3__19allocatorINS_6vectorIdNS0_IdEEEEE9constructB8ue170006IS3_JS3_EEEvPT_DpOT0_, symObjAddr: 0x10E54, symBinAddr: 0x10002CFA4, symSize: 0x30 }
  - { offsetInCU: 0x2502B, offset: 0x724F0, size: 0x8, addend: 0x0, symName: __ZNSt3__16vectorIdNS_9allocatorIdEEEC1B8ue170006EOS3_, symObjAddr: 0x10E84, symBinAddr: 0x10002CFD4, symSize: 0x34 }
  - { offsetInCU: 0x25064, offset: 0x72529, size: 0x8, addend: 0x0, symName: __ZNSt3__16vectorIdNS_9allocatorIdEEEC2B8ue170006EOS3_, symObjAddr: 0x10EB8, symBinAddr: 0x10002D008, symSize: 0xC4 }
  - { offsetInCU: 0x250A2, offset: 0x72567, size: 0x8, addend: 0x0, symName: __ZNSt3__119__to_address_helperINS_16reverse_iteratorIPNS_6vectorIdNS_9allocatorIdEEEEEEvE6__callB8ue170006ERKS7_, symObjAddr: 0x110F0, symBinAddr: 0x10002D0CC, symSize: 0x38 }
  - { offsetInCU: 0x250C4, offset: 0x72589, size: 0x8, addend: 0x0, symName: __ZNKSt3__116reverse_iteratorIPNS_6vectorIdNS_9allocatorIdEEEEEptB8ue170006Ev, symObjAddr: 0x11128, symBinAddr: 0x10002D104, symSize: 0x24 }
  - { offsetInCU: 0x250E8, offset: 0x725AD, size: 0x8, addend: 0x0, symName: __ZNSt3__128__exception_guard_exceptionsINS_29_AllocatorDestroyRangeReverseINS_9allocatorINS_6vectorIdNS2_IdEEEEEENS_16reverse_iteratorIPS5_EEEEED2B8ue170006Ev, symObjAddr: 0x1114C, symBinAddr: 0x10002D128, symSize: 0x50 }
  - { offsetInCU: 0x25110, offset: 0x725D5, size: 0x8, addend: 0x0, symName: __ZNKSt3__129_AllocatorDestroyRangeReverseINS_9allocatorINS_6vectorIdNS1_IdEEEEEENS_16reverse_iteratorIPS4_EEEclB8ue170006Ev, symObjAddr: 0x1119C, symBinAddr: 0x10002D178, symSize: 0xB4 }
  - { offsetInCU: 0x25135, offset: 0x725FA, size: 0x8, addend: 0x0, symName: __ZNSt3__116reverse_iteratorINS0_IPNS_6vectorIdNS_9allocatorIdEEEEEEEC1B8ue170006ES6_, symObjAddr: 0x112C0, symBinAddr: 0x10002D29C, symSize: 0x3C }
  - { offsetInCU: 0x2516B, offset: 0x72630, size: 0x8, addend: 0x0, symName: __ZNSt3__116allocator_traitsINS_9allocatorINS_6vectorIdNS1_IdEEEEEEE7destroyB8ue170006IS4_vEEvRS5_PT_, symObjAddr: 0x1135C, symBinAddr: 0x10002D338, symSize: 0x2C }
  - { offsetInCU: 0x251A8, offset: 0x7266D, size: 0x8, addend: 0x0, symName: __ZNSt3__116reverse_iteratorINS0_IPNS_6vectorIdNS_9allocatorIdEEEEEEEppB8ue170006Ev, symObjAddr: 0x113AC, symBinAddr: 0x10002D388, symSize: 0x30 }
  - { offsetInCU: 0x251CC, offset: 0x72691, size: 0x8, addend: 0x0, symName: __ZNKSt3__116reverse_iteratorINS0_IPNS_6vectorIdNS_9allocatorIdEEEEEEE4baseB8ue170006Ev, symObjAddr: 0x113DC, symBinAddr: 0x10002D3B8, symSize: 0x24 }
  - { offsetInCU: 0x251F1, offset: 0x726B6, size: 0x8, addend: 0x0, symName: __ZNSt3__19allocatorINS_6vectorIdNS0_IdEEEEE7destroyB8ue170006EPS3_, symObjAddr: 0x11400, symBinAddr: 0x10002D3DC, symSize: 0x28 }
  - { offsetInCU: 0x25228, offset: 0x726ED, size: 0x8, addend: 0x0, symName: __ZNSt3__119__to_address_helperINS_16reverse_iteratorINS1_IPNS_6vectorIdNS_9allocatorIdEEEEEEEEvE6__callB8ue170006ERKS8_, symObjAddr: 0x11428, symBinAddr: 0x10002D404, symSize: 0x38 }
  - { offsetInCU: 0x2524A, offset: 0x7270F, size: 0x8, addend: 0x0, symName: __ZNKSt3__116reverse_iteratorINS0_IPNS_6vectorIdNS_9allocatorIdEEEEEEEptB8ue170006Ev, symObjAddr: 0x11460, symBinAddr: 0x10002D43C, symSize: 0x24 }
  - { offsetInCU: 0x2526E, offset: 0x72733, size: 0x8, addend: 0x0, symName: __ZNKSt3__116reverse_iteratorINS0_IPNS_6vectorIdNS_9allocatorIdEEEEEEEdeB8ue170006Ev, symObjAddr: 0x11484, symBinAddr: 0x10002D460, symSize: 0x34 }
  - { offsetInCU: 0x252A0, offset: 0x72765, size: 0x8, addend: 0x0, symName: __ZNSt3__116reverse_iteratorIPNS_6vectorIdNS_9allocatorIdEEEEEmmB8ue170006Ev, symObjAddr: 0x114B8, symBinAddr: 0x10002D494, symSize: 0x20 }
  - { offsetInCU: 0x252C5, offset: 0x7278A, size: 0x8, addend: 0x0, symName: __ZNSt3__116reverse_iteratorINS0_IPNS_6vectorIdNS_9allocatorIdEEEEEEEC2B8ue170006ES6_, symObjAddr: 0x114D8, symBinAddr: 0x10002D4B4, symSize: 0x2C }
  - { offsetInCU: 0x252FC, offset: 0x727C1, size: 0x8, addend: 0x0, symName: __ZNSt3__116reverse_iteratorIPNS_6vectorIdNS_9allocatorIdEEEEEC2B8ue170006ES5_, symObjAddr: 0x11504, symBinAddr: 0x10002D4E0, symSize: 0x28 }
  - { offsetInCU: 0x25333, offset: 0x727F8, size: 0x8, addend: 0x0, symName: __ZNSt3__114__split_bufferINS_6vectorIdNS_9allocatorIdEEEERNS2_IS4_EEED2Ev, symObjAddr: 0x1152C, symBinAddr: 0x10002D508, symSize: 0x8C }
  - { offsetInCU: 0x2535D, offset: 0x72822, size: 0x8, addend: 0x0, symName: __ZNSt3__114__split_bufferINS_6vectorIdNS_9allocatorIdEEEERNS2_IS4_EEE5clearB8ue170006Ev, symObjAddr: 0x115B8, symBinAddr: 0x10002D594, symSize: 0x28 }
  - { offsetInCU: 0x25381, offset: 0x72846, size: 0x8, addend: 0x0, symName: __ZNSt3__116allocator_traitsINS_9allocatorINS_6vectorIdNS1_IdEEEEEEE10deallocateB8ue170006ERS5_PS4_m, symObjAddr: 0x115E0, symBinAddr: 0x10002D5BC, symSize: 0x34 }
  - { offsetInCU: 0x253C2, offset: 0x72887, size: 0x8, addend: 0x0, symName: __ZNKSt3__114__split_bufferINS_6vectorIdNS_9allocatorIdEEEERNS2_IS4_EEE8capacityB8ue170006Ev, symObjAddr: 0x11614, symBinAddr: 0x10002D5F0, symSize: 0x40 }
  - { offsetInCU: 0x253E6, offset: 0x728AB, size: 0x8, addend: 0x0, symName: __ZNSt3__114__split_bufferINS_6vectorIdNS_9allocatorIdEEEERNS2_IS4_EEE17__destruct_at_endB8ue170006EPS4_, symObjAddr: 0x11654, symBinAddr: 0x10002D630, symSize: 0x2C }
  - { offsetInCU: 0x25418, offset: 0x728DD, size: 0x8, addend: 0x0, symName: __ZNSt3__114__split_bufferINS_6vectorIdNS_9allocatorIdEEEERNS2_IS4_EEE17__destruct_at_endB8ue170006EPS4_NS_17integral_constantIbLb0EEE, symObjAddr: 0x11680, symBinAddr: 0x10002D65C, symSize: 0x80 }
  - { offsetInCU: 0x25458, offset: 0x7291D, size: 0x8, addend: 0x0, symName: __ZNSt3__19allocatorINS_6vectorIdNS0_IdEEEEE10deallocateB8ue170006EPS3_m, symObjAddr: 0x11700, symBinAddr: 0x10002D6DC, symSize: 0x44 }
  - { offsetInCU: 0x25498, offset: 0x7295D, size: 0x8, addend: 0x0, symName: __ZNKSt3__114__split_bufferINS_6vectorIdNS_9allocatorIdEEEERNS2_IS4_EEE9__end_capB8ue170006Ev, symObjAddr: 0x11744, symBinAddr: 0x10002D720, symSize: 0x28 }
  - { offsetInCU: 0x254BC, offset: 0x72981, size: 0x8, addend: 0x0, symName: __ZNKSt3__117__compressed_pairIPNS_6vectorIdNS_9allocatorIdEEEERNS2_IS4_EEE5firstB8ue170006Ev, symObjAddr: 0x1176C, symBinAddr: 0x10002D748, symSize: 0x24 }
  - { offsetInCU: 0x254E0, offset: 0x729A5, size: 0x8, addend: 0x0, symName: __ZNSt3__16vectorINS0_IdNS_9allocatorIdEEEENS1_IS3_EEE22__base_destruct_at_endB8ue170006EPS3_, symObjAddr: 0x11790, symBinAddr: 0x10002D76C, symSize: 0x8C }
  - { offsetInCU: 0x25522, offset: 0x729E7, size: 0x8, addend: 0x0, symName: __ZNKSt3__16vectorINS0_IdNS_9allocatorIdEEEENS1_IS3_EEE17__annotate_shrinkB8ue170006Em, symObjAddr: 0x1181C, symBinAddr: 0x10002D7F8, symSize: 0xD0 }
  - { offsetInCU: 0x25555, offset: 0x72A1A, size: 0x8, addend: 0x0, symName: __ZNSt3__16vectorINS_12basic_stringIcNS_11char_traitsIcEENS_9allocatorIcEEEENS4_IS6_EEEaSB8ue170006EOS8_, symObjAddr: 0x118EC, symBinAddr: 0x10002D8C8, symSize: 0x34 }
  - { offsetInCU: 0x2558B, offset: 0x72A50, size: 0x8, addend: 0x0, symName: __ZNSt3__16vectorINS0_IdNS_9allocatorIdEEEENS1_IS3_EEEaSB8ue170006EOS5_, symObjAddr: 0x11920, symBinAddr: 0x10002D8FC, symSize: 0x34 }
  - { offsetInCU: 0x255C1, offset: 0x72A86, size: 0x8, addend: 0x0, symName: __ZNSt3__16vectorINS_12basic_stringIcNS_11char_traitsIcEENS_9allocatorIcEEEENS4_IS6_EEE13__move_assignERS8_NS_17integral_constantIbLb1EEE, symObjAddr: 0x11954, symBinAddr: 0x10002D930, symSize: 0x94 }
  - { offsetInCU: 0x25603, offset: 0x72AC8, size: 0x8, addend: 0x0, symName: __ZNSt3__16vectorINS_12basic_stringIcNS_11char_traitsIcEENS_9allocatorIcEEEENS4_IS6_EEE13__vdeallocateEv, symObjAddr: 0x119E8, symBinAddr: 0x10002D9C4, symSize: 0x94 }
  - { offsetInCU: 0x2562A, offset: 0x72AEF, size: 0x8, addend: 0x0, symName: __ZNSt3__16vectorINS_12basic_stringIcNS_11char_traitsIcEENS_9allocatorIcEEEENS4_IS6_EEE19__move_assign_allocB8ue170006ERS8_, symObjAddr: 0x11A7C, symBinAddr: 0x10002DA58, symSize: 0x2C }
  - { offsetInCU: 0x2565D, offset: 0x72B22, size: 0x8, addend: 0x0, symName: __ZNSt3__16vectorINS_12basic_stringIcNS_11char_traitsIcEENS_9allocatorIcEEEENS4_IS6_EEE5clearB8ue170006Ev, symObjAddr: 0x11AA8, symBinAddr: 0x10002DA84, symSize: 0x44 }
  - { offsetInCU: 0x25690, offset: 0x72B55, size: 0x8, addend: 0x0, symName: __ZNKSt3__16vectorINS_12basic_stringIcNS_11char_traitsIcEENS_9allocatorIcEEEENS4_IS6_EEE17__annotate_shrinkB8ue170006Em, symObjAddr: 0x11B14, symBinAddr: 0x10002DAC8, symSize: 0xD0 }
  - { offsetInCU: 0x256C3, offset: 0x72B88, size: 0x8, addend: 0x0, symName: __ZNSt3__16vectorINS_12basic_stringIcNS_11char_traitsIcEENS_9allocatorIcEEEENS4_IS6_EEE19__move_assign_allocB8ue170006ERS8_NS_17integral_constantIbLb1EEE, symObjAddr: 0x11C70, symBinAddr: 0x10002DB98, symSize: 0x38 }
  - { offsetInCU: 0x25702, offset: 0x72BC7, size: 0x8, addend: 0x0, symName: __ZNSt3__16vectorINS0_IdNS_9allocatorIdEEEENS1_IS3_EEE13__move_assignERS5_NS_17integral_constantIbLb1EEE, symObjAddr: 0x11CA8, symBinAddr: 0x10002DBD0, symSize: 0x94 }
  - { offsetInCU: 0x25744, offset: 0x72C09, size: 0x8, addend: 0x0, symName: __ZNSt3__16vectorINS0_IdNS_9allocatorIdEEEENS1_IS3_EEE13__vdeallocateEv, symObjAddr: 0x11D3C, symBinAddr: 0x10002DC64, symSize: 0x94 }
  - { offsetInCU: 0x2576B, offset: 0x72C30, size: 0x8, addend: 0x0, symName: __ZNSt3__16vectorINS0_IdNS_9allocatorIdEEEENS1_IS3_EEE19__move_assign_allocB8ue170006ERS5_, symObjAddr: 0x11DD0, symBinAddr: 0x10002DCF8, symSize: 0x2C }
  - { offsetInCU: 0x2579E, offset: 0x72C63, size: 0x8, addend: 0x0, symName: __ZNSt3__16vectorINS0_IdNS_9allocatorIdEEEENS1_IS3_EEE5clearB8ue170006Ev, symObjAddr: 0x11DFC, symBinAddr: 0x10002DD24, symSize: 0x44 }
  - { offsetInCU: 0x257D1, offset: 0x72C96, size: 0x8, addend: 0x0, symName: __ZNSt3__16vectorINS0_IdNS_9allocatorIdEEEENS1_IS3_EEE7__clearB8ue170006Ev, symObjAddr: 0x11E40, symBinAddr: 0x10002DD68, symSize: 0x28 }
  - { offsetInCU: 0x257F5, offset: 0x72CBA, size: 0x8, addend: 0x0, symName: __ZNSt3__16vectorINS0_IdNS_9allocatorIdEEEENS1_IS3_EEE19__move_assign_allocB8ue170006ERS5_NS_17integral_constantIbLb1EEE, symObjAddr: 0x11E68, symBinAddr: 0x10002DD90, symSize: 0x38 }
  - { offsetInCU: 0x25834, offset: 0x72CF9, size: 0x8, addend: 0x0, symName: __ZNKSt3__16vectorINS_12basic_stringIcNS_11char_traitsIcEENS_9allocatorIcEEEENS4_IS6_EEE5beginB8ue170006Ev, symObjAddr: 0x11F8C, symBinAddr: 0x10002DEB4, symSize: 0x30 }
  - { offsetInCU: 0x2585B, offset: 0x72D20, size: 0x8, addend: 0x0, symName: __ZNKSt3__16vectorINS_12basic_stringIcNS_11char_traitsIcEENS_9allocatorIcEEEENS4_IS6_EEE3endB8ue170006Ev, symObjAddr: 0x11FBC, symBinAddr: 0x10002DEE4, symSize: 0x30 }
  - { offsetInCU: 0x2588C, offset: 0x72D51, size: 0x8, addend: 0x0, symName: __ZNKSt3__110__equal_toclB8ue170006INS_12basic_stringIcNS_11char_traitsIcEENS_9allocatorIcEEEES7_EEbRKT_RKT0_, symObjAddr: 0x12138, symBinAddr: 0x10002E060, symSize: 0x34 }
  - { offsetInCU: 0x258DE, offset: 0x72DA3, size: 0x8, addend: 0x0, symName: __ZNSt3__118__unwrap_iter_implINS_11__wrap_iterIPKNS_12basic_stringIcNS_11char_traitsIcEENS_9allocatorIcEEEEEELb1EE8__unwrapB8ue170006ESA_, symObjAddr: 0x1216C, symBinAddr: 0x10002E094, symSize: 0x28 }
  - { offsetInCU: 0x2590A, offset: 0x72DCF, size: 0x8, addend: 0x0, symName: __ZNSt3__119__to_address_helperINS_11__wrap_iterIPKNS_12basic_stringIcNS_11char_traitsIcEENS_9allocatorIcEEEEEEvE6__callB8ue170006ERKSA_, symObjAddr: 0x121B8, symBinAddr: 0x10002E0E0, symSize: 0x30 }
  - { offsetInCU: 0x2592C, offset: 0x72DF1, size: 0x8, addend: 0x0, symName: __ZNSt3__114pointer_traitsINS_11__wrap_iterIPKNS_12basic_stringIcNS_11char_traitsIcEENS_9allocatorIcEEEEEEE10to_addressB8ue170006ESA_, symObjAddr: 0x121E8, symBinAddr: 0x10002E110, symSize: 0x2C }
  - { offsetInCU: 0x2594E, offset: 0x72E13, size: 0x8, addend: 0x0, symName: __ZNKSt3__111__wrap_iterIPKNS_12basic_stringIcNS_11char_traitsIcEENS_9allocatorIcEEEEE4baseB8ue170006Ev, symObjAddr: 0x12228, symBinAddr: 0x10002E150, symSize: 0x18 }
  - { offsetInCU: 0x25973, offset: 0x72E38, size: 0x8, addend: 0x0, symName: __ZNKSt3__16vectorINS_12basic_stringIcNS_11char_traitsIcEENS_9allocatorIcEEEENS4_IS6_EEE11__make_iterB8ue170006EPKS6_, symObjAddr: 0x12240, symBinAddr: 0x10002E168, symSize: 0x30 }
  - { offsetInCU: 0x259A6, offset: 0x72E6B, size: 0x8, addend: 0x0, symName: __ZNSt3__111__wrap_iterIPKNS_12basic_stringIcNS_11char_traitsIcEENS_9allocatorIcEEEEEC1B8ue170006ES8_, symObjAddr: 0x12270, symBinAddr: 0x10002E198, symSize: 0x34 }
  - { offsetInCU: 0x259DC, offset: 0x72EA1, size: 0x8, addend: 0x0, symName: __ZNSt3__111__wrap_iterIPKNS_12basic_stringIcNS_11char_traitsIcEENS_9allocatorIcEEEEEC2B8ue170006ES8_, symObjAddr: 0x122A4, symBinAddr: 0x10002E1CC, symSize: 0x20 }
  - { offsetInCU: 0x25A13, offset: 0x72ED8, size: 0x8, addend: 0x0, symName: __ZNSt3__16vectorINS_12basic_stringIcNS_11char_traitsIcEENS_9allocatorIcEEEENS4_IS6_EEE18__insert_with_sizeB8ue170006INS_11__wrap_iterIPS6_EESC_EESC_NSA_IPKS6_EET_T0_l, symObjAddr: 0x122C4, symBinAddr: 0x10002E1EC, symSize: 0x320 }
  - { offsetInCU: 0x25B3C, offset: 0x73001, size: 0x8, addend: 0x0, symName: __ZNSt3__16vectorINS_12basic_stringIcNS_11char_traitsIcEENS_9allocatorIcEEEENS4_IS6_EEE18__construct_at_endINS_11__wrap_iterIPS6_EESC_EEvT_T0_m, symObjAddr: 0x126DC, symBinAddr: 0x10002E604, symSize: 0x9C }
  - { offsetInCU: 0x25BB1, offset: 0x73076, size: 0x8, addend: 0x0, symName: __ZNSt3__16vectorINS_12basic_stringIcNS_11char_traitsIcEENS_9allocatorIcEEEENS4_IS6_EEE12__move_rangeEPS6_S9_S9_, symObjAddr: 0x12778, symBinAddr: 0x10002E6A0, symSize: 0x13C }
  - { offsetInCU: 0x25C6E, offset: 0x73133, size: 0x8, addend: 0x0, symName: __ZNSt3__114__split_bufferINS_12basic_stringIcNS_11char_traitsIcEENS_9allocatorIcEEEERNS4_IS6_EEE28__construct_at_end_with_sizeINS_11__wrap_iterIPS6_EEEEvT_m, symObjAddr: 0x12904, symBinAddr: 0x10002E82C, symSize: 0xD0 }
  - { offsetInCU: 0x25CC9, offset: 0x7318E, size: 0x8, addend: 0x0, symName: __ZNSt3__111__wrap_iterIPNS_12basic_stringIcNS_11char_traitsIcEENS_9allocatorIcEEEEEpLB8ue170006El, symObjAddr: 0x12B60, symBinAddr: 0x10002EA88, symSize: 0x30 }
  - { offsetInCU: 0x25D1A, offset: 0x731DF, size: 0x8, addend: 0x0, symName: __ZNSt3__14pairIPNS_12basic_stringIcNS_11char_traitsIcEENS_9allocatorIcEEEES7_EC1B8ue170006IS7_S7_LPv0EEEOT_OT0_, symObjAddr: 0x12E48, symBinAddr: 0x10002ED70, symSize: 0x3C }
  - { offsetInCU: 0x25D77, offset: 0x7323C, size: 0x8, addend: 0x0, symName: __ZNSt3__14pairIPNS_12basic_stringIcNS_11char_traitsIcEENS_9allocatorIcEEEES7_EC2B8ue170006IS7_S7_LPv0EEEOT_OT0_, symObjAddr: 0x12E84, symBinAddr: 0x10002EDAC, symSize: 0x34 }
  - { offsetInCU: 0x25DD5, offset: 0x7329A, size: 0x8, addend: 0x0, symName: __ZNSt3__118__unwrap_iter_implINS_11__wrap_iterIPNS_12basic_stringIcNS_11char_traitsIcEENS_9allocatorIcEEEEEELb1EE8__unwrapB8ue170006ES9_, symObjAddr: 0x12EB8, symBinAddr: 0x10002EDE0, symSize: 0x28 }
  - { offsetInCU: 0x25DFC, offset: 0x732C1, size: 0x8, addend: 0x0, symName: __ZNSt3__119__to_address_helperINS_11__wrap_iterIPNS_12basic_stringIcNS_11char_traitsIcEENS_9allocatorIcEEEEEEvE6__callB8ue170006ERKS9_, symObjAddr: 0x12F04, symBinAddr: 0x10002EE2C, symSize: 0x30 }
  - { offsetInCU: 0x25E1E, offset: 0x732E3, size: 0x8, addend: 0x0, symName: __ZNSt3__114pointer_traitsINS_11__wrap_iterIPNS_12basic_stringIcNS_11char_traitsIcEENS_9allocatorIcEEEEEEE10to_addressB8ue170006ES9_, symObjAddr: 0x12F34, symBinAddr: 0x10002EE5C, symSize: 0x2C }
  - { offsetInCU: 0x25E40, offset: 0x73305, size: 0x8, addend: 0x0, symName: __ZNSt3__129_AllocatorDestroyRangeReverseINS_9allocatorINS_12basic_stringIcNS_11char_traitsIcEENS1_IcEEEEEEPS6_EC1B8ue170006ERS7_RS8_SB_, symObjAddr: 0x12FAC, symBinAddr: 0x10002EED4, symSize: 0x44 }
  - { offsetInCU: 0x25E95, offset: 0x7335A, size: 0x8, addend: 0x0, symName: __ZNSt3__116allocator_traitsINS_9allocatorINS_12basic_stringIcNS_11char_traitsIcEENS1_IcEEEEEEE9constructB8ue170006IS6_JRS6_EvEEvRS7_PT_DpOT0_, symObjAddr: 0x12FF0, symBinAddr: 0x10002EF18, symSize: 0x34 }
  - { offsetInCU: 0x25EEE, offset: 0x733B3, size: 0x8, addend: 0x0, symName: __ZNSt3__128__exception_guard_exceptionsINS_29_AllocatorDestroyRangeReverseINS_9allocatorINS_12basic_stringIcNS_11char_traitsIcEENS2_IcEEEEEEPS7_EEE10__completeB8ue170006Ev, symObjAddr: 0x13024, symBinAddr: 0x10002EF4C, symSize: 0x1C }
  - { offsetInCU: 0x25F13, offset: 0x733D8, size: 0x8, addend: 0x0, symName: __ZNSt3__128__exception_guard_exceptionsINS_29_AllocatorDestroyRangeReverseINS_9allocatorINS_12basic_stringIcNS_11char_traitsIcEENS2_IcEEEEEEPS7_EEED1B8ue170006Ev, symObjAddr: 0x13040, symBinAddr: 0x10002EF68, symSize: 0x2C }
  - { offsetInCU: 0x25F3B, offset: 0x73400, size: 0x8, addend: 0x0, symName: __ZNSt3__128__exception_guard_exceptionsINS_29_AllocatorDestroyRangeReverseINS_9allocatorINS_12basic_stringIcNS_11char_traitsIcEENS2_IcEEEEEEPS7_EEEC1B8ue170006ESA_, symObjAddr: 0x1306C, symBinAddr: 0x10002EF94, symSize: 0x34 }
  - { offsetInCU: 0x25F72, offset: 0x73437, size: 0x8, addend: 0x0, symName: __ZNSt3__128__exception_guard_exceptionsINS_29_AllocatorDestroyRangeReverseINS_9allocatorINS_12basic_stringIcNS_11char_traitsIcEENS2_IcEEEEEEPS7_EEEC2B8ue170006ESA_, symObjAddr: 0x130A0, symBinAddr: 0x10002EFC8, symSize: 0x30 }
  - { offsetInCU: 0x25FAA, offset: 0x7346F, size: 0x8, addend: 0x0, symName: __ZNSt3__129_AllocatorDestroyRangeReverseINS_9allocatorINS_12basic_stringIcNS_11char_traitsIcEENS1_IcEEEEEEPS6_EC2B8ue170006ERS7_RS8_SB_, symObjAddr: 0x130D0, symBinAddr: 0x10002EFF8, symSize: 0x38 }
  - { offsetInCU: 0x26000, offset: 0x734C5, size: 0x8, addend: 0x0, symName: __ZNSt3__19allocatorINS_12basic_stringIcNS_11char_traitsIcEENS0_IcEEEEE9constructB8ue170006IS5_JRS5_EEEvPT_DpOT0_, symObjAddr: 0x13108, symBinAddr: 0x10002F030, symSize: 0x30 }
  - { offsetInCU: 0x26056, offset: 0x7351B, size: 0x8, addend: 0x0, symName: __ZNSt3__128__exception_guard_exceptionsINS_29_AllocatorDestroyRangeReverseINS_9allocatorINS_12basic_stringIcNS_11char_traitsIcEENS2_IcEEEEEEPS7_EEED2B8ue170006Ev, symObjAddr: 0x13138, symBinAddr: 0x10002F060, symSize: 0x50 }
  - { offsetInCU: 0x2607E, offset: 0x73543, size: 0x8, addend: 0x0, symName: __ZNKSt3__129_AllocatorDestroyRangeReverseINS_9allocatorINS_12basic_stringIcNS_11char_traitsIcEENS1_IcEEEEEEPS6_EclB8ue170006Ev, symObjAddr: 0x13188, symBinAddr: 0x10002F0B0, symSize: 0x68 }
  - { offsetInCU: 0x260A2, offset: 0x73567, size: 0x8, addend: 0x0, symName: __ZNSt3__118__unwrap_iter_implIPNS_12basic_stringIcNS_11char_traitsIcEENS_9allocatorIcEEEELb1EE8__unwrapB8ue170006ES7_, symObjAddr: 0x13260, symBinAddr: 0x10002F188, symSize: 0x24 }
  - { offsetInCU: 0x260C4, offset: 0x73589, size: 0x8, addend: 0x0, symName: __ZNSt3__118__unwrap_iter_implIPNS_12basic_stringIcNS_11char_traitsIcEENS_9allocatorIcEEEELb1EE8__rewrapB8ue170006ES7_S7_, symObjAddr: 0x13284, symBinAddr: 0x10002F1AC, symSize: 0x58 }
  - { offsetInCU: 0x260FE, offset: 0x735C3, size: 0x8, addend: 0x0, symName: __ZNKSt3__120__move_backward_loopINS_17_ClassicAlgPolicyEEclB8ue170006IPNS_12basic_stringIcNS_11char_traitsIcEENS_9allocatorIcEEEESA_SA_EENS_4pairIT_T1_EESC_T0_SD_, symObjAddr: 0x134B8, symBinAddr: 0x10002F3E0, symSize: 0xA4 }
  - { offsetInCU: 0x26183, offset: 0x73648, size: 0x8, addend: 0x0, symName: __ZNSt3__18_IterOpsINS_17_ClassicAlgPolicyEE4nextB8ue170006IPNS_12basic_stringIcNS_11char_traitsIcEENS_9allocatorIcEEEEEET_SB_SB_, symObjAddr: 0x13588, symBinAddr: 0x10002F4B0, symSize: 0x18 }
  - { offsetInCU: 0x261BA, offset: 0x7367F, size: 0x8, addend: 0x0, symName: __ZNSt3__18_IterOpsINS_17_ClassicAlgPolicyEE11__iter_moveB8ue170006IRPNS_12basic_stringIcNS_11char_traitsIcEENS_9allocatorIcEEEEEENS_9enable_ifIXsr12is_referenceIDTdeclsr3stdE7declvalIRT_EEEEE5valueEDTclsr3stdE4movedeclsr3stdE7declvalISE_EEEEE4typeEOSD_, symObjAddr: 0x135A0, symBinAddr: 0x10002F4C8, symSize: 0x28 }
  - { offsetInCU: 0x261E5, offset: 0x736AA, size: 0x8, addend: 0x0, symName: __ZNSt3__18_IterOpsINS_17_ClassicAlgPolicyEE25__validate_iter_referenceB8ue170006IRPNS_12basic_stringIcNS_11char_traitsIcEENS_9allocatorIcEEEEEEvv, symObjAddr: 0x135C8, symBinAddr: 0x10002F4F0, symSize: 0x4 }
  - { offsetInCU: 0x2620D, offset: 0x736D2, size: 0x8, addend: 0x0, symName: __ZNKSt3__111__copy_loopINS_17_ClassicAlgPolicyEEclB8ue170006IPNS_12basic_stringIcNS_11char_traitsIcEENS_9allocatorIcEEEESA_SA_EENS_4pairIT_T1_EESC_T0_SD_, symObjAddr: 0x13740, symBinAddr: 0x10002F668, symSize: 0x88 }
  - { offsetInCU: 0x26294, offset: 0x73759, size: 0x8, addend: 0x0, symName: __ZNSt3__14pairINS_11__wrap_iterIPNS_12basic_stringIcNS_11char_traitsIcEENS_9allocatorIcEEEEEES8_EC1B8ue170006IS9_S8_LPv0EEEOT_OT0_, symObjAddr: 0x1383C, symBinAddr: 0x10002F764, symSize: 0x3C }
  - { offsetInCU: 0x262F1, offset: 0x737B6, size: 0x8, addend: 0x0, symName: __ZNSt3__14pairINS_11__wrap_iterIPNS_12basic_stringIcNS_11char_traitsIcEENS_9allocatorIcEEEEEES8_EC2B8ue170006IS9_S8_LPv0EEEOT_OT0_, symObjAddr: 0x13878, symBinAddr: 0x10002F7A0, symSize: 0x34 }
  - { offsetInCU: 0x2634F, offset: 0x73814, size: 0x8, addend: 0x0, symName: __ZNSt3__118__unwrap_iter_implINS_11__wrap_iterIPNS_12basic_stringIcNS_11char_traitsIcEENS_9allocatorIcEEEEEELb1EE8__rewrapB8ue170006ES9_S8_, symObjAddr: 0x138F8, symBinAddr: 0x10002F820, symSize: 0x5C }
  - { offsetInCU: 0x2637F, offset: 0x73844, size: 0x8, addend: 0x0, symName: __ZNKSt3__111__wrap_iterIPNS_12basic_stringIcNS_11char_traitsIcEENS_9allocatorIcEEEEEplB8ue170006El, symObjAddr: 0x13954, symBinAddr: 0x10002F87C, symSize: 0x3C }
  - { offsetInCU: 0x263C9, offset: 0x7388E, size: 0x8, addend: 0x0, symName: __ZNSt3__114__split_bufferINS_12basic_stringIcNS_11char_traitsIcEENS_9allocatorIcEEEERNS4_IS6_EEE21_ConstructTransactionC1B8ue170006EPPS6_m, symObjAddr: 0x13990, symBinAddr: 0x10002F8B8, symSize: 0x3C }
  - { offsetInCU: 0x2640D, offset: 0x738D2, size: 0x8, addend: 0x0, symName: __ZNSt3__114__split_bufferINS_12basic_stringIcNS_11char_traitsIcEENS_9allocatorIcEEEERNS4_IS6_EEE21_ConstructTransactionD1B8ue170006Ev, symObjAddr: 0x139CC, symBinAddr: 0x10002F8F4, symSize: 0x2C }
  - { offsetInCU: 0x26435, offset: 0x738FA, size: 0x8, addend: 0x0, symName: __ZNSt3__114__split_bufferINS_12basic_stringIcNS_11char_traitsIcEENS_9allocatorIcEEEERNS4_IS6_EEE21_ConstructTransactionC2B8ue170006EPPS6_m, symObjAddr: 0x139F8, symBinAddr: 0x10002F920, symSize: 0x4C }
  - { offsetInCU: 0x2647A, offset: 0x7393F, size: 0x8, addend: 0x0, symName: __ZNSt3__114__split_bufferINS_12basic_stringIcNS_11char_traitsIcEENS_9allocatorIcEEEERNS4_IS6_EEE21_ConstructTransactionD2B8ue170006Ev, symObjAddr: 0x13A44, symBinAddr: 0x10002F96C, symSize: 0x20 }
  - { offsetInCU: 0x264A3, offset: 0x73968, size: 0x8, addend: 0x0, symName: __ZNSt3__111__wrap_iterIPKNS_12basic_stringIcNS_11char_traitsIcEENS_9allocatorIcEEEEEC2B8ue170006IPS6_EERKNS0_IT_EEPNS_9enable_ifIXsr14is_convertibleISC_S8_EE5valueEvE4typeE, symObjAddr: 0x13BD0, symBinAddr: 0x10002FAF8, symSize: 0x40 }
  - { offsetInCU: 0x264ED, offset: 0x739B2, size: 0x8, addend: 0x0, symName: __ZNSt3__16vectorIdNS_9allocatorIdEEE18__insert_with_sizeB8ue170006INS_11__wrap_iterIPdEES7_EES7_NS5_IPKdEET_T0_l, symObjAddr: 0x13C10, symBinAddr: 0x10002FB38, symSize: 0x310 }
  - { offsetInCU: 0x26616, offset: 0x73ADB, size: 0x8, addend: 0x0, symName: __ZNSt3__16vectorIdNS_9allocatorIdEEE18__construct_at_endINS_11__wrap_iterIPdEES7_EEvT_T0_m, symObjAddr: 0x14018, symBinAddr: 0x10002FF40, symSize: 0x9C }
  - { offsetInCU: 0x2668B, offset: 0x73B50, size: 0x8, addend: 0x0, symName: __ZNSt3__16vectorIdNS_9allocatorIdEEE12__move_rangeEPdS4_S4_, symObjAddr: 0x140B4, symBinAddr: 0x10002FFDC, symSize: 0x12C }
  - { offsetInCU: 0x26748, offset: 0x73C0D, size: 0x8, addend: 0x0, symName: __ZNSt3__114__split_bufferIdRNS_9allocatorIdEEE28__construct_at_end_with_sizeINS_11__wrap_iterIPdEEEEvT_m, symObjAddr: 0x14328, symBinAddr: 0x100030158, symSize: 0xD0 }
  - { offsetInCU: 0x267A3, offset: 0x73C68, size: 0x8, addend: 0x0, symName: __ZNKSt3__111__wrap_iterIPKdE4baseB8ue170006Ev, symObjAddr: 0x145A0, symBinAddr: 0x100030374, symSize: 0x18 }
  - { offsetInCU: 0x267FF, offset: 0x73CC4, size: 0x8, addend: 0x0, symName: __ZNSt3__118__unwrap_iter_implINS_11__wrap_iterIPdEELb1EE8__unwrapB8ue170006ES3_, symObjAddr: 0x1493C, symBinAddr: 0x1000304E4, symSize: 0x28 }
  - { offsetInCU: 0x26826, offset: 0x73CEB, size: 0x8, addend: 0x0, symName: __ZNSt3__119__to_address_helperINS_11__wrap_iterIPdEEvE6__callB8ue170006ERKS3_, symObjAddr: 0x14988, symBinAddr: 0x100030530, symSize: 0x30 }
  - { offsetInCU: 0x26848, offset: 0x73D0D, size: 0x8, addend: 0x0, symName: __ZNSt3__114pointer_traitsINS_11__wrap_iterIPdEEE10to_addressB8ue170006ES3_, symObjAddr: 0x149B8, symBinAddr: 0x100030560, symSize: 0x2C }
  - { offsetInCU: 0x26879, offset: 0x73D3E, size: 0x8, addend: 0x0, symName: __ZNSt3__116allocator_traitsINS_9allocatorIdEEE9constructB8ue170006IdJdEvEEvRS2_PT_DpOT0_, symObjAddr: 0x14E68, symBinAddr: 0x10003058C, symSize: 0x34 }
  - { offsetInCU: 0x268D2, offset: 0x73D97, size: 0x8, addend: 0x0, symName: __ZNSt3__19allocatorIdE9constructB8ue170006IdJdEEEvPT_DpOT0_, symObjAddr: 0x14EDC, symBinAddr: 0x100030600, symSize: 0x28 }
  - { offsetInCU: 0x26933, offset: 0x73DF8, size: 0x8, addend: 0x0, symName: __ZNKSt3__123__move_backward_trivialclB8ue170006IddLi0EEENS_4pairIPT_PT0_EES4_S4_S6_, symObjAddr: 0x15040, symBinAddr: 0x100030764, symSize: 0x48 }
  - { offsetInCU: 0x2699A, offset: 0x73E5F, size: 0x8, addend: 0x0, symName: __ZNSt3__14pairIPdS1_EC1B8ue170006IRS1_S4_LPv0EEEOT_OT0_, symObjAddr: 0x15150, symBinAddr: 0x100030874, symSize: 0x3C }
  - { offsetInCU: 0x269F7, offset: 0x73EBC, size: 0x8, addend: 0x0, symName: __ZNSt3__14pairIPdS1_EC2B8ue170006IRS1_S4_LPv0EEEOT_OT0_, symObjAddr: 0x1518C, symBinAddr: 0x1000308B0, symSize: 0x34 }
  - { offsetInCU: 0x26A73, offset: 0x73F38, size: 0x8, addend: 0x0, symName: __ZNSt3__14pairINS_11__wrap_iterIPdEES2_EC1B8ue170006IS3_S2_LPv0EEEOT_OT0_, symObjAddr: 0x153A8, symBinAddr: 0x100030ACC, symSize: 0x3C }
  - { offsetInCU: 0x26AD0, offset: 0x73F95, size: 0x8, addend: 0x0, symName: __ZNSt3__14pairINS_11__wrap_iterIPdEES2_EC2B8ue170006IS3_S2_LPv0EEEOT_OT0_, symObjAddr: 0x153E4, symBinAddr: 0x100030B08, symSize: 0x34 }
  - { offsetInCU: 0x26B2E, offset: 0x73FF3, size: 0x8, addend: 0x0, symName: __ZNSt3__118__unwrap_iter_implINS_11__wrap_iterIPdEELb1EE8__rewrapB8ue170006ES3_S2_, symObjAddr: 0x15464, symBinAddr: 0x100030B88, symSize: 0x5C }
  - { offsetInCU: 0x26B72, offset: 0x74037, size: 0x8, addend: 0x0, symName: __ZNSt3__114__split_bufferIdRNS_9allocatorIdEEE21_ConstructTransactionC1B8ue170006EPPdm, symObjAddr: 0x15938, symBinAddr: 0x100030BE4, symSize: 0x3C }
  - { offsetInCU: 0x26BB6, offset: 0x7407B, size: 0x8, addend: 0x0, symName: __ZNSt3__116allocator_traitsINS_9allocatorIdEEE9constructB8ue170006IdJRdEvEEvRS2_PT_DpOT0_, symObjAddr: 0x15974, symBinAddr: 0x100030C20, symSize: 0x34 }
  - { offsetInCU: 0x26C0F, offset: 0x740D4, size: 0x8, addend: 0x0, symName: __ZNSt3__114__split_bufferIdRNS_9allocatorIdEEE21_ConstructTransactionD1B8ue170006Ev, symObjAddr: 0x159A8, symBinAddr: 0x100030C54, symSize: 0x2C }
  - { offsetInCU: 0x26C37, offset: 0x740FC, size: 0x8, addend: 0x0, symName: __ZNSt3__114__split_bufferIdRNS_9allocatorIdEEE21_ConstructTransactionC2B8ue170006EPPdm, symObjAddr: 0x159D4, symBinAddr: 0x100030C80, symSize: 0x44 }
  - { offsetInCU: 0x26C7C, offset: 0x74141, size: 0x8, addend: 0x0, symName: __ZNSt3__19allocatorIdE9constructB8ue170006IdJRdEEEvPT_DpOT0_, symObjAddr: 0x15A18, symBinAddr: 0x100030CC4, symSize: 0x28 }
  - { offsetInCU: 0x26CD3, offset: 0x74198, size: 0x8, addend: 0x0, symName: __ZNSt3__114__split_bufferIdRNS_9allocatorIdEEE21_ConstructTransactionD2B8ue170006Ev, symObjAddr: 0x15A40, symBinAddr: 0x100030CEC, symSize: 0x20 }
  - { offsetInCU: 0x26D10, offset: 0x741D5, size: 0x8, addend: 0x0, symName: __ZNKSt3__114__move_trivialclB8ue170006IddLi0EEENS_4pairIPT_PT0_EES4_S4_S6_, symObjAddr: 0x16540, symBinAddr: 0x100030EC0, symSize: 0x48 }
  - { offsetInCU: 0x26D77, offset: 0x7423C, size: 0x8, addend: 0x0, symName: __ZNSt3__111__wrap_iterIPKdEC2B8ue170006IPdEERKNS0_IT_EEPNS_9enable_ifIXsr14is_convertibleIS6_S2_EE5valueEvE4typeE, symObjAddr: 0x168F4, symBinAddr: 0x100030F38, symSize: 0x40 }
  - { offsetInCU: 0x26DC1, offset: 0x74286, size: 0x8, addend: 0x0, symName: __ZNSt3__113unordered_setINS_12basic_stringIcNS_11char_traitsIcEENS_9allocatorIcEEEENS_4hashIS6_EENS_8equal_toIS6_EENS4_IS6_EEEC1ESt16initializer_listIS6_E, symObjAddr: 0x16934, symBinAddr: 0x100030F78, symSize: 0x3C }
  - { offsetInCU: 0x26DFA, offset: 0x742BF, size: 0x8, addend: 0x0, symName: __ZNKSt3__113unordered_setINS_12basic_stringIcNS_11char_traitsIcEENS_9allocatorIcEEEENS_4hashIS6_EENS_8equal_toIS6_EENS4_IS6_EEE5countB8ue170006ERKS6_, symObjAddr: 0x1699C, symBinAddr: 0x100030FB4, symSize: 0x2C }
  - { offsetInCU: 0x26E2D, offset: 0x742F2, size: 0x8, addend: 0x0, symName: __ZNSt3__16vectorIiNS_9allocatorIiEEE9push_backB8ue170006ERKi, symObjAddr: 0x169FC, symBinAddr: 0x100030FE0, symSize: 0x6C }
  - { offsetInCU: 0x26E63, offset: 0x74328, size: 0x8, addend: 0x0, symName: __ZNSt3__113unordered_setINS_12basic_stringIcNS_11char_traitsIcEENS_9allocatorIcEEEENS_4hashIS6_EENS_8equal_toIS6_EENS4_IS6_EEEC2ESt16initializer_listIS6_E, symObjAddr: 0x16A68, symBinAddr: 0x10003104C, symSize: 0x8C }
  - { offsetInCU: 0x26E9C, offset: 0x74361, size: 0x8, addend: 0x0, symName: __ZNSt3__113unordered_setINS_12basic_stringIcNS_11char_traitsIcEENS_9allocatorIcEEEENS_4hashIS6_EENS_8equal_toIS6_EENS4_IS6_EEE6insertIPKS6_EEvT_SG_, symObjAddr: 0x16B20, symBinAddr: 0x1000310D8, symSize: 0x70 }
  - { offsetInCU: 0x26EEA, offset: 0x743AF, size: 0x8, addend: 0x0, symName: __ZNKSt16initializer_listINSt3__112basic_stringIcNS0_11char_traitsIcEENS0_9allocatorIcEEEEE5beginB8ue170006Ev, symObjAddr: 0x16B90, symBinAddr: 0x100031148, symSize: 0x18 }
  - { offsetInCU: 0x26F0F, offset: 0x743D4, size: 0x8, addend: 0x0, symName: __ZNKSt16initializer_listINSt3__112basic_stringIcNS0_11char_traitsIcEENS0_9allocatorIcEEEEE3endB8ue170006Ev, symObjAddr: 0x16BA8, symBinAddr: 0x100031160, symSize: 0x28 }
  - { offsetInCU: 0x26F48, offset: 0x7440D, size: 0x8, addend: 0x0, symName: __ZNKSt3__112__hash_tableINS_12basic_stringIcNS_11char_traitsIcEENS_9allocatorIcEEEENS_4hashIS6_EENS_8equal_toIS6_EENS4_IS6_EEE14__count_uniqueIS6_EEmRKT_, symObjAddr: 0x19C64, symBinAddr: 0x100031188, symSize: 0x64 }
  - { offsetInCU: 0x26F87, offset: 0x7444C, size: 0x8, addend: 0x0, symName: __ZNKSt3__112__hash_tableINS_12basic_stringIcNS_11char_traitsIcEENS_9allocatorIcEEEENS_4hashIS6_EENS_8equal_toIS6_EENS4_IS6_EEE4findIS6_EENS_21__hash_const_iteratorIPNS_11__hash_nodeIS6_PvEEEERKT_, symObjAddr: 0x19CFC, symBinAddr: 0x100031220, symSize: 0x1B8 }
  - { offsetInCU: 0x27011, offset: 0x744D6, size: 0x8, addend: 0x0, symName: __ZNKSt3__112__hash_tableINS_12basic_stringIcNS_11char_traitsIcEENS_9allocatorIcEEEENS_4hashIS6_EENS_8equal_toIS6_EENS4_IS6_EEE3endEv, symObjAddr: 0x19EB4, symBinAddr: 0x1000313D8, symSize: 0x2C }
  - { offsetInCU: 0x27038, offset: 0x744FD, size: 0x8, addend: 0x0, symName: __ZNKSt3__112__hash_tableINS_12basic_stringIcNS_11char_traitsIcEENS_9allocatorIcEEEENS_4hashIS6_EENS_8equal_toIS6_EENS4_IS6_EEE13hash_functionB8ue170006Ev, symObjAddr: 0x19F10, symBinAddr: 0x100031434, symSize: 0x28 }
  - { offsetInCU: 0x2705C, offset: 0x74521, size: 0x8, addend: 0x0, symName: __ZNKSt3__112__hash_tableINS_12basic_stringIcNS_11char_traitsIcEENS_9allocatorIcEEEENS_4hashIS6_EENS_8equal_toIS6_EENS4_IS6_EEE6key_eqB8ue170006Ev, symObjAddr: 0x19F38, symBinAddr: 0x10003145C, symSize: 0x28 }
  - { offsetInCU: 0x27080, offset: 0x74545, size: 0x8, addend: 0x0, symName: __ZNSt3__121__hash_const_iteratorIPNS_11__hash_nodeINS_12basic_stringIcNS_11char_traitsIcEENS_9allocatorIcEEEEPvEEEC1B8ue170006EPNS_16__hash_node_baseISA_EE, symObjAddr: 0x19F60, symBinAddr: 0x100031484, symSize: 0x34 }
  - { offsetInCU: 0x270B7, offset: 0x7457C, size: 0x8, addend: 0x0, symName: __ZNKSt3__117__compressed_pairImNS_4hashINS_12basic_stringIcNS_11char_traitsIcEENS_9allocatorIcEEEEEEE6secondB8ue170006Ev, symObjAddr: 0x19F94, symBinAddr: 0x1000314B8, symSize: 0x24 }
  - { offsetInCU: 0x270DB, offset: 0x745A0, size: 0x8, addend: 0x0, symName: __ZNKSt3__122__compressed_pair_elemINS_4hashINS_12basic_stringIcNS_11char_traitsIcEENS_9allocatorIcEEEEEELi1ELb1EE5__getB8ue170006Ev, symObjAddr: 0x19FB8, symBinAddr: 0x1000314DC, symSize: 0x14 }
  - { offsetInCU: 0x27100, offset: 0x745C5, size: 0x8, addend: 0x0, symName: __ZNKSt3__117__compressed_pairIfNS_8equal_toINS_12basic_stringIcNS_11char_traitsIcEENS_9allocatorIcEEEEEEE6secondB8ue170006Ev, symObjAddr: 0x19FCC, symBinAddr: 0x1000314F0, symSize: 0x24 }
  - { offsetInCU: 0x27124, offset: 0x745E9, size: 0x8, addend: 0x0, symName: __ZNKSt3__122__compressed_pair_elemINS_8equal_toINS_12basic_stringIcNS_11char_traitsIcEENS_9allocatorIcEEEEEELi1ELb1EE5__getB8ue170006Ev, symObjAddr: 0x19FF0, symBinAddr: 0x100031514, symSize: 0x14 }
  - { offsetInCU: 0x27149, offset: 0x7460E, size: 0x8, addend: 0x0, symName: __ZNSt3__121__hash_const_iteratorIPNS_11__hash_nodeINS_12basic_stringIcNS_11char_traitsIcEENS_9allocatorIcEEEEPvEEEC2B8ue170006EPNS_16__hash_node_baseISA_EE, symObjAddr: 0x1A004, symBinAddr: 0x100031528, symSize: 0x20 }
  - { offsetInCU: 0x27181, offset: 0x74646, size: 0x8, addend: 0x0, symName: __ZNSt3__16vectorIiNS_9allocatorIiEEE9__end_capB8ue170006Ev, symObjAddr: 0x1A024, symBinAddr: 0x100031548, symSize: 0x28 }
  - { offsetInCU: 0x271A5, offset: 0x7466A, size: 0x8, addend: 0x0, symName: __ZNSt3__16vectorIiNS_9allocatorIiEEE22__construct_one_at_endB8ue170006IJRKiEEEvDpOT_, symObjAddr: 0x1A04C, symBinAddr: 0x100031570, symSize: 0x90 }
  - { offsetInCU: 0x271F4, offset: 0x746B9, size: 0x8, addend: 0x0, symName: __ZNSt3__16vectorIiNS_9allocatorIiEEE21__push_back_slow_pathIRKiEEvOT_, symObjAddr: 0x1A0DC, symBinAddr: 0x100031600, symSize: 0xD8 }
  - { offsetInCU: 0x27251, offset: 0x74716, size: 0x8, addend: 0x0, symName: __ZNSt3__117__compressed_pairIPiNS_9allocatorIiEEE5firstB8ue170006Ev, symObjAddr: 0x1A1B4, symBinAddr: 0x1000316D8, symSize: 0x24 }
  - { offsetInCU: 0x27275, offset: 0x7473A, size: 0x8, addend: 0x0, symName: __ZNSt3__122__compressed_pair_elemIPiLi0ELb0EE5__getB8ue170006Ev, symObjAddr: 0x1A1D8, symBinAddr: 0x1000316FC, symSize: 0x14 }
  - { offsetInCU: 0x272B3, offset: 0x74778, size: 0x8, addend: 0x0, symName: __ZNSt3__16vectorIiNS_9allocatorIiEEE21_ConstructTransactionC1B8ue170006ERS3_m, symObjAddr: 0x1A1EC, symBinAddr: 0x100031710, symSize: 0x3C }
  - { offsetInCU: 0x272F9, offset: 0x747BE, size: 0x8, addend: 0x0, symName: __ZNSt3__116allocator_traitsINS_9allocatorIiEEE9constructB8ue170006IiJRKiEvEEvRS2_PT_DpOT0_, symObjAddr: 0x1A228, symBinAddr: 0x10003174C, symSize: 0x34 }
  - { offsetInCU: 0x27352, offset: 0x74817, size: 0x8, addend: 0x0, symName: __ZNSt3__16vectorIiNS_9allocatorIiEEE7__allocB8ue170006Ev, symObjAddr: 0x1A25C, symBinAddr: 0x100031780, symSize: 0x28 }
  - { offsetInCU: 0x27376, offset: 0x7483B, size: 0x8, addend: 0x0, symName: __ZNSt3__16vectorIiNS_9allocatorIiEEE21_ConstructTransactionD1B8ue170006Ev, symObjAddr: 0x1A298, symBinAddr: 0x1000317BC, symSize: 0x2C }
  - { offsetInCU: 0x2739E, offset: 0x74863, size: 0x8, addend: 0x0, symName: __ZNSt3__16vectorIiNS_9allocatorIiEEE21_ConstructTransactionC2B8ue170006ERS3_m, symObjAddr: 0x1A2C4, symBinAddr: 0x1000317E8, symSize: 0x44 }
  - { offsetInCU: 0x273E5, offset: 0x748AA, size: 0x8, addend: 0x0, symName: __ZNSt3__19allocatorIiE9constructB8ue170006IiJRKiEEEvPT_DpOT0_, symObjAddr: 0x1A308, symBinAddr: 0x10003182C, symSize: 0x28 }
  - { offsetInCU: 0x2743C, offset: 0x74901, size: 0x8, addend: 0x0, symName: __ZNSt3__117__compressed_pairIPiNS_9allocatorIiEEE6secondB8ue170006Ev, symObjAddr: 0x1A330, symBinAddr: 0x100031854, symSize: 0x24 }
  - { offsetInCU: 0x27460, offset: 0x74925, size: 0x8, addend: 0x0, symName: __ZNSt3__122__compressed_pair_elemINS_9allocatorIiEELi1ELb1EE5__getB8ue170006Ev, symObjAddr: 0x1A354, symBinAddr: 0x100031878, symSize: 0x14 }
  - { offsetInCU: 0x27485, offset: 0x7494A, size: 0x8, addend: 0x0, symName: __ZNSt3__16vectorIiNS_9allocatorIiEEE21_ConstructTransactionD2B8ue170006Ev, symObjAddr: 0x1A368, symBinAddr: 0x10003188C, symSize: 0x20 }
  - { offsetInCU: 0x274AE, offset: 0x74973, size: 0x8, addend: 0x0, symName: __ZNKSt3__16vectorIiNS_9allocatorIiEEE11__recommendB8ue170006Em, symObjAddr: 0x1A388, symBinAddr: 0x1000318AC, symSize: 0xB4 }
  - { offsetInCU: 0x27502, offset: 0x749C7, size: 0x8, addend: 0x0, symName: __ZNSt3__114__split_bufferIiRNS_9allocatorIiEEEC1EmmS3_, symObjAddr: 0x1A43C, symBinAddr: 0x100031960, symSize: 0x44 }
  - { offsetInCU: 0x27556, offset: 0x74A1B, size: 0x8, addend: 0x0, symName: __ZNSt3__114__split_bufferIiRNS_9allocatorIiEEED1Ev, symObjAddr: 0x1A590, symBinAddr: 0x100031AB4, symSize: 0x2C }
  - { offsetInCU: 0x27580, offset: 0x74A45, size: 0x8, addend: 0x0, symName: __ZNKSt3__16vectorIiNS_9allocatorIiEEE8max_sizeEv, symObjAddr: 0x1A5BC, symBinAddr: 0x100031AE0, symSize: 0x60 }
  - { offsetInCU: 0x275A7, offset: 0x74A6C, size: 0x8, addend: 0x0, symName: __ZNKSt3__16vectorIiNS_9allocatorIiEEE20__throw_length_errorB8ue170006Ev, symObjAddr: 0x1A61C, symBinAddr: 0x100031B40, symSize: 0x1C }
  - { offsetInCU: 0x275CB, offset: 0x74A90, size: 0x8, addend: 0x0, symName: __ZNKSt3__16vectorIiNS_9allocatorIiEEE8capacityB8ue170006Ev, symObjAddr: 0x1A638, symBinAddr: 0x100031B5C, symSize: 0x40 }
  - { offsetInCU: 0x275F9, offset: 0x74ABE, size: 0x8, addend: 0x0, symName: __ZNSt3__116allocator_traitsINS_9allocatorIiEEE8max_sizeB8ue170006IS2_vEEmRKS2_, symObjAddr: 0x1A678, symBinAddr: 0x100031B9C, symSize: 0x24 }
  - { offsetInCU: 0x27627, offset: 0x74AEC, size: 0x8, addend: 0x0, symName: __ZNKSt3__16vectorIiNS_9allocatorIiEEE7__allocB8ue170006Ev, symObjAddr: 0x1A69C, symBinAddr: 0x100031BC0, symSize: 0x28 }
  - { offsetInCU: 0x2764B, offset: 0x74B10, size: 0x8, addend: 0x0, symName: __ZNKSt3__19allocatorIiE8max_sizeB8ue170006Ev, symObjAddr: 0x1A6C4, symBinAddr: 0x100031BE8, symSize: 0x14 }
  - { offsetInCU: 0x27670, offset: 0x74B35, size: 0x8, addend: 0x0, symName: __ZNKSt3__117__compressed_pairIPiNS_9allocatorIiEEE6secondB8ue170006Ev, symObjAddr: 0x1A6D8, symBinAddr: 0x100031BFC, symSize: 0x24 }
  - { offsetInCU: 0x27694, offset: 0x74B59, size: 0x8, addend: 0x0, symName: __ZNKSt3__122__compressed_pair_elemINS_9allocatorIiEELi1ELb1EE5__getB8ue170006Ev, symObjAddr: 0x1A6FC, symBinAddr: 0x100031C20, symSize: 0x14 }
  - { offsetInCU: 0x276B9, offset: 0x74B7E, size: 0x8, addend: 0x0, symName: __ZNKSt3__16vectorIiNS_9allocatorIiEEE9__end_capB8ue170006Ev, symObjAddr: 0x1A710, symBinAddr: 0x100031C34, symSize: 0x28 }
  - { offsetInCU: 0x276DD, offset: 0x74BA2, size: 0x8, addend: 0x0, symName: __ZNKSt3__117__compressed_pairIPiNS_9allocatorIiEEE5firstB8ue170006Ev, symObjAddr: 0x1A738, symBinAddr: 0x100031C5C, symSize: 0x24 }
  - { offsetInCU: 0x27701, offset: 0x74BC6, size: 0x8, addend: 0x0, symName: __ZNKSt3__122__compressed_pair_elemIPiLi0ELb0EE5__getB8ue170006Ev, symObjAddr: 0x1A75C, symBinAddr: 0x100031C80, symSize: 0x14 }
  - { offsetInCU: 0x27726, offset: 0x74BEB, size: 0x8, addend: 0x0, symName: __ZNSt3__114__split_bufferIiRNS_9allocatorIiEEEC2EmmS3_, symObjAddr: 0x1A770, symBinAddr: 0x100031C94, symSize: 0xD4 }
  - { offsetInCU: 0x27798, offset: 0x74C5D, size: 0x8, addend: 0x0, symName: __ZNSt3__117__compressed_pairIPiRNS_9allocatorIiEEEC1B8ue170006IDnS4_EEOT_OT0_, symObjAddr: 0x1A844, symBinAddr: 0x100031D68, symSize: 0x3C }
  - { offsetInCU: 0x277EE, offset: 0x74CB3, size: 0x8, addend: 0x0, symName: __ZNSt3__114__split_bufferIiRNS_9allocatorIiEEE7__allocB8ue170006Ev, symObjAddr: 0x1A8C0, symBinAddr: 0x100031DE4, symSize: 0x28 }
  - { offsetInCU: 0x27812, offset: 0x74CD7, size: 0x8, addend: 0x0, symName: __ZNSt3__114__split_bufferIiRNS_9allocatorIiEEE9__end_capB8ue170006Ev, symObjAddr: 0x1A8E8, symBinAddr: 0x100031E0C, symSize: 0x28 }
  - { offsetInCU: 0x27836, offset: 0x74CFB, size: 0x8, addend: 0x0, symName: __ZNSt3__117__compressed_pairIPiRNS_9allocatorIiEEEC2B8ue170006IDnS4_EEOT_OT0_, symObjAddr: 0x1A910, symBinAddr: 0x100031E34, symSize: 0x48 }
  - { offsetInCU: 0x2788C, offset: 0x74D51, size: 0x8, addend: 0x0, symName: __ZNSt3__122__compressed_pair_elemIPiLi0ELb0EEC2B8ue170006IDnvEEOT_, symObjAddr: 0x1A958, symBinAddr: 0x100031E7C, symSize: 0x1C }
  - { offsetInCU: 0x278CE, offset: 0x74D93, size: 0x8, addend: 0x0, symName: __ZNSt3__122__compressed_pair_elemIRNS_9allocatorIiEELi1ELb0EEC2B8ue170006IS3_vEEOT_, symObjAddr: 0x1A974, symBinAddr: 0x100031E98, symSize: 0x20 }
  - { offsetInCU: 0x27910, offset: 0x74DD5, size: 0x8, addend: 0x0, symName: __ZNSt3__19allocatorIiE8allocateB8ue170006Em, symObjAddr: 0x1A994, symBinAddr: 0x100031EB8, symSize: 0x58 }
  - { offsetInCU: 0x27942, offset: 0x74E07, size: 0x8, addend: 0x0, symName: __ZNSt3__117__compressed_pairIPiRNS_9allocatorIiEEE6secondB8ue170006Ev, symObjAddr: 0x1A9EC, symBinAddr: 0x100031F10, symSize: 0x28 }
  - { offsetInCU: 0x27966, offset: 0x74E2B, size: 0x8, addend: 0x0, symName: __ZNSt3__122__compressed_pair_elemIRNS_9allocatorIiEELi1ELb0EE5__getB8ue170006Ev, symObjAddr: 0x1AA14, symBinAddr: 0x100031F38, symSize: 0x18 }
  - { offsetInCU: 0x2798B, offset: 0x74E50, size: 0x8, addend: 0x0, symName: __ZNSt3__117__compressed_pairIPiRNS_9allocatorIiEEE5firstB8ue170006Ev, symObjAddr: 0x1AA2C, symBinAddr: 0x100031F50, symSize: 0x24 }
  - { offsetInCU: 0x279AF, offset: 0x74E74, size: 0x8, addend: 0x0, symName: __ZNKSt3__16vectorIiNS_9allocatorIiEEE17__annotate_deleteB8ue170006Ev, symObjAddr: 0x1AA50, symBinAddr: 0x100031F74, symSize: 0xB8 }
  - { offsetInCU: 0x279D3, offset: 0x74E98, size: 0x8, addend: 0x0, symName: __ZNSt3__116reverse_iteratorIPiEC1B8ue170006ES1_, symObjAddr: 0x1AB80, symBinAddr: 0x1000320A4, symSize: 0x34 }
  - { offsetInCU: 0x27A09, offset: 0x74ECE, size: 0x8, addend: 0x0, symName: __ZNKSt3__116reverse_iteratorIPiE4baseB8ue170006Ev, symObjAddr: 0x1ABB4, symBinAddr: 0x1000320D8, symSize: 0x18 }
  - { offsetInCU: 0x27A2E, offset: 0x74EF3, size: 0x8, addend: 0x0, symName: __ZNKSt3__16vectorIiNS_9allocatorIiEEE14__annotate_newB8ue170006Em, symObjAddr: 0x1AC08, symBinAddr: 0x10003212C, symSize: 0xAC }
  - { offsetInCU: 0x27A61, offset: 0x74F26, size: 0x8, addend: 0x0, symName: __ZNKSt3__16vectorIiNS_9allocatorIiEEE31__annotate_contiguous_containerB8ue170006EPKvS5_S5_S5_, symObjAddr: 0x1ACB4, symBinAddr: 0x1000321D8, symSize: 0x20 }
  - { offsetInCU: 0x27AB6, offset: 0x74F7B, size: 0x8, addend: 0x0, symName: __ZNKSt3__16vectorIiNS_9allocatorIiEEE4dataB8ue170006Ev, symObjAddr: 0x1ACD4, symBinAddr: 0x1000321F8, symSize: 0x28 }
  - { offsetInCU: 0x27AF3, offset: 0x74FB8, size: 0x8, addend: 0x0, symName: __ZNKSt3__111__move_loopINS_17_ClassicAlgPolicyEEclB8ue170006INS_16reverse_iteratorIPiEES6_S6_EENS_4pairIT_T1_EES8_T0_S9_, symObjAddr: 0x1AFEC, symBinAddr: 0x100032510, symSize: 0xA0 }
  - { offsetInCU: 0x27B5C, offset: 0x75021, size: 0x8, addend: 0x0, symName: __ZNSt3__18_IterOpsINS_17_ClassicAlgPolicyEE11__iter_moveB8ue170006IRNS_16reverse_iteratorIPiEEEENS_9enable_ifIXsr12is_referenceIDTdeclsr3stdE7declvalIRT_EEEEE5valueEDTclsr3stdE4movedeclsr3stdE7declvalISA_EEEEE4typeEOS9_, symObjAddr: 0x1B220, symBinAddr: 0x100032744, symSize: 0x28 }
  - { offsetInCU: 0x27B87, offset: 0x7504C, size: 0x8, addend: 0x0, symName: __ZNKSt3__116reverse_iteratorIPiEdeB8ue170006Ev, symObjAddr: 0x1B248, symBinAddr: 0x10003276C, symSize: 0x28 }
  - { offsetInCU: 0x27BBA, offset: 0x7507F, size: 0x8, addend: 0x0, symName: __ZNSt3__116reverse_iteratorIPiEppB8ue170006Ev, symObjAddr: 0x1B270, symBinAddr: 0x100032794, symSize: 0x20 }
  - { offsetInCU: 0x27BDF, offset: 0x750A4, size: 0x8, addend: 0x0, symName: __ZNSt3__18_IterOpsINS_17_ClassicAlgPolicyEE25__validate_iter_referenceB8ue170006IRNS_16reverse_iteratorIPiEEEEvv, symObjAddr: 0x1B290, symBinAddr: 0x1000327B4, symSize: 0x4 }
  - { offsetInCU: 0x27BFD, offset: 0x750C2, size: 0x8, addend: 0x0, symName: __ZNSt3__118__unwrap_iter_implINS_16reverse_iteratorIPiEELb0EE8__unwrapB8ue170006ES3_, symObjAddr: 0x1B294, symBinAddr: 0x1000327B8, symSize: 0x24 }
  - { offsetInCU: 0x27C25, offset: 0x750EA, size: 0x8, addend: 0x0, symName: __ZNSt3__14pairINS_16reverse_iteratorIPiEES3_EC1B8ue170006IS3_S3_LPv0EEEOT_OT0_, symObjAddr: 0x1B2B8, symBinAddr: 0x1000327DC, symSize: 0x3C }
  - { offsetInCU: 0x27C82, offset: 0x75147, size: 0x8, addend: 0x0, symName: __ZNSt3__14pairINS_16reverse_iteratorIPiEES3_EC2B8ue170006IS3_S3_LPv0EEEOT_OT0_, symObjAddr: 0x1B2F4, symBinAddr: 0x100032818, symSize: 0x34 }
  - { offsetInCU: 0x27CE0, offset: 0x751A5, size: 0x8, addend: 0x0, symName: __ZNSt3__118__unwrap_iter_implINS_16reverse_iteratorIPiEELb0EE8__rewrapB8ue170006ES3_S3_, symObjAddr: 0x1B328, symBinAddr: 0x10003284C, symSize: 0x2C }
  - { offsetInCU: 0x27D0E, offset: 0x751D3, size: 0x8, addend: 0x0, symName: __ZNSt3__116reverse_iteratorIPiEC2B8ue170006ES1_, symObjAddr: 0x1B354, symBinAddr: 0x100032878, symSize: 0x28 }
  - { offsetInCU: 0x27D45, offset: 0x7520A, size: 0x8, addend: 0x0, symName: __ZNSt3__114__split_bufferIiRNS_9allocatorIiEEED2Ev, symObjAddr: 0x1B37C, symBinAddr: 0x1000328A0, symSize: 0x8C }
  - { offsetInCU: 0x27D6F, offset: 0x75234, size: 0x8, addend: 0x0, symName: __ZNSt3__114__split_bufferIiRNS_9allocatorIiEEE5clearB8ue170006Ev, symObjAddr: 0x1B408, symBinAddr: 0x10003292C, symSize: 0x28 }
  - { offsetInCU: 0x27D93, offset: 0x75258, size: 0x8, addend: 0x0, symName: __ZNSt3__116allocator_traitsINS_9allocatorIiEEE10deallocateB8ue170006ERS2_Pim, symObjAddr: 0x1B430, symBinAddr: 0x100032954, symSize: 0x34 }
  - { offsetInCU: 0x27DD4, offset: 0x75299, size: 0x8, addend: 0x0, symName: __ZNKSt3__114__split_bufferIiRNS_9allocatorIiEEE8capacityB8ue170006Ev, symObjAddr: 0x1B464, symBinAddr: 0x100032988, symSize: 0x40 }
  - { offsetInCU: 0x27DF8, offset: 0x752BD, size: 0x8, addend: 0x0, symName: __ZNSt3__114__split_bufferIiRNS_9allocatorIiEEE17__destruct_at_endB8ue170006EPi, symObjAddr: 0x1B4A4, symBinAddr: 0x1000329C8, symSize: 0x2C }
